GAS LISTING C:\Users\Ilya\AppData\Local\Temp\ccxaKDG8.s 			page 1


   1              		.file	"main.cpp"
   2              		.text
   3              	.Ltext0:
   4              		.cfi_sections	.debug_frame
   5              		.section .rdata,"dr"
   6              	_ZStL19piecewise_construct:
   7 0000 00       		.space 1
   8              	.lcomm _ZStL8__ioinit,1,1
   9 0001 000000   		.align 4
  10              	_ZN13BFInterpreterL9UNSET_ARGE:
  11 0004 FFFFFFFF 		.long	-1
  12              		.section	.text$_ZN13BFInterpreter12TransferUnitD1Ev,"x"
  13              		.linkonce discard
  14              		.align 2
  15              		.globl	_ZN13BFInterpreter12TransferUnitD1Ev
  17              		.seh_proc	_ZN13BFInterpreter12TransferUnitD1Ev
  18              	_ZN13BFInterpreter12TransferUnitD1Ev:
  19              	.LFB2011:
  20              		.file 1 "D:/coding/BFInterpreter/transfer_unit.hpp"
   1:D:/coding/BFInterpreter\transfer_unit.hpp **** #pragma once
   2:D:/coding/BFInterpreter\transfer_unit.hpp **** #include <vector>
   3:D:/coding/BFInterpreter\transfer_unit.hpp **** #include <utility>
   4:D:/coding/BFInterpreter\transfer_unit.hpp **** #include <string>
   5:D:/coding/BFInterpreter\transfer_unit.hpp **** #include "interpreter_status.hpp"
   6:D:/coding/BFInterpreter\transfer_unit.hpp **** 
   7:D:/coding/BFInterpreter\transfer_unit.hpp **** #define TU_DEBUG
   8:D:/coding/BFInterpreter\transfer_unit.hpp **** 
   9:D:/coding/BFInterpreter\transfer_unit.hpp **** namespace BFInterpreter {
  10:D:/coding/BFInterpreter\transfer_unit.hpp **** 
  11:D:/coding/BFInterpreter\transfer_unit.hpp ****     typedef char token_t;
  12:D:/coding/BFInterpreter\transfer_unit.hpp ****     typedef long int tokenArg_t;
  13:D:/coding/BFInterpreter\transfer_unit.hpp **** 
  14:D:/coding/BFInterpreter\transfer_unit.hpp ****     enum Tokens : token_t {
  15:D:/coding/BFInterpreter\transfer_unit.hpp ****         INC_VAL = '+',
  16:D:/coding/BFInterpreter\transfer_unit.hpp ****         DEC_VAL = '-',
  17:D:/coding/BFInterpreter\transfer_unit.hpp ****         PREV_VAR = '<',
  18:D:/coding/BFInterpreter\transfer_unit.hpp ****         NEXT_VAR = '>',
  19:D:/coding/BFInterpreter\transfer_unit.hpp ****         INPUT_VAL = ',',
  20:D:/coding/BFInterpreter\transfer_unit.hpp ****         OUTPUT_VAL = '.',
  21:D:/coding/BFInterpreter\transfer_unit.hpp ****         BEGIN_LOOP = '[',
  22:D:/coding/BFInterpreter\transfer_unit.hpp ****         END_LOOP = ']',
  23:D:/coding/BFInterpreter\transfer_unit.hpp ****         END_SOURCE = '\0'
  24:D:/coding/BFInterpreter\transfer_unit.hpp ****     };
  25:D:/coding/BFInterpreter\transfer_unit.hpp **** 
  26:D:/coding/BFInterpreter\transfer_unit.hpp ****     const tokenArg_t UNSET_ARG = -1;
  27:D:/coding/BFInterpreter\transfer_unit.hpp **** 
  28:D:/coding/BFInterpreter\transfer_unit.hpp ****     class TransferUnit {
  29:D:/coding/BFInterpreter\transfer_unit.hpp **** 
  30:D:/coding/BFInterpreter\transfer_unit.hpp ****     public:
  31:D:/coding/BFInterpreter\transfer_unit.hpp **** 
  32:D:/coding/BFInterpreter\transfer_unit.hpp ****         typedef std::pair<token_t, tokenArg_t> Command_t;
  33:D:/coding/BFInterpreter\transfer_unit.hpp **** 
  34:D:/coding/BFInterpreter\transfer_unit.hpp ****         explicit TransferUnit(const char* strSrc);
  35:D:/coding/BFInterpreter\transfer_unit.hpp ****         explicit TransferUnit(std::string strSrc);
  36:D:/coding/BFInterpreter\transfer_unit.hpp **** 
  37:D:/coding/BFInterpreter\transfer_unit.hpp ****         ~TransferUnit()                                  = default;
  21              		.loc 1 37 9
GAS LISTING C:\Users\Ilya\AppData\Local\Temp\ccxaKDG8.s 			page 2


  22              		.cfi_startproc
  23 0000 55       		pushq	%rbp
  24              		.seh_pushreg	%rbp
  25              		.cfi_def_cfa_offset 16
  26              		.cfi_offset 6, -16
  27 0001 4889E5   		movq	%rsp, %rbp
  28              		.seh_setframe	%rbp, 0
  29              		.cfi_def_cfa_register 6
  30 0004 4883EC20 		subq	$32, %rsp
  31              		.seh_stackalloc	32
  32              		.seh_endprologue
  33 0008 48894D10 		movq	%rcx, 16(%rbp)
  34              	.LBB2:
  35              		.loc 1 37 9
  36 000c 488B4510 		movq	16(%rbp), %rax
  37 0010 4889C1   		movq	%rax, %rcx
  38 0013 E8000000 		call	_ZNSt6vectorISt4pairIclESaIS1_EED1Ev
  38      00
  39              	.LBE2:
  40 0018 90       		nop
  41 0019 4883C420 		addq	$32, %rsp
  42 001d 5D       		popq	%rbp
  43              		.cfi_restore 6
  44              		.cfi_def_cfa 7, 8
  45 001e C3       		ret
  46              		.cfi_endproc
  47              	.LFE2011:
  48              		.seh_endproc
  50 001f 90       		.section .rdata,"dr"
  51              		.align 8
  52              	.LC0:
  53 0008 2B2B202B 		.ascii "++ ++ ++ ++++[>+++++++>++++++++++>+++<<<-]>++.>+.+++++++..+++.>++.<<+++++++++++++++.>.+++.
  53      2B202B2B 
  53      202B2B2B 
  53      2B5B3E2B 
  53      2B2B2B2B 
  54              	.LC1:
  55 0076 4572726F 		.ascii "Error: \0"
  55      723A2000 
  56              	.LC2:
  57 007e 2C207265 		.ascii ", ret code: \0"
  57      7420636F 
  57      64653A20 
  57      00
  58 008b 00000000 		.text
  58      00
  59              		.globl	main
  61              		.seh_proc	main
  62              	main:
  63              	.LFB2008:
  64              		.file 2 "D:/coding/BFInterpreter/main.cpp"
   1:D:/coding/BFInterpreter\main.cpp **** #include <iostream>
   2:D:/coding/BFInterpreter\main.cpp **** #include "process.hpp"
   3:D:/coding/BFInterpreter\main.cpp **** #include <type_traits>
   4:D:/coding/BFInterpreter\main.cpp **** 
   5:D:/coding/BFInterpreter\main.cpp **** using namespace BFInterpreter;
   6:D:/coding/BFInterpreter\main.cpp **** 
GAS LISTING C:\Users\Ilya\AppData\Local\Temp\ccxaKDG8.s 			page 3


   7:D:/coding/BFInterpreter\main.cpp **** int main()
   8:D:/coding/BFInterpreter\main.cpp **** {
  65              		.loc 2 8 1
  66              		.cfi_startproc
  67 0000 55       		pushq	%rbp
  68              		.seh_pushreg	%rbp
  69              		.cfi_def_cfa_offset 16
  70              		.cfi_offset 6, -16
  71 0001 56       		pushq	%rsi
  72              		.seh_pushreg	%rsi
  73              		.cfi_def_cfa_offset 24
  74              		.cfi_offset 4, -24
  75 0002 53       		pushq	%rbx
  76              		.seh_pushreg	%rbx
  77              		.cfi_def_cfa_offset 32
  78              		.cfi_offset 3, -32
  79 0003 4889E5   		movq	%rsp, %rbp
  80              		.seh_setframe	%rbp, 0
  81              		.cfi_def_cfa_register 6
  82 0006 4883EC70 		subq	$112, %rsp
  83              		.seh_stackalloc	112
  84              		.seh_endprologue
  85              		.loc 2 8 1
  86 000a E8000000 		call	__main
  86      00
  87              	.LBB3:
   9:D:/coding/BFInterpreter\main.cpp ****     try {
  10:D:/coding/BFInterpreter\main.cpp **** 
  11:D:/coding/BFInterpreter\main.cpp ****         TransferUnit tu("++ ++ ++ ++++[>+++++++>++++++++++>+++<<<-]>++.>+.+++++++..+++.>++.<<++++++
  88              		.loc 2 11 136
  89 000f 488D45E0 		leaq	-32(%rbp), %rax
  90 0013 488D1508 		leaq	.LC0(%rip), %rdx
  90      000000
  91 001a 4889C1   		movq	%rax, %rcx
  92              	.LEHB0:
  93 001d E8000000 		call	_ZN13BFInterpreter12TransferUnitC1EPKc
  93      00
  94              	.LEHE0:
  12:D:/coding/BFInterpreter\main.cpp ****         PrintListing(tu);
  95              		.loc 2 12 21
  96 0022 488D45E0 		leaq	-32(%rbp), %rax
  97 0026 4889C1   		movq	%rax, %rcx
  98              	.LEHB1:
  99 0029 E8000000 		call	_ZN13BFInterpreter12PrintListingERNS_12TransferUnitE
  99      00
  13:D:/coding/BFInterpreter\main.cpp ****         Process proc(tu);
 100              		.loc 2 13 24
 101 002e 488D55E0 		leaq	-32(%rbp), %rdx
 102 0032 488D45B0 		leaq	-80(%rbp), %rax
 103 0036 41B83075 		movl	$30000, %r8d
 103      0000
 104 003c 4889C1   		movq	%rax, %rcx
 105 003f E8000000 		call	_ZN13BFInterpreter7ProcessC1ERNS_12TransferUnitEy
 105      00
 106              	.LEHE1:
  14:D:/coding/BFInterpreter\main.cpp **** 
  15:D:/coding/BFInterpreter\main.cpp ****         proc.FullExecute();
GAS LISTING C:\Users\Ilya\AppData\Local\Temp\ccxaKDG8.s 			page 4


 107              		.loc 2 15 25
 108 0044 488D45B0 		leaq	-80(%rbp), %rax
 109 0048 4889C1   		movq	%rax, %rcx
 110              	.LEHB2:
 111 004b E8000000 		call	_ZN13BFInterpreter7Process11FullExecuteEv
 111      00
 112              	.LEHE2:
  13:D:/coding/BFInterpreter\main.cpp ****         Process proc(tu);
 113              		.loc 2 13 24
 114 0050 488D45B0 		leaq	-80(%rbp), %rax
 115 0054 4889C1   		movq	%rax, %rcx
 116 0057 E8000000 		call	_ZN13BFInterpreter7ProcessD1Ev
 116      00
  11:D:/coding/BFInterpreter\main.cpp ****         PrintListing(tu);
 117              		.loc 2 11 136
 118 005c 488D45E0 		leaq	-32(%rbp), %rax
 119 0060 4889C1   		movq	%rax, %rcx
 120 0063 E8000000 		call	_ZN13BFInterpreter12TransferUnitD1Ev
 120      00
 121              	.L8:
 122              	.LBE3:
  16:D:/coding/BFInterpreter\main.cpp **** 
  17:D:/coding/BFInterpreter\main.cpp ****     } catch(const InterpreterException& ie) {
  18:D:/coding/BFInterpreter\main.cpp ****         std::cout << "Error: " << ie.what() << ", ret code: " << ie.GetCode() << std::endl;
  19:D:/coding/BFInterpreter\main.cpp ****     }
  20:D:/coding/BFInterpreter\main.cpp **** 
  21:D:/coding/BFInterpreter\main.cpp ****     return 0;
 123              		.loc 2 21 12
 124 0068 B8000000 		movl	$0, %eax
 124      00
 125 006d E9C90000 		jmp	.L14
 125      00
 126              	.L12:
 127              	.LBB4:
  13:D:/coding/BFInterpreter\main.cpp **** 
 128              		.loc 2 13 24
 129 0072 4889C6   		movq	%rax, %rsi
 130 0075 4889D3   		movq	%rdx, %rbx
 131 0078 488D45B0 		leaq	-80(%rbp), %rax
 132 007c 4889C1   		movq	%rax, %rcx
 133 007f E8000000 		call	_ZN13BFInterpreter7ProcessD1Ev
 133      00
 134 0084 EB06     		jmp	.L5
 135              	.L11:
  11:D:/coding/BFInterpreter\main.cpp ****         PrintListing(tu);
 136              		.loc 2 11 136
 137 0086 4889C6   		movq	%rax, %rsi
 138 0089 4889D3   		movq	%rdx, %rbx
 139              	.L5:
 140 008c 488D45E0 		leaq	-32(%rbp), %rax
 141 0090 4889C1   		movq	%rax, %rcx
 142 0093 E8000000 		call	_ZN13BFInterpreter12TransferUnitD1Ev
 142      00
 143 0098 4889F0   		movq	%rsi, %rax
 144 009b 4889DA   		movq	%rbx, %rdx
 145 009e EB00     		jmp	.L6
 146              	.L10:
GAS LISTING C:\Users\Ilya\AppData\Local\Temp\ccxaKDG8.s 			page 5


 147              	.L6:
 148              	.LBE4:
  17:D:/coding/BFInterpreter\main.cpp ****         std::cout << "Error: " << ie.what() << ", ret code: " << ie.GetCode() << std::endl;
 149              		.loc 2 17 7
 150 00a0 4883FA01 		cmpq	$1, %rdx
 151 00a4 7408     		je	.L7
 152 00a6 4889C1   		movq	%rax, %rcx
 153              	.LEHB3:
 154 00a9 E8000000 		call	_Unwind_Resume
 154      00
 155              	.LEHE3:
 156              	.L7:
 157              	.LBB5:
  17:D:/coding/BFInterpreter\main.cpp ****         std::cout << "Error: " << ie.what() << ", ret code: " << ie.GetCode() << std::endl;
 158              		.loc 2 17 41 discriminator 1
 159 00ae 4889C1   		movq	%rax, %rcx
 160 00b1 E8000000 		call	__cxa_begin_catch
 160      00
 161 00b6 488945F8 		movq	%rax, -8(%rbp)
  18:D:/coding/BFInterpreter\main.cpp ****     }
 162              		.loc 2 18 48 discriminator 1
 163 00ba 488D1576 		leaq	.LC1(%rip), %rdx
 163      000000
 164 00c1 488B0D00 		movq	.refptr._ZSt4cout(%rip), %rcx
 164      000000
 165              	.LEHB4:
 166 00c8 E8000000 		call	_ZStlsISt11char_traitsIcEERSt13basic_ostreamIcT_ES5_PKc
 166      00
 167 00cd 4889C3   		movq	%rax, %rbx
 168 00d0 488B45F8 		movq	-8(%rbp), %rax
 169 00d4 4889C1   		movq	%rax, %rcx
 170 00d7 E8000000 		call	_ZNK13BFInterpreter20InterpreterException4whatEv
 170      00
 171 00dc 4889C2   		movq	%rax, %rdx
 172 00df 4889D9   		movq	%rbx, %rcx
 173 00e2 E8000000 		call	_ZStlsISt11char_traitsIcEERSt13basic_ostreamIcT_ES5_PKc
 173      00
 174 00e7 488D157E 		leaq	.LC2(%rip), %rdx
 174      000000
 175 00ee 4889C1   		movq	%rax, %rcx
 176 00f1 E8000000 		call	_ZStlsISt11char_traitsIcEERSt13basic_ostreamIcT_ES5_PKc
 176      00
  18:D:/coding/BFInterpreter\main.cpp ****     }
 177              		.loc 2 18 48 is_stmt 0 discriminator 2
 178 00f6 4889C3   		movq	%rax, %rbx
  18:D:/coding/BFInterpreter\main.cpp ****     }
 179              		.loc 2 18 76 is_stmt 1 discriminator 2
 180 00f9 488B45F8 		movq	-8(%rbp), %rax
 181 00fd 4889C1   		movq	%rax, %rcx
 182 0100 E8000000 		call	_ZNK13BFInterpreter20InterpreterException7GetCodeEv
 182      00
  18:D:/coding/BFInterpreter\main.cpp ****     }
 183              		.loc 2 18 77 discriminator 2
 184 0105 89C2     		movl	%eax, %edx
 185 0107 4889D9   		movq	%rbx, %rcx
 186 010a E8000000 		call	_ZNSolsEi
 186      00
GAS LISTING C:\Users\Ilya\AppData\Local\Temp\ccxaKDG8.s 			page 6


  18:D:/coding/BFInterpreter\main.cpp ****     }
 187              		.loc 2 18 87 discriminator 3
 188 010f 488B1500 		movq	.refptr._ZSt4endlIcSt11char_traitsIcEERSt13basic_ostreamIT_T0_ES6_(%rip), %rdx
 188      000000
 189 0116 4889C1   		movq	%rax, %rcx
 190 0119 E8000000 		call	_ZNSolsEPFRSoS_E
 190      00
 191              	.LEHE4:
 192              	.LEHB5:
  17:D:/coding/BFInterpreter\main.cpp ****         std::cout << "Error: " << ie.what() << ", ret code: " << ie.GetCode() << std::endl;
 193              		.loc 2 17 41
 194 011e E8000000 		call	__cxa_end_catch
 194      00
 195              	.LEHE5:
 196 0123 E940FFFF 		jmp	.L8
 196      FF
 197              	.L13:
 198 0128 4889C3   		movq	%rax, %rbx
 199 012b E8000000 		call	__cxa_end_catch
 199      00
 200 0130 4889D8   		movq	%rbx, %rax
 201 0133 4889C1   		movq	%rax, %rcx
 202              	.LEHB6:
 203 0136 E8000000 		call	_Unwind_Resume
 203      00
 204              	.LEHE6:
 205              	.L14:
 206              	.LBE5:
  22:D:/coding/BFInterpreter\main.cpp **** }
 207              		.loc 2 22 1
 208 013b 4883C470 		addq	$112, %rsp
 209 013f 5B       		popq	%rbx
 210              		.cfi_restore 3
 211 0140 5E       		popq	%rsi
 212              		.cfi_restore 4
 213 0141 5D       		popq	%rbp
 214              		.cfi_restore 6
 215              		.cfi_def_cfa 7, 24
 216 0142 C3       		ret
 217              		.cfi_endproc
 218              	.LFE2008:
 220              		.seh_handler	__gxx_personality_seh0, @unwind, @except
 221              		.seh_handlerdata
 222              		.align 4
 223              	.LLSDA2008:
 224 0014 FF       		.byte	0xff
 225 0015 9B       		.byte	0x9b
 226 0016 2D       		.uleb128 .LLSDATT2008-.LLSDATTD2008
 227              	.LLSDATTD2008:
 228 0017 01       		.byte	0x1
 229 0018 23       		.uleb128 .LLSDACSE2008-.LLSDACSB2008
 230              	.LLSDACSB2008:
 231 0019 1D       		.uleb128 .LEHB0-.LFB2008
 232 001a 05       		.uleb128 .LEHE0-.LEHB0
 233 001b A001     		.uleb128 .L10-.LFB2008
 234 001d 01       		.uleb128 0x1
 235 001e 29       		.uleb128 .LEHB1-.LFB2008
GAS LISTING C:\Users\Ilya\AppData\Local\Temp\ccxaKDG8.s 			page 7


 236 001f 1B       		.uleb128 .LEHE1-.LEHB1
 237 0020 8601     		.uleb128 .L11-.LFB2008
 238 0022 03       		.uleb128 0x3
 239 0023 4B       		.uleb128 .LEHB2-.LFB2008
 240 0024 05       		.uleb128 .LEHE2-.LEHB2
 241 0025 72       		.uleb128 .L12-.LFB2008
 242 0026 03       		.uleb128 0x3
 243 0027 A901     		.uleb128 .LEHB3-.LFB2008
 244 0029 05       		.uleb128 .LEHE3-.LEHB3
 245 002a 00       		.uleb128 0
 246 002b 00       		.uleb128 0
 247 002c C801     		.uleb128 .LEHB4-.LFB2008
 248 002e 56       		.uleb128 .LEHE4-.LEHB4
 249 002f A802     		.uleb128 .L13-.LFB2008
 250 0031 00       		.uleb128 0
 251 0032 9E02     		.uleb128 .LEHB5-.LFB2008
 252 0034 05       		.uleb128 .LEHE5-.LEHB5
 253 0035 00       		.uleb128 0
 254 0036 00       		.uleb128 0
 255 0037 B602     		.uleb128 .LEHB6-.LFB2008
 256 0039 05       		.uleb128 .LEHE6-.LEHB6
 257 003a 00       		.uleb128 0
 258 003b 00       		.uleb128 0
 259              	.LLSDACSE2008:
 260 003c 01       		.byte	0x1
 261 003d 00       		.byte	0
 262 003e 00       		.byte	0
 263 003f 7D       		.byte	0x7d
 264              		.align 4
 265 0040 04000000 		.long	.LDFCM0-.
 266              	.LLSDATT2008:
 267              		.text
 268              		.seh_endproc
 269              		.section	.text$_ZNSt6vectorISt4pairIclESaIS1_EED1Ev,"x"
 270              		.linkonce discard
 271              		.align 2
 272              		.globl	_ZNSt6vectorISt4pairIclESaIS1_EED1Ev
 274              		.seh_proc	_ZNSt6vectorISt4pairIclESaIS1_EED1Ev
 275              	_ZNSt6vectorISt4pairIclESaIS1_EED1Ev:
 276              	.LFB2258:
 277              		.file 3 "D:/msys64/mingw64/include/c++/10.1.0/bits/stl_vector.h"
   1:D:/msys64/mingw64/include/c++/10.1.0/bits\stl_vector.h **** // Vector implementation -*- C++ -*-
   2:D:/msys64/mingw64/include/c++/10.1.0/bits\stl_vector.h **** 
   3:D:/msys64/mingw64/include/c++/10.1.0/bits\stl_vector.h **** // Copyright (C) 2001-2020 Free Software Foundation, Inc.
   4:D:/msys64/mingw64/include/c++/10.1.0/bits\stl_vector.h **** //
   5:D:/msys64/mingw64/include/c++/10.1.0/bits\stl_vector.h **** // This file is part of the GNU ISO C++ Library.  This library is free
   6:D:/msys64/mingw64/include/c++/10.1.0/bits\stl_vector.h **** // software; you can redistribute it and/or modify it under the
   7:D:/msys64/mingw64/include/c++/10.1.0/bits\stl_vector.h **** // terms of the GNU General Public License as published by the
   8:D:/msys64/mingw64/include/c++/10.1.0/bits\stl_vector.h **** // Free Software Foundation; either version 3, or (at your option)
   9:D:/msys64/mingw64/include/c++/10.1.0/bits\stl_vector.h **** // any later version.
  10:D:/msys64/mingw64/include/c++/10.1.0/bits\stl_vector.h **** 
  11:D:/msys64/mingw64/include/c++/10.1.0/bits\stl_vector.h **** // This library is distributed in the hope that it will be useful,
  12:D:/msys64/mingw64/include/c++/10.1.0/bits\stl_vector.h **** // but WITHOUT ANY WARRANTY; without even the implied warranty of
  13:D:/msys64/mingw64/include/c++/10.1.0/bits\stl_vector.h **** // MERCHANTABILITY or FITNESS FOR A PARTICULAR PURPOSE.  See the
  14:D:/msys64/mingw64/include/c++/10.1.0/bits\stl_vector.h **** // GNU General Public License for more details.
  15:D:/msys64/mingw64/include/c++/10.1.0/bits\stl_vector.h **** 
  16:D:/msys64/mingw64/include/c++/10.1.0/bits\stl_vector.h **** // Under Section 7 of GPL version 3, you are granted additional
GAS LISTING C:\Users\Ilya\AppData\Local\Temp\ccxaKDG8.s 			page 8


  17:D:/msys64/mingw64/include/c++/10.1.0/bits\stl_vector.h **** // permissions described in the GCC Runtime Library Exception, version
  18:D:/msys64/mingw64/include/c++/10.1.0/bits\stl_vector.h **** // 3.1, as published by the Free Software Foundation.
  19:D:/msys64/mingw64/include/c++/10.1.0/bits\stl_vector.h **** 
  20:D:/msys64/mingw64/include/c++/10.1.0/bits\stl_vector.h **** // You should have received a copy of the GNU General Public License and
  21:D:/msys64/mingw64/include/c++/10.1.0/bits\stl_vector.h **** // a copy of the GCC Runtime Library Exception along with this program;
  22:D:/msys64/mingw64/include/c++/10.1.0/bits\stl_vector.h **** // see the files COPYING3 and COPYING.RUNTIME respectively.  If not, see
  23:D:/msys64/mingw64/include/c++/10.1.0/bits\stl_vector.h **** // <http://www.gnu.org/licenses/>.
  24:D:/msys64/mingw64/include/c++/10.1.0/bits\stl_vector.h **** 
  25:D:/msys64/mingw64/include/c++/10.1.0/bits\stl_vector.h **** /*
  26:D:/msys64/mingw64/include/c++/10.1.0/bits\stl_vector.h ****  *
  27:D:/msys64/mingw64/include/c++/10.1.0/bits\stl_vector.h ****  * Copyright (c) 1994
  28:D:/msys64/mingw64/include/c++/10.1.0/bits\stl_vector.h ****  * Hewlett-Packard Company
  29:D:/msys64/mingw64/include/c++/10.1.0/bits\stl_vector.h ****  *
  30:D:/msys64/mingw64/include/c++/10.1.0/bits\stl_vector.h ****  * Permission to use, copy, modify, distribute and sell this software
  31:D:/msys64/mingw64/include/c++/10.1.0/bits\stl_vector.h ****  * and its documentation for any purpose is hereby granted without fee,
  32:D:/msys64/mingw64/include/c++/10.1.0/bits\stl_vector.h ****  * provided that the above copyright notice appear in all copies and
  33:D:/msys64/mingw64/include/c++/10.1.0/bits\stl_vector.h ****  * that both that copyright notice and this permission notice appear
  34:D:/msys64/mingw64/include/c++/10.1.0/bits\stl_vector.h ****  * in supporting documentation.  Hewlett-Packard Company makes no
  35:D:/msys64/mingw64/include/c++/10.1.0/bits\stl_vector.h ****  * representations about the suitability of this software for any
  36:D:/msys64/mingw64/include/c++/10.1.0/bits\stl_vector.h ****  * purpose.  It is provided "as is" without express or implied warranty.
  37:D:/msys64/mingw64/include/c++/10.1.0/bits\stl_vector.h ****  *
  38:D:/msys64/mingw64/include/c++/10.1.0/bits\stl_vector.h ****  *
  39:D:/msys64/mingw64/include/c++/10.1.0/bits\stl_vector.h ****  * Copyright (c) 1996
  40:D:/msys64/mingw64/include/c++/10.1.0/bits\stl_vector.h ****  * Silicon Graphics Computer Systems, Inc.
  41:D:/msys64/mingw64/include/c++/10.1.0/bits\stl_vector.h ****  *
  42:D:/msys64/mingw64/include/c++/10.1.0/bits\stl_vector.h ****  * Permission to use, copy, modify, distribute and sell this software
  43:D:/msys64/mingw64/include/c++/10.1.0/bits\stl_vector.h ****  * and its documentation for any purpose is hereby granted without fee,
  44:D:/msys64/mingw64/include/c++/10.1.0/bits\stl_vector.h ****  * provided that the above copyright notice appear in all copies and
  45:D:/msys64/mingw64/include/c++/10.1.0/bits\stl_vector.h ****  * that both that copyright notice and this permission notice appear
  46:D:/msys64/mingw64/include/c++/10.1.0/bits\stl_vector.h ****  * in supporting documentation.  Silicon Graphics makes no
  47:D:/msys64/mingw64/include/c++/10.1.0/bits\stl_vector.h ****  * representations about the suitability of this  software for any
  48:D:/msys64/mingw64/include/c++/10.1.0/bits\stl_vector.h ****  * purpose.  It is provided "as is" without express or implied warranty.
  49:D:/msys64/mingw64/include/c++/10.1.0/bits\stl_vector.h ****  */
  50:D:/msys64/mingw64/include/c++/10.1.0/bits\stl_vector.h **** 
  51:D:/msys64/mingw64/include/c++/10.1.0/bits\stl_vector.h **** /** @file bits/stl_vector.h
  52:D:/msys64/mingw64/include/c++/10.1.0/bits\stl_vector.h ****  *  This is an internal header file, included by other library headers.
  53:D:/msys64/mingw64/include/c++/10.1.0/bits\stl_vector.h ****  *  Do not attempt to use it directly. @headername{vector}
  54:D:/msys64/mingw64/include/c++/10.1.0/bits\stl_vector.h ****  */
  55:D:/msys64/mingw64/include/c++/10.1.0/bits\stl_vector.h **** 
  56:D:/msys64/mingw64/include/c++/10.1.0/bits\stl_vector.h **** #ifndef _STL_VECTOR_H
  57:D:/msys64/mingw64/include/c++/10.1.0/bits\stl_vector.h **** #define _STL_VECTOR_H 1
  58:D:/msys64/mingw64/include/c++/10.1.0/bits\stl_vector.h **** 
  59:D:/msys64/mingw64/include/c++/10.1.0/bits\stl_vector.h **** #include <bits/stl_iterator_base_funcs.h>
  60:D:/msys64/mingw64/include/c++/10.1.0/bits\stl_vector.h **** #include <bits/functexcept.h>
  61:D:/msys64/mingw64/include/c++/10.1.0/bits\stl_vector.h **** #include <bits/concept_check.h>
  62:D:/msys64/mingw64/include/c++/10.1.0/bits\stl_vector.h **** #if __cplusplus >= 201103L
  63:D:/msys64/mingw64/include/c++/10.1.0/bits\stl_vector.h **** #include <initializer_list>
  64:D:/msys64/mingw64/include/c++/10.1.0/bits\stl_vector.h **** #endif
  65:D:/msys64/mingw64/include/c++/10.1.0/bits\stl_vector.h **** #if __cplusplus > 201703L
  66:D:/msys64/mingw64/include/c++/10.1.0/bits\stl_vector.h **** # include <compare>
  67:D:/msys64/mingw64/include/c++/10.1.0/bits\stl_vector.h **** #endif
  68:D:/msys64/mingw64/include/c++/10.1.0/bits\stl_vector.h **** 
  69:D:/msys64/mingw64/include/c++/10.1.0/bits\stl_vector.h **** #include <debug/assertions.h>
  70:D:/msys64/mingw64/include/c++/10.1.0/bits\stl_vector.h **** 
  71:D:/msys64/mingw64/include/c++/10.1.0/bits\stl_vector.h **** #if _GLIBCXX_SANITIZE_STD_ALLOCATOR && _GLIBCXX_SANITIZE_VECTOR
  72:D:/msys64/mingw64/include/c++/10.1.0/bits\stl_vector.h **** extern "C" void
  73:D:/msys64/mingw64/include/c++/10.1.0/bits\stl_vector.h **** __sanitizer_annotate_contiguous_container(const void*, const void*,
GAS LISTING C:\Users\Ilya\AppData\Local\Temp\ccxaKDG8.s 			page 9


  74:D:/msys64/mingw64/include/c++/10.1.0/bits\stl_vector.h **** 					  const void*, const void*);
  75:D:/msys64/mingw64/include/c++/10.1.0/bits\stl_vector.h **** #endif
  76:D:/msys64/mingw64/include/c++/10.1.0/bits\stl_vector.h **** 
  77:D:/msys64/mingw64/include/c++/10.1.0/bits\stl_vector.h **** namespace std _GLIBCXX_VISIBILITY(default)
  78:D:/msys64/mingw64/include/c++/10.1.0/bits\stl_vector.h **** {
  79:D:/msys64/mingw64/include/c++/10.1.0/bits\stl_vector.h **** _GLIBCXX_BEGIN_NAMESPACE_VERSION
  80:D:/msys64/mingw64/include/c++/10.1.0/bits\stl_vector.h **** _GLIBCXX_BEGIN_NAMESPACE_CONTAINER
  81:D:/msys64/mingw64/include/c++/10.1.0/bits\stl_vector.h **** 
  82:D:/msys64/mingw64/include/c++/10.1.0/bits\stl_vector.h ****   /// See bits/stl_deque.h's _Deque_base for an explanation.
  83:D:/msys64/mingw64/include/c++/10.1.0/bits\stl_vector.h ****   template<typename _Tp, typename _Alloc>
  84:D:/msys64/mingw64/include/c++/10.1.0/bits\stl_vector.h ****     struct _Vector_base
  85:D:/msys64/mingw64/include/c++/10.1.0/bits\stl_vector.h ****     {
  86:D:/msys64/mingw64/include/c++/10.1.0/bits\stl_vector.h ****       typedef typename __gnu_cxx::__alloc_traits<_Alloc>::template
  87:D:/msys64/mingw64/include/c++/10.1.0/bits\stl_vector.h **** 	rebind<_Tp>::other _Tp_alloc_type;
  88:D:/msys64/mingw64/include/c++/10.1.0/bits\stl_vector.h ****       typedef typename __gnu_cxx::__alloc_traits<_Tp_alloc_type>::pointer
  89:D:/msys64/mingw64/include/c++/10.1.0/bits\stl_vector.h ****        	pointer;
  90:D:/msys64/mingw64/include/c++/10.1.0/bits\stl_vector.h **** 
  91:D:/msys64/mingw64/include/c++/10.1.0/bits\stl_vector.h ****       struct _Vector_impl_data
  92:D:/msys64/mingw64/include/c++/10.1.0/bits\stl_vector.h ****       {
  93:D:/msys64/mingw64/include/c++/10.1.0/bits\stl_vector.h **** 	pointer _M_start;
  94:D:/msys64/mingw64/include/c++/10.1.0/bits\stl_vector.h **** 	pointer _M_finish;
  95:D:/msys64/mingw64/include/c++/10.1.0/bits\stl_vector.h **** 	pointer _M_end_of_storage;
  96:D:/msys64/mingw64/include/c++/10.1.0/bits\stl_vector.h **** 
  97:D:/msys64/mingw64/include/c++/10.1.0/bits\stl_vector.h **** 	_Vector_impl_data() _GLIBCXX_NOEXCEPT
  98:D:/msys64/mingw64/include/c++/10.1.0/bits\stl_vector.h **** 	: _M_start(), _M_finish(), _M_end_of_storage()
  99:D:/msys64/mingw64/include/c++/10.1.0/bits\stl_vector.h **** 	{ }
 100:D:/msys64/mingw64/include/c++/10.1.0/bits\stl_vector.h **** 
 101:D:/msys64/mingw64/include/c++/10.1.0/bits\stl_vector.h **** #if __cplusplus >= 201103L
 102:D:/msys64/mingw64/include/c++/10.1.0/bits\stl_vector.h **** 	_Vector_impl_data(_Vector_impl_data&& __x) noexcept
 103:D:/msys64/mingw64/include/c++/10.1.0/bits\stl_vector.h **** 	: _M_start(__x._M_start), _M_finish(__x._M_finish),
 104:D:/msys64/mingw64/include/c++/10.1.0/bits\stl_vector.h **** 	  _M_end_of_storage(__x._M_end_of_storage)
 105:D:/msys64/mingw64/include/c++/10.1.0/bits\stl_vector.h **** 	{ __x._M_start = __x._M_finish = __x._M_end_of_storage = pointer(); }
 106:D:/msys64/mingw64/include/c++/10.1.0/bits\stl_vector.h **** #endif
 107:D:/msys64/mingw64/include/c++/10.1.0/bits\stl_vector.h **** 
 108:D:/msys64/mingw64/include/c++/10.1.0/bits\stl_vector.h **** 	void
 109:D:/msys64/mingw64/include/c++/10.1.0/bits\stl_vector.h **** 	_M_copy_data(_Vector_impl_data const& __x) _GLIBCXX_NOEXCEPT
 110:D:/msys64/mingw64/include/c++/10.1.0/bits\stl_vector.h **** 	{
 111:D:/msys64/mingw64/include/c++/10.1.0/bits\stl_vector.h **** 	  _M_start = __x._M_start;
 112:D:/msys64/mingw64/include/c++/10.1.0/bits\stl_vector.h **** 	  _M_finish = __x._M_finish;
 113:D:/msys64/mingw64/include/c++/10.1.0/bits\stl_vector.h **** 	  _M_end_of_storage = __x._M_end_of_storage;
 114:D:/msys64/mingw64/include/c++/10.1.0/bits\stl_vector.h **** 	}
 115:D:/msys64/mingw64/include/c++/10.1.0/bits\stl_vector.h **** 
 116:D:/msys64/mingw64/include/c++/10.1.0/bits\stl_vector.h **** 	void
 117:D:/msys64/mingw64/include/c++/10.1.0/bits\stl_vector.h **** 	_M_swap_data(_Vector_impl_data& __x) _GLIBCXX_NOEXCEPT
 118:D:/msys64/mingw64/include/c++/10.1.0/bits\stl_vector.h **** 	{
 119:D:/msys64/mingw64/include/c++/10.1.0/bits\stl_vector.h **** 	  // Do not use std::swap(_M_start, __x._M_start), etc as it loses
 120:D:/msys64/mingw64/include/c++/10.1.0/bits\stl_vector.h **** 	  // information used by TBAA.
 121:D:/msys64/mingw64/include/c++/10.1.0/bits\stl_vector.h **** 	  _Vector_impl_data __tmp;
 122:D:/msys64/mingw64/include/c++/10.1.0/bits\stl_vector.h **** 	  __tmp._M_copy_data(*this);
 123:D:/msys64/mingw64/include/c++/10.1.0/bits\stl_vector.h **** 	  _M_copy_data(__x);
 124:D:/msys64/mingw64/include/c++/10.1.0/bits\stl_vector.h **** 	  __x._M_copy_data(__tmp);
 125:D:/msys64/mingw64/include/c++/10.1.0/bits\stl_vector.h **** 	}
 126:D:/msys64/mingw64/include/c++/10.1.0/bits\stl_vector.h ****       };
 127:D:/msys64/mingw64/include/c++/10.1.0/bits\stl_vector.h **** 
 128:D:/msys64/mingw64/include/c++/10.1.0/bits\stl_vector.h ****       struct _Vector_impl
 129:D:/msys64/mingw64/include/c++/10.1.0/bits\stl_vector.h **** 	: public _Tp_alloc_type, public _Vector_impl_data
 130:D:/msys64/mingw64/include/c++/10.1.0/bits\stl_vector.h ****       {
GAS LISTING C:\Users\Ilya\AppData\Local\Temp\ccxaKDG8.s 			page 10


 131:D:/msys64/mingw64/include/c++/10.1.0/bits\stl_vector.h **** 	_Vector_impl() _GLIBCXX_NOEXCEPT_IF(
 132:D:/msys64/mingw64/include/c++/10.1.0/bits\stl_vector.h **** 	    is_nothrow_default_constructible<_Tp_alloc_type>::value)
 133:D:/msys64/mingw64/include/c++/10.1.0/bits\stl_vector.h **** 	: _Tp_alloc_type()
 134:D:/msys64/mingw64/include/c++/10.1.0/bits\stl_vector.h **** 	{ }
 135:D:/msys64/mingw64/include/c++/10.1.0/bits\stl_vector.h **** 
 136:D:/msys64/mingw64/include/c++/10.1.0/bits\stl_vector.h **** 	_Vector_impl(_Tp_alloc_type const& __a) _GLIBCXX_NOEXCEPT
 137:D:/msys64/mingw64/include/c++/10.1.0/bits\stl_vector.h **** 	: _Tp_alloc_type(__a)
 138:D:/msys64/mingw64/include/c++/10.1.0/bits\stl_vector.h **** 	{ }
 139:D:/msys64/mingw64/include/c++/10.1.0/bits\stl_vector.h **** 
 140:D:/msys64/mingw64/include/c++/10.1.0/bits\stl_vector.h **** #if __cplusplus >= 201103L
 141:D:/msys64/mingw64/include/c++/10.1.0/bits\stl_vector.h **** 	// Not defaulted, to enforce noexcept(true) even when
 142:D:/msys64/mingw64/include/c++/10.1.0/bits\stl_vector.h **** 	// !is_nothrow_move_constructible<_Tp_alloc_type>.
 143:D:/msys64/mingw64/include/c++/10.1.0/bits\stl_vector.h **** 	_Vector_impl(_Vector_impl&& __x) noexcept
 144:D:/msys64/mingw64/include/c++/10.1.0/bits\stl_vector.h **** 	: _Tp_alloc_type(std::move(__x)), _Vector_impl_data(std::move(__x))
 145:D:/msys64/mingw64/include/c++/10.1.0/bits\stl_vector.h **** 	{ }
 146:D:/msys64/mingw64/include/c++/10.1.0/bits\stl_vector.h **** 
 147:D:/msys64/mingw64/include/c++/10.1.0/bits\stl_vector.h **** 	_Vector_impl(_Tp_alloc_type&& __a) noexcept
 148:D:/msys64/mingw64/include/c++/10.1.0/bits\stl_vector.h **** 	: _Tp_alloc_type(std::move(__a))
 149:D:/msys64/mingw64/include/c++/10.1.0/bits\stl_vector.h **** 	{ }
 150:D:/msys64/mingw64/include/c++/10.1.0/bits\stl_vector.h **** 
 151:D:/msys64/mingw64/include/c++/10.1.0/bits\stl_vector.h **** 	_Vector_impl(_Tp_alloc_type&& __a, _Vector_impl&& __rv) noexcept
 152:D:/msys64/mingw64/include/c++/10.1.0/bits\stl_vector.h **** 	: _Tp_alloc_type(std::move(__a)), _Vector_impl_data(std::move(__rv))
 153:D:/msys64/mingw64/include/c++/10.1.0/bits\stl_vector.h **** 	{ }
 154:D:/msys64/mingw64/include/c++/10.1.0/bits\stl_vector.h **** #endif
 155:D:/msys64/mingw64/include/c++/10.1.0/bits\stl_vector.h **** 
 156:D:/msys64/mingw64/include/c++/10.1.0/bits\stl_vector.h **** #if _GLIBCXX_SANITIZE_STD_ALLOCATOR && _GLIBCXX_SANITIZE_VECTOR
 157:D:/msys64/mingw64/include/c++/10.1.0/bits\stl_vector.h **** 	template<typename = _Tp_alloc_type>
 158:D:/msys64/mingw64/include/c++/10.1.0/bits\stl_vector.h **** 	  struct _Asan
 159:D:/msys64/mingw64/include/c++/10.1.0/bits\stl_vector.h **** 	  {
 160:D:/msys64/mingw64/include/c++/10.1.0/bits\stl_vector.h **** 	    typedef typename __gnu_cxx::__alloc_traits<_Tp_alloc_type>
 161:D:/msys64/mingw64/include/c++/10.1.0/bits\stl_vector.h **** 	      ::size_type size_type;
 162:D:/msys64/mingw64/include/c++/10.1.0/bits\stl_vector.h **** 
 163:D:/msys64/mingw64/include/c++/10.1.0/bits\stl_vector.h **** 	    static void _S_shrink(_Vector_impl&, size_type) { }
 164:D:/msys64/mingw64/include/c++/10.1.0/bits\stl_vector.h **** 	    static void _S_on_dealloc(_Vector_impl&) { }
 165:D:/msys64/mingw64/include/c++/10.1.0/bits\stl_vector.h **** 
 166:D:/msys64/mingw64/include/c++/10.1.0/bits\stl_vector.h **** 	    typedef _Vector_impl& _Reinit;
 167:D:/msys64/mingw64/include/c++/10.1.0/bits\stl_vector.h **** 
 168:D:/msys64/mingw64/include/c++/10.1.0/bits\stl_vector.h **** 	    struct _Grow
 169:D:/msys64/mingw64/include/c++/10.1.0/bits\stl_vector.h **** 	    {
 170:D:/msys64/mingw64/include/c++/10.1.0/bits\stl_vector.h **** 	      _Grow(_Vector_impl&, size_type) { }
 171:D:/msys64/mingw64/include/c++/10.1.0/bits\stl_vector.h **** 	      void _M_grew(size_type) { }
 172:D:/msys64/mingw64/include/c++/10.1.0/bits\stl_vector.h **** 	    };
 173:D:/msys64/mingw64/include/c++/10.1.0/bits\stl_vector.h **** 	  };
 174:D:/msys64/mingw64/include/c++/10.1.0/bits\stl_vector.h **** 
 175:D:/msys64/mingw64/include/c++/10.1.0/bits\stl_vector.h **** 	// Enable ASan annotations for memory obtained from std::allocator.
 176:D:/msys64/mingw64/include/c++/10.1.0/bits\stl_vector.h **** 	template<typename _Up>
 177:D:/msys64/mingw64/include/c++/10.1.0/bits\stl_vector.h **** 	  struct _Asan<allocator<_Up> >
 178:D:/msys64/mingw64/include/c++/10.1.0/bits\stl_vector.h **** 	  {
 179:D:/msys64/mingw64/include/c++/10.1.0/bits\stl_vector.h **** 	    typedef typename __gnu_cxx::__alloc_traits<_Tp_alloc_type>
 180:D:/msys64/mingw64/include/c++/10.1.0/bits\stl_vector.h **** 	      ::size_type size_type;
 181:D:/msys64/mingw64/include/c++/10.1.0/bits\stl_vector.h **** 
 182:D:/msys64/mingw64/include/c++/10.1.0/bits\stl_vector.h **** 	    // Adjust ASan annotation for [_M_start, _M_end_of_storage) to
 183:D:/msys64/mingw64/include/c++/10.1.0/bits\stl_vector.h **** 	    // mark end of valid region as __curr instead of __prev.
 184:D:/msys64/mingw64/include/c++/10.1.0/bits\stl_vector.h **** 	    static void
 185:D:/msys64/mingw64/include/c++/10.1.0/bits\stl_vector.h **** 	    _S_adjust(_Vector_impl& __impl, pointer __prev, pointer __curr)
 186:D:/msys64/mingw64/include/c++/10.1.0/bits\stl_vector.h **** 	    {
 187:D:/msys64/mingw64/include/c++/10.1.0/bits\stl_vector.h **** 	      __sanitizer_annotate_contiguous_container(__impl._M_start,
GAS LISTING C:\Users\Ilya\AppData\Local\Temp\ccxaKDG8.s 			page 11


 188:D:/msys64/mingw64/include/c++/10.1.0/bits\stl_vector.h **** 		  __impl._M_end_of_storage, __prev, __curr);
 189:D:/msys64/mingw64/include/c++/10.1.0/bits\stl_vector.h **** 	    }
 190:D:/msys64/mingw64/include/c++/10.1.0/bits\stl_vector.h **** 
 191:D:/msys64/mingw64/include/c++/10.1.0/bits\stl_vector.h **** 	    static void
 192:D:/msys64/mingw64/include/c++/10.1.0/bits\stl_vector.h **** 	    _S_grow(_Vector_impl& __impl, size_type __n)
 193:D:/msys64/mingw64/include/c++/10.1.0/bits\stl_vector.h **** 	    { _S_adjust(__impl, __impl._M_finish, __impl._M_finish + __n); }
 194:D:/msys64/mingw64/include/c++/10.1.0/bits\stl_vector.h **** 
 195:D:/msys64/mingw64/include/c++/10.1.0/bits\stl_vector.h **** 	    static void
 196:D:/msys64/mingw64/include/c++/10.1.0/bits\stl_vector.h **** 	    _S_shrink(_Vector_impl& __impl, size_type __n)
 197:D:/msys64/mingw64/include/c++/10.1.0/bits\stl_vector.h **** 	    { _S_adjust(__impl, __impl._M_finish + __n, __impl._M_finish); }
 198:D:/msys64/mingw64/include/c++/10.1.0/bits\stl_vector.h **** 
 199:D:/msys64/mingw64/include/c++/10.1.0/bits\stl_vector.h **** 	    static void
 200:D:/msys64/mingw64/include/c++/10.1.0/bits\stl_vector.h **** 	    _S_on_dealloc(_Vector_impl& __impl)
 201:D:/msys64/mingw64/include/c++/10.1.0/bits\stl_vector.h **** 	    {
 202:D:/msys64/mingw64/include/c++/10.1.0/bits\stl_vector.h **** 	      if (__impl._M_start)
 203:D:/msys64/mingw64/include/c++/10.1.0/bits\stl_vector.h **** 		_S_adjust(__impl, __impl._M_finish, __impl._M_end_of_storage);
 204:D:/msys64/mingw64/include/c++/10.1.0/bits\stl_vector.h **** 	    }
 205:D:/msys64/mingw64/include/c++/10.1.0/bits\stl_vector.h **** 
 206:D:/msys64/mingw64/include/c++/10.1.0/bits\stl_vector.h **** 	    // Used on reallocation to tell ASan unused capacity is invalid.
 207:D:/msys64/mingw64/include/c++/10.1.0/bits\stl_vector.h **** 	    struct _Reinit
 208:D:/msys64/mingw64/include/c++/10.1.0/bits\stl_vector.h **** 	    {
 209:D:/msys64/mingw64/include/c++/10.1.0/bits\stl_vector.h **** 	      explicit _Reinit(_Vector_impl& __impl) : _M_impl(__impl)
 210:D:/msys64/mingw64/include/c++/10.1.0/bits\stl_vector.h **** 	      {
 211:D:/msys64/mingw64/include/c++/10.1.0/bits\stl_vector.h **** 		// Mark unused capacity as valid again before deallocating it.
 212:D:/msys64/mingw64/include/c++/10.1.0/bits\stl_vector.h **** 		_S_on_dealloc(_M_impl);
 213:D:/msys64/mingw64/include/c++/10.1.0/bits\stl_vector.h **** 	      }
 214:D:/msys64/mingw64/include/c++/10.1.0/bits\stl_vector.h **** 
 215:D:/msys64/mingw64/include/c++/10.1.0/bits\stl_vector.h **** 	      ~_Reinit()
 216:D:/msys64/mingw64/include/c++/10.1.0/bits\stl_vector.h **** 	      {
 217:D:/msys64/mingw64/include/c++/10.1.0/bits\stl_vector.h **** 		// Mark unused capacity as invalid after reallocation.
 218:D:/msys64/mingw64/include/c++/10.1.0/bits\stl_vector.h **** 		if (_M_impl._M_start)
 219:D:/msys64/mingw64/include/c++/10.1.0/bits\stl_vector.h **** 		  _S_adjust(_M_impl, _M_impl._M_end_of_storage,
 220:D:/msys64/mingw64/include/c++/10.1.0/bits\stl_vector.h **** 			    _M_impl._M_finish);
 221:D:/msys64/mingw64/include/c++/10.1.0/bits\stl_vector.h **** 	      }
 222:D:/msys64/mingw64/include/c++/10.1.0/bits\stl_vector.h **** 
 223:D:/msys64/mingw64/include/c++/10.1.0/bits\stl_vector.h **** 	      _Vector_impl& _M_impl;
 224:D:/msys64/mingw64/include/c++/10.1.0/bits\stl_vector.h **** 
 225:D:/msys64/mingw64/include/c++/10.1.0/bits\stl_vector.h **** #if __cplusplus >= 201103L
 226:D:/msys64/mingw64/include/c++/10.1.0/bits\stl_vector.h **** 	      _Reinit(const _Reinit&) = delete;
 227:D:/msys64/mingw64/include/c++/10.1.0/bits\stl_vector.h **** 	      _Reinit& operator=(const _Reinit&) = delete;
 228:D:/msys64/mingw64/include/c++/10.1.0/bits\stl_vector.h **** #endif
 229:D:/msys64/mingw64/include/c++/10.1.0/bits\stl_vector.h **** 	    };
 230:D:/msys64/mingw64/include/c++/10.1.0/bits\stl_vector.h **** 
 231:D:/msys64/mingw64/include/c++/10.1.0/bits\stl_vector.h **** 	    // Tell ASan when unused capacity is initialized to be valid.
 232:D:/msys64/mingw64/include/c++/10.1.0/bits\stl_vector.h **** 	    struct _Grow
 233:D:/msys64/mingw64/include/c++/10.1.0/bits\stl_vector.h **** 	    {
 234:D:/msys64/mingw64/include/c++/10.1.0/bits\stl_vector.h **** 	      _Grow(_Vector_impl& __impl, size_type __n)
 235:D:/msys64/mingw64/include/c++/10.1.0/bits\stl_vector.h **** 	      : _M_impl(__impl), _M_n(__n)
 236:D:/msys64/mingw64/include/c++/10.1.0/bits\stl_vector.h **** 	      { _S_grow(_M_impl, __n); }
 237:D:/msys64/mingw64/include/c++/10.1.0/bits\stl_vector.h **** 
 238:D:/msys64/mingw64/include/c++/10.1.0/bits\stl_vector.h **** 	      ~_Grow() { if (_M_n) _S_shrink(_M_impl, _M_n); }
 239:D:/msys64/mingw64/include/c++/10.1.0/bits\stl_vector.h **** 
 240:D:/msys64/mingw64/include/c++/10.1.0/bits\stl_vector.h **** 	      void _M_grew(size_type __n) { _M_n -= __n; }
 241:D:/msys64/mingw64/include/c++/10.1.0/bits\stl_vector.h **** 
 242:D:/msys64/mingw64/include/c++/10.1.0/bits\stl_vector.h **** #if __cplusplus >= 201103L
 243:D:/msys64/mingw64/include/c++/10.1.0/bits\stl_vector.h **** 	      _Grow(const _Grow&) = delete;
 244:D:/msys64/mingw64/include/c++/10.1.0/bits\stl_vector.h **** 	      _Grow& operator=(const _Grow&) = delete;
GAS LISTING C:\Users\Ilya\AppData\Local\Temp\ccxaKDG8.s 			page 12


 245:D:/msys64/mingw64/include/c++/10.1.0/bits\stl_vector.h **** #endif
 246:D:/msys64/mingw64/include/c++/10.1.0/bits\stl_vector.h **** 	    private:
 247:D:/msys64/mingw64/include/c++/10.1.0/bits\stl_vector.h **** 	      _Vector_impl& _M_impl;
 248:D:/msys64/mingw64/include/c++/10.1.0/bits\stl_vector.h **** 	      size_type _M_n;
 249:D:/msys64/mingw64/include/c++/10.1.0/bits\stl_vector.h **** 	    };
 250:D:/msys64/mingw64/include/c++/10.1.0/bits\stl_vector.h **** 	  };
 251:D:/msys64/mingw64/include/c++/10.1.0/bits\stl_vector.h **** 
 252:D:/msys64/mingw64/include/c++/10.1.0/bits\stl_vector.h **** #define _GLIBCXX_ASAN_ANNOTATE_REINIT \
 253:D:/msys64/mingw64/include/c++/10.1.0/bits\stl_vector.h ****   typename _Base::_Vector_impl::template _Asan<>::_Reinit const \
 254:D:/msys64/mingw64/include/c++/10.1.0/bits\stl_vector.h **** 	__attribute__((__unused__)) __reinit_guard(this->_M_impl)
 255:D:/msys64/mingw64/include/c++/10.1.0/bits\stl_vector.h **** #define _GLIBCXX_ASAN_ANNOTATE_GROW(n) \
 256:D:/msys64/mingw64/include/c++/10.1.0/bits\stl_vector.h ****   typename _Base::_Vector_impl::template _Asan<>::_Grow \
 257:D:/msys64/mingw64/include/c++/10.1.0/bits\stl_vector.h **** 	__attribute__((__unused__)) __grow_guard(this->_M_impl, (n))
 258:D:/msys64/mingw64/include/c++/10.1.0/bits\stl_vector.h **** #define _GLIBCXX_ASAN_ANNOTATE_GREW(n) __grow_guard._M_grew(n)
 259:D:/msys64/mingw64/include/c++/10.1.0/bits\stl_vector.h **** #define _GLIBCXX_ASAN_ANNOTATE_SHRINK(n) \
 260:D:/msys64/mingw64/include/c++/10.1.0/bits\stl_vector.h ****   _Base::_Vector_impl::template _Asan<>::_S_shrink(this->_M_impl, n)
 261:D:/msys64/mingw64/include/c++/10.1.0/bits\stl_vector.h **** #define _GLIBCXX_ASAN_ANNOTATE_BEFORE_DEALLOC \
 262:D:/msys64/mingw64/include/c++/10.1.0/bits\stl_vector.h ****   _Base::_Vector_impl::template _Asan<>::_S_on_dealloc(this->_M_impl)
 263:D:/msys64/mingw64/include/c++/10.1.0/bits\stl_vector.h **** #else // ! (_GLIBCXX_SANITIZE_STD_ALLOCATOR && _GLIBCXX_SANITIZE_VECTOR)
 264:D:/msys64/mingw64/include/c++/10.1.0/bits\stl_vector.h **** #define _GLIBCXX_ASAN_ANNOTATE_REINIT
 265:D:/msys64/mingw64/include/c++/10.1.0/bits\stl_vector.h **** #define _GLIBCXX_ASAN_ANNOTATE_GROW(n)
 266:D:/msys64/mingw64/include/c++/10.1.0/bits\stl_vector.h **** #define _GLIBCXX_ASAN_ANNOTATE_GREW(n)
 267:D:/msys64/mingw64/include/c++/10.1.0/bits\stl_vector.h **** #define _GLIBCXX_ASAN_ANNOTATE_SHRINK(n)
 268:D:/msys64/mingw64/include/c++/10.1.0/bits\stl_vector.h **** #define _GLIBCXX_ASAN_ANNOTATE_BEFORE_DEALLOC
 269:D:/msys64/mingw64/include/c++/10.1.0/bits\stl_vector.h **** #endif // _GLIBCXX_SANITIZE_STD_ALLOCATOR && _GLIBCXX_SANITIZE_VECTOR
 270:D:/msys64/mingw64/include/c++/10.1.0/bits\stl_vector.h ****       };
 271:D:/msys64/mingw64/include/c++/10.1.0/bits\stl_vector.h **** 
 272:D:/msys64/mingw64/include/c++/10.1.0/bits\stl_vector.h ****     public:
 273:D:/msys64/mingw64/include/c++/10.1.0/bits\stl_vector.h ****       typedef _Alloc allocator_type;
 274:D:/msys64/mingw64/include/c++/10.1.0/bits\stl_vector.h **** 
 275:D:/msys64/mingw64/include/c++/10.1.0/bits\stl_vector.h ****       _Tp_alloc_type&
 276:D:/msys64/mingw64/include/c++/10.1.0/bits\stl_vector.h ****       _M_get_Tp_allocator() _GLIBCXX_NOEXCEPT
 277:D:/msys64/mingw64/include/c++/10.1.0/bits\stl_vector.h ****       { return this->_M_impl; }
 278:D:/msys64/mingw64/include/c++/10.1.0/bits\stl_vector.h **** 
 279:D:/msys64/mingw64/include/c++/10.1.0/bits\stl_vector.h ****       const _Tp_alloc_type&
 280:D:/msys64/mingw64/include/c++/10.1.0/bits\stl_vector.h ****       _M_get_Tp_allocator() const _GLIBCXX_NOEXCEPT
 281:D:/msys64/mingw64/include/c++/10.1.0/bits\stl_vector.h ****       { return this->_M_impl; }
 282:D:/msys64/mingw64/include/c++/10.1.0/bits\stl_vector.h **** 
 283:D:/msys64/mingw64/include/c++/10.1.0/bits\stl_vector.h ****       allocator_type
 284:D:/msys64/mingw64/include/c++/10.1.0/bits\stl_vector.h ****       get_allocator() const _GLIBCXX_NOEXCEPT
 285:D:/msys64/mingw64/include/c++/10.1.0/bits\stl_vector.h ****       { return allocator_type(_M_get_Tp_allocator()); }
 286:D:/msys64/mingw64/include/c++/10.1.0/bits\stl_vector.h **** 
 287:D:/msys64/mingw64/include/c++/10.1.0/bits\stl_vector.h **** #if __cplusplus >= 201103L
 288:D:/msys64/mingw64/include/c++/10.1.0/bits\stl_vector.h ****       _Vector_base() = default;
 289:D:/msys64/mingw64/include/c++/10.1.0/bits\stl_vector.h **** #else
 290:D:/msys64/mingw64/include/c++/10.1.0/bits\stl_vector.h ****       _Vector_base() { }
 291:D:/msys64/mingw64/include/c++/10.1.0/bits\stl_vector.h **** #endif
 292:D:/msys64/mingw64/include/c++/10.1.0/bits\stl_vector.h **** 
 293:D:/msys64/mingw64/include/c++/10.1.0/bits\stl_vector.h ****       _Vector_base(const allocator_type& __a) _GLIBCXX_NOEXCEPT
 294:D:/msys64/mingw64/include/c++/10.1.0/bits\stl_vector.h ****       : _M_impl(__a) { }
 295:D:/msys64/mingw64/include/c++/10.1.0/bits\stl_vector.h **** 
 296:D:/msys64/mingw64/include/c++/10.1.0/bits\stl_vector.h ****       // Kept for ABI compatibility.
 297:D:/msys64/mingw64/include/c++/10.1.0/bits\stl_vector.h **** #if !_GLIBCXX_INLINE_VERSION
 298:D:/msys64/mingw64/include/c++/10.1.0/bits\stl_vector.h ****       _Vector_base(size_t __n)
 299:D:/msys64/mingw64/include/c++/10.1.0/bits\stl_vector.h ****       : _M_impl()
 300:D:/msys64/mingw64/include/c++/10.1.0/bits\stl_vector.h ****       { _M_create_storage(__n); }
 301:D:/msys64/mingw64/include/c++/10.1.0/bits\stl_vector.h **** #endif
GAS LISTING C:\Users\Ilya\AppData\Local\Temp\ccxaKDG8.s 			page 13


 302:D:/msys64/mingw64/include/c++/10.1.0/bits\stl_vector.h **** 
 303:D:/msys64/mingw64/include/c++/10.1.0/bits\stl_vector.h ****       _Vector_base(size_t __n, const allocator_type& __a)
 304:D:/msys64/mingw64/include/c++/10.1.0/bits\stl_vector.h ****       : _M_impl(__a)
 305:D:/msys64/mingw64/include/c++/10.1.0/bits\stl_vector.h ****       { _M_create_storage(__n); }
 306:D:/msys64/mingw64/include/c++/10.1.0/bits\stl_vector.h **** 
 307:D:/msys64/mingw64/include/c++/10.1.0/bits\stl_vector.h **** #if __cplusplus >= 201103L
 308:D:/msys64/mingw64/include/c++/10.1.0/bits\stl_vector.h ****       _Vector_base(_Vector_base&&) = default;
 309:D:/msys64/mingw64/include/c++/10.1.0/bits\stl_vector.h **** 
 310:D:/msys64/mingw64/include/c++/10.1.0/bits\stl_vector.h ****       // Kept for ABI compatibility.
 311:D:/msys64/mingw64/include/c++/10.1.0/bits\stl_vector.h **** # if !_GLIBCXX_INLINE_VERSION
 312:D:/msys64/mingw64/include/c++/10.1.0/bits\stl_vector.h ****       _Vector_base(_Tp_alloc_type&& __a) noexcept
 313:D:/msys64/mingw64/include/c++/10.1.0/bits\stl_vector.h ****       : _M_impl(std::move(__a)) { }
 314:D:/msys64/mingw64/include/c++/10.1.0/bits\stl_vector.h **** 
 315:D:/msys64/mingw64/include/c++/10.1.0/bits\stl_vector.h ****       _Vector_base(_Vector_base&& __x, const allocator_type& __a)
 316:D:/msys64/mingw64/include/c++/10.1.0/bits\stl_vector.h ****       : _M_impl(__a)
 317:D:/msys64/mingw64/include/c++/10.1.0/bits\stl_vector.h ****       {
 318:D:/msys64/mingw64/include/c++/10.1.0/bits\stl_vector.h **** 	if (__x.get_allocator() == __a)
 319:D:/msys64/mingw64/include/c++/10.1.0/bits\stl_vector.h **** 	  this->_M_impl._M_swap_data(__x._M_impl);
 320:D:/msys64/mingw64/include/c++/10.1.0/bits\stl_vector.h **** 	else
 321:D:/msys64/mingw64/include/c++/10.1.0/bits\stl_vector.h **** 	  {
 322:D:/msys64/mingw64/include/c++/10.1.0/bits\stl_vector.h **** 	    size_t __n = __x._M_impl._M_finish - __x._M_impl._M_start;
 323:D:/msys64/mingw64/include/c++/10.1.0/bits\stl_vector.h **** 	    _M_create_storage(__n);
 324:D:/msys64/mingw64/include/c++/10.1.0/bits\stl_vector.h **** 	  }
 325:D:/msys64/mingw64/include/c++/10.1.0/bits\stl_vector.h ****       }
 326:D:/msys64/mingw64/include/c++/10.1.0/bits\stl_vector.h **** # endif
 327:D:/msys64/mingw64/include/c++/10.1.0/bits\stl_vector.h **** 
 328:D:/msys64/mingw64/include/c++/10.1.0/bits\stl_vector.h ****       _Vector_base(const allocator_type& __a, _Vector_base&& __x)
 329:D:/msys64/mingw64/include/c++/10.1.0/bits\stl_vector.h ****       : _M_impl(_Tp_alloc_type(__a), std::move(__x._M_impl))
 330:D:/msys64/mingw64/include/c++/10.1.0/bits\stl_vector.h ****       { }
 331:D:/msys64/mingw64/include/c++/10.1.0/bits\stl_vector.h **** #endif
 332:D:/msys64/mingw64/include/c++/10.1.0/bits\stl_vector.h **** 
 333:D:/msys64/mingw64/include/c++/10.1.0/bits\stl_vector.h ****       ~_Vector_base() _GLIBCXX_NOEXCEPT
 334:D:/msys64/mingw64/include/c++/10.1.0/bits\stl_vector.h ****       {
 335:D:/msys64/mingw64/include/c++/10.1.0/bits\stl_vector.h **** 	_M_deallocate(_M_impl._M_start,
 336:D:/msys64/mingw64/include/c++/10.1.0/bits\stl_vector.h **** 		      _M_impl._M_end_of_storage - _M_impl._M_start);
 337:D:/msys64/mingw64/include/c++/10.1.0/bits\stl_vector.h ****       }
 338:D:/msys64/mingw64/include/c++/10.1.0/bits\stl_vector.h **** 
 339:D:/msys64/mingw64/include/c++/10.1.0/bits\stl_vector.h ****     public:
 340:D:/msys64/mingw64/include/c++/10.1.0/bits\stl_vector.h ****       _Vector_impl _M_impl;
 341:D:/msys64/mingw64/include/c++/10.1.0/bits\stl_vector.h **** 
 342:D:/msys64/mingw64/include/c++/10.1.0/bits\stl_vector.h ****       pointer
 343:D:/msys64/mingw64/include/c++/10.1.0/bits\stl_vector.h ****       _M_allocate(size_t __n)
 344:D:/msys64/mingw64/include/c++/10.1.0/bits\stl_vector.h ****       {
 345:D:/msys64/mingw64/include/c++/10.1.0/bits\stl_vector.h **** 	typedef __gnu_cxx::__alloc_traits<_Tp_alloc_type> _Tr;
 346:D:/msys64/mingw64/include/c++/10.1.0/bits\stl_vector.h **** 	return __n != 0 ? _Tr::allocate(_M_impl, __n) : pointer();
 347:D:/msys64/mingw64/include/c++/10.1.0/bits\stl_vector.h ****       }
 348:D:/msys64/mingw64/include/c++/10.1.0/bits\stl_vector.h **** 
 349:D:/msys64/mingw64/include/c++/10.1.0/bits\stl_vector.h ****       void
 350:D:/msys64/mingw64/include/c++/10.1.0/bits\stl_vector.h ****       _M_deallocate(pointer __p, size_t __n)
 351:D:/msys64/mingw64/include/c++/10.1.0/bits\stl_vector.h ****       {
 352:D:/msys64/mingw64/include/c++/10.1.0/bits\stl_vector.h **** 	typedef __gnu_cxx::__alloc_traits<_Tp_alloc_type> _Tr;
 353:D:/msys64/mingw64/include/c++/10.1.0/bits\stl_vector.h **** 	if (__p)
 354:D:/msys64/mingw64/include/c++/10.1.0/bits\stl_vector.h **** 	  _Tr::deallocate(_M_impl, __p, __n);
 355:D:/msys64/mingw64/include/c++/10.1.0/bits\stl_vector.h ****       }
 356:D:/msys64/mingw64/include/c++/10.1.0/bits\stl_vector.h **** 
 357:D:/msys64/mingw64/include/c++/10.1.0/bits\stl_vector.h ****     protected:
 358:D:/msys64/mingw64/include/c++/10.1.0/bits\stl_vector.h ****       void
GAS LISTING C:\Users\Ilya\AppData\Local\Temp\ccxaKDG8.s 			page 14


 359:D:/msys64/mingw64/include/c++/10.1.0/bits\stl_vector.h ****       _M_create_storage(size_t __n)
 360:D:/msys64/mingw64/include/c++/10.1.0/bits\stl_vector.h ****       {
 361:D:/msys64/mingw64/include/c++/10.1.0/bits\stl_vector.h **** 	this->_M_impl._M_start = this->_M_allocate(__n);
 362:D:/msys64/mingw64/include/c++/10.1.0/bits\stl_vector.h **** 	this->_M_impl._M_finish = this->_M_impl._M_start;
 363:D:/msys64/mingw64/include/c++/10.1.0/bits\stl_vector.h **** 	this->_M_impl._M_end_of_storage = this->_M_impl._M_start + __n;
 364:D:/msys64/mingw64/include/c++/10.1.0/bits\stl_vector.h ****       }
 365:D:/msys64/mingw64/include/c++/10.1.0/bits\stl_vector.h ****     };
 366:D:/msys64/mingw64/include/c++/10.1.0/bits\stl_vector.h **** 
 367:D:/msys64/mingw64/include/c++/10.1.0/bits\stl_vector.h ****   /**
 368:D:/msys64/mingw64/include/c++/10.1.0/bits\stl_vector.h ****    *  @brief A standard container which offers fixed time access to
 369:D:/msys64/mingw64/include/c++/10.1.0/bits\stl_vector.h ****    *  individual elements in any order.
 370:D:/msys64/mingw64/include/c++/10.1.0/bits\stl_vector.h ****    *
 371:D:/msys64/mingw64/include/c++/10.1.0/bits\stl_vector.h ****    *  @ingroup sequences
 372:D:/msys64/mingw64/include/c++/10.1.0/bits\stl_vector.h ****    *
 373:D:/msys64/mingw64/include/c++/10.1.0/bits\stl_vector.h ****    *  @tparam _Tp  Type of element.
 374:D:/msys64/mingw64/include/c++/10.1.0/bits\stl_vector.h ****    *  @tparam _Alloc  Allocator type, defaults to allocator<_Tp>.
 375:D:/msys64/mingw64/include/c++/10.1.0/bits\stl_vector.h ****    *
 376:D:/msys64/mingw64/include/c++/10.1.0/bits\stl_vector.h ****    *  Meets the requirements of a <a href="tables.html#65">container</a>, a
 377:D:/msys64/mingw64/include/c++/10.1.0/bits\stl_vector.h ****    *  <a href="tables.html#66">reversible container</a>, and a
 378:D:/msys64/mingw64/include/c++/10.1.0/bits\stl_vector.h ****    *  <a href="tables.html#67">sequence</a>, including the
 379:D:/msys64/mingw64/include/c++/10.1.0/bits\stl_vector.h ****    *  <a href="tables.html#68">optional sequence requirements</a> with the
 380:D:/msys64/mingw64/include/c++/10.1.0/bits\stl_vector.h ****    *  %exception of @c push_front and @c pop_front.
 381:D:/msys64/mingw64/include/c++/10.1.0/bits\stl_vector.h ****    *
 382:D:/msys64/mingw64/include/c++/10.1.0/bits\stl_vector.h ****    *  In some terminology a %vector can be described as a dynamic
 383:D:/msys64/mingw64/include/c++/10.1.0/bits\stl_vector.h ****    *  C-style array, it offers fast and efficient access to individual
 384:D:/msys64/mingw64/include/c++/10.1.0/bits\stl_vector.h ****    *  elements in any order and saves the user from worrying about
 385:D:/msys64/mingw64/include/c++/10.1.0/bits\stl_vector.h ****    *  memory and size allocation.  Subscripting ( @c [] ) access is
 386:D:/msys64/mingw64/include/c++/10.1.0/bits\stl_vector.h ****    *  also provided as with C-style arrays.
 387:D:/msys64/mingw64/include/c++/10.1.0/bits\stl_vector.h ****   */
 388:D:/msys64/mingw64/include/c++/10.1.0/bits\stl_vector.h ****   template<typename _Tp, typename _Alloc = std::allocator<_Tp> >
 389:D:/msys64/mingw64/include/c++/10.1.0/bits\stl_vector.h ****     class vector : protected _Vector_base<_Tp, _Alloc>
 390:D:/msys64/mingw64/include/c++/10.1.0/bits\stl_vector.h ****     {
 391:D:/msys64/mingw64/include/c++/10.1.0/bits\stl_vector.h **** #ifdef _GLIBCXX_CONCEPT_CHECKS
 392:D:/msys64/mingw64/include/c++/10.1.0/bits\stl_vector.h ****       // Concept requirements.
 393:D:/msys64/mingw64/include/c++/10.1.0/bits\stl_vector.h ****       typedef typename _Alloc::value_type		_Alloc_value_type;
 394:D:/msys64/mingw64/include/c++/10.1.0/bits\stl_vector.h **** # if __cplusplus < 201103L
 395:D:/msys64/mingw64/include/c++/10.1.0/bits\stl_vector.h ****       __glibcxx_class_requires(_Tp, _SGIAssignableConcept)
 396:D:/msys64/mingw64/include/c++/10.1.0/bits\stl_vector.h **** # endif
 397:D:/msys64/mingw64/include/c++/10.1.0/bits\stl_vector.h ****       __glibcxx_class_requires2(_Tp, _Alloc_value_type, _SameTypeConcept)
 398:D:/msys64/mingw64/include/c++/10.1.0/bits\stl_vector.h **** #endif
 399:D:/msys64/mingw64/include/c++/10.1.0/bits\stl_vector.h **** 
 400:D:/msys64/mingw64/include/c++/10.1.0/bits\stl_vector.h **** #if __cplusplus >= 201103L
 401:D:/msys64/mingw64/include/c++/10.1.0/bits\stl_vector.h ****       static_assert(is_same<typename remove_cv<_Tp>::type, _Tp>::value,
 402:D:/msys64/mingw64/include/c++/10.1.0/bits\stl_vector.h **** 	  "std::vector must have a non-const, non-volatile value_type");
 403:D:/msys64/mingw64/include/c++/10.1.0/bits\stl_vector.h **** # if __cplusplus > 201703L || defined __STRICT_ANSI__
 404:D:/msys64/mingw64/include/c++/10.1.0/bits\stl_vector.h ****       static_assert(is_same<typename _Alloc::value_type, _Tp>::value,
 405:D:/msys64/mingw64/include/c++/10.1.0/bits\stl_vector.h **** 	  "std::vector must have the same value_type as its allocator");
 406:D:/msys64/mingw64/include/c++/10.1.0/bits\stl_vector.h **** # endif
 407:D:/msys64/mingw64/include/c++/10.1.0/bits\stl_vector.h **** #endif
 408:D:/msys64/mingw64/include/c++/10.1.0/bits\stl_vector.h **** 
 409:D:/msys64/mingw64/include/c++/10.1.0/bits\stl_vector.h ****       typedef _Vector_base<_Tp, _Alloc>			_Base;
 410:D:/msys64/mingw64/include/c++/10.1.0/bits\stl_vector.h ****       typedef typename _Base::_Tp_alloc_type		_Tp_alloc_type;
 411:D:/msys64/mingw64/include/c++/10.1.0/bits\stl_vector.h ****       typedef __gnu_cxx::__alloc_traits<_Tp_alloc_type>	_Alloc_traits;
 412:D:/msys64/mingw64/include/c++/10.1.0/bits\stl_vector.h **** 
 413:D:/msys64/mingw64/include/c++/10.1.0/bits\stl_vector.h ****     public:
 414:D:/msys64/mingw64/include/c++/10.1.0/bits\stl_vector.h ****       typedef _Tp					value_type;
 415:D:/msys64/mingw64/include/c++/10.1.0/bits\stl_vector.h ****       typedef typename _Base::pointer			pointer;
GAS LISTING C:\Users\Ilya\AppData\Local\Temp\ccxaKDG8.s 			page 15


 416:D:/msys64/mingw64/include/c++/10.1.0/bits\stl_vector.h ****       typedef typename _Alloc_traits::const_pointer	const_pointer;
 417:D:/msys64/mingw64/include/c++/10.1.0/bits\stl_vector.h ****       typedef typename _Alloc_traits::reference		reference;
 418:D:/msys64/mingw64/include/c++/10.1.0/bits\stl_vector.h ****       typedef typename _Alloc_traits::const_reference	const_reference;
 419:D:/msys64/mingw64/include/c++/10.1.0/bits\stl_vector.h ****       typedef __gnu_cxx::__normal_iterator<pointer, vector> iterator;
 420:D:/msys64/mingw64/include/c++/10.1.0/bits\stl_vector.h ****       typedef __gnu_cxx::__normal_iterator<const_pointer, vector>
 421:D:/msys64/mingw64/include/c++/10.1.0/bits\stl_vector.h ****       const_iterator;
 422:D:/msys64/mingw64/include/c++/10.1.0/bits\stl_vector.h ****       typedef std::reverse_iterator<const_iterator>	const_reverse_iterator;
 423:D:/msys64/mingw64/include/c++/10.1.0/bits\stl_vector.h ****       typedef std::reverse_iterator<iterator>		reverse_iterator;
 424:D:/msys64/mingw64/include/c++/10.1.0/bits\stl_vector.h ****       typedef size_t					size_type;
 425:D:/msys64/mingw64/include/c++/10.1.0/bits\stl_vector.h ****       typedef ptrdiff_t					difference_type;
 426:D:/msys64/mingw64/include/c++/10.1.0/bits\stl_vector.h ****       typedef _Alloc					allocator_type;
 427:D:/msys64/mingw64/include/c++/10.1.0/bits\stl_vector.h **** 
 428:D:/msys64/mingw64/include/c++/10.1.0/bits\stl_vector.h ****     private:
 429:D:/msys64/mingw64/include/c++/10.1.0/bits\stl_vector.h **** #if __cplusplus >= 201103L
 430:D:/msys64/mingw64/include/c++/10.1.0/bits\stl_vector.h ****       static constexpr bool
 431:D:/msys64/mingw64/include/c++/10.1.0/bits\stl_vector.h ****       _S_nothrow_relocate(true_type)
 432:D:/msys64/mingw64/include/c++/10.1.0/bits\stl_vector.h ****       {
 433:D:/msys64/mingw64/include/c++/10.1.0/bits\stl_vector.h **** 	return noexcept(std::__relocate_a(std::declval<pointer>(),
 434:D:/msys64/mingw64/include/c++/10.1.0/bits\stl_vector.h **** 					  std::declval<pointer>(),
 435:D:/msys64/mingw64/include/c++/10.1.0/bits\stl_vector.h **** 					  std::declval<pointer>(),
 436:D:/msys64/mingw64/include/c++/10.1.0/bits\stl_vector.h **** 					  std::declval<_Tp_alloc_type&>()));
 437:D:/msys64/mingw64/include/c++/10.1.0/bits\stl_vector.h ****       }
 438:D:/msys64/mingw64/include/c++/10.1.0/bits\stl_vector.h **** 
 439:D:/msys64/mingw64/include/c++/10.1.0/bits\stl_vector.h ****       static constexpr bool
 440:D:/msys64/mingw64/include/c++/10.1.0/bits\stl_vector.h ****       _S_nothrow_relocate(false_type)
 441:D:/msys64/mingw64/include/c++/10.1.0/bits\stl_vector.h ****       { return false; }
 442:D:/msys64/mingw64/include/c++/10.1.0/bits\stl_vector.h **** 
 443:D:/msys64/mingw64/include/c++/10.1.0/bits\stl_vector.h ****       static constexpr bool
 444:D:/msys64/mingw64/include/c++/10.1.0/bits\stl_vector.h ****       _S_use_relocate()
 445:D:/msys64/mingw64/include/c++/10.1.0/bits\stl_vector.h ****       {
 446:D:/msys64/mingw64/include/c++/10.1.0/bits\stl_vector.h **** 	// Instantiating std::__relocate_a might cause an error outside the
 447:D:/msys64/mingw64/include/c++/10.1.0/bits\stl_vector.h **** 	// immediate context (in __relocate_object_a's noexcept-specifier),
 448:D:/msys64/mingw64/include/c++/10.1.0/bits\stl_vector.h **** 	// so only do it if we know the type can be move-inserted into *this.
 449:D:/msys64/mingw64/include/c++/10.1.0/bits\stl_vector.h **** 	return _S_nothrow_relocate(__is_move_insertable<_Tp_alloc_type>{});
 450:D:/msys64/mingw64/include/c++/10.1.0/bits\stl_vector.h ****       }
 451:D:/msys64/mingw64/include/c++/10.1.0/bits\stl_vector.h **** 
 452:D:/msys64/mingw64/include/c++/10.1.0/bits\stl_vector.h ****       static pointer
 453:D:/msys64/mingw64/include/c++/10.1.0/bits\stl_vector.h ****       _S_do_relocate(pointer __first, pointer __last, pointer __result,
 454:D:/msys64/mingw64/include/c++/10.1.0/bits\stl_vector.h **** 		     _Tp_alloc_type& __alloc, true_type) noexcept
 455:D:/msys64/mingw64/include/c++/10.1.0/bits\stl_vector.h ****       {
 456:D:/msys64/mingw64/include/c++/10.1.0/bits\stl_vector.h **** 	return std::__relocate_a(__first, __last, __result, __alloc);
 457:D:/msys64/mingw64/include/c++/10.1.0/bits\stl_vector.h ****       }
 458:D:/msys64/mingw64/include/c++/10.1.0/bits\stl_vector.h **** 
 459:D:/msys64/mingw64/include/c++/10.1.0/bits\stl_vector.h ****       static pointer
 460:D:/msys64/mingw64/include/c++/10.1.0/bits\stl_vector.h ****       _S_do_relocate(pointer, pointer, pointer __result,
 461:D:/msys64/mingw64/include/c++/10.1.0/bits\stl_vector.h **** 		     _Tp_alloc_type&, false_type) noexcept
 462:D:/msys64/mingw64/include/c++/10.1.0/bits\stl_vector.h ****       { return __result; }
 463:D:/msys64/mingw64/include/c++/10.1.0/bits\stl_vector.h **** 
 464:D:/msys64/mingw64/include/c++/10.1.0/bits\stl_vector.h ****       static pointer
 465:D:/msys64/mingw64/include/c++/10.1.0/bits\stl_vector.h ****       _S_relocate(pointer __first, pointer __last, pointer __result,
 466:D:/msys64/mingw64/include/c++/10.1.0/bits\stl_vector.h **** 		  _Tp_alloc_type& __alloc) noexcept
 467:D:/msys64/mingw64/include/c++/10.1.0/bits\stl_vector.h ****       {
 468:D:/msys64/mingw64/include/c++/10.1.0/bits\stl_vector.h **** 	using __do_it = __bool_constant<_S_use_relocate()>;
 469:D:/msys64/mingw64/include/c++/10.1.0/bits\stl_vector.h **** 	return _S_do_relocate(__first, __last, __result, __alloc, __do_it{});
 470:D:/msys64/mingw64/include/c++/10.1.0/bits\stl_vector.h ****       }
 471:D:/msys64/mingw64/include/c++/10.1.0/bits\stl_vector.h **** #endif // C++11
 472:D:/msys64/mingw64/include/c++/10.1.0/bits\stl_vector.h **** 
GAS LISTING C:\Users\Ilya\AppData\Local\Temp\ccxaKDG8.s 			page 16


 473:D:/msys64/mingw64/include/c++/10.1.0/bits\stl_vector.h ****     protected:
 474:D:/msys64/mingw64/include/c++/10.1.0/bits\stl_vector.h ****       using _Base::_M_allocate;
 475:D:/msys64/mingw64/include/c++/10.1.0/bits\stl_vector.h ****       using _Base::_M_deallocate;
 476:D:/msys64/mingw64/include/c++/10.1.0/bits\stl_vector.h ****       using _Base::_M_impl;
 477:D:/msys64/mingw64/include/c++/10.1.0/bits\stl_vector.h ****       using _Base::_M_get_Tp_allocator;
 478:D:/msys64/mingw64/include/c++/10.1.0/bits\stl_vector.h **** 
 479:D:/msys64/mingw64/include/c++/10.1.0/bits\stl_vector.h ****     public:
 480:D:/msys64/mingw64/include/c++/10.1.0/bits\stl_vector.h ****       // [23.2.4.1] construct/copy/destroy
 481:D:/msys64/mingw64/include/c++/10.1.0/bits\stl_vector.h ****       // (assign() and get_allocator() are also listed in this section)
 482:D:/msys64/mingw64/include/c++/10.1.0/bits\stl_vector.h **** 
 483:D:/msys64/mingw64/include/c++/10.1.0/bits\stl_vector.h ****       /**
 484:D:/msys64/mingw64/include/c++/10.1.0/bits\stl_vector.h ****        *  @brief  Creates a %vector with no elements.
 485:D:/msys64/mingw64/include/c++/10.1.0/bits\stl_vector.h ****        */
 486:D:/msys64/mingw64/include/c++/10.1.0/bits\stl_vector.h **** #if __cplusplus >= 201103L
 487:D:/msys64/mingw64/include/c++/10.1.0/bits\stl_vector.h ****       vector() = default;
 488:D:/msys64/mingw64/include/c++/10.1.0/bits\stl_vector.h **** #else
 489:D:/msys64/mingw64/include/c++/10.1.0/bits\stl_vector.h ****       vector() { }
 490:D:/msys64/mingw64/include/c++/10.1.0/bits\stl_vector.h **** #endif
 491:D:/msys64/mingw64/include/c++/10.1.0/bits\stl_vector.h **** 
 492:D:/msys64/mingw64/include/c++/10.1.0/bits\stl_vector.h ****       /**
 493:D:/msys64/mingw64/include/c++/10.1.0/bits\stl_vector.h ****        *  @brief  Creates a %vector with no elements.
 494:D:/msys64/mingw64/include/c++/10.1.0/bits\stl_vector.h ****        *  @param  __a  An allocator object.
 495:D:/msys64/mingw64/include/c++/10.1.0/bits\stl_vector.h ****        */
 496:D:/msys64/mingw64/include/c++/10.1.0/bits\stl_vector.h ****       explicit
 497:D:/msys64/mingw64/include/c++/10.1.0/bits\stl_vector.h ****       vector(const allocator_type& __a) _GLIBCXX_NOEXCEPT
 498:D:/msys64/mingw64/include/c++/10.1.0/bits\stl_vector.h ****       : _Base(__a) { }
 499:D:/msys64/mingw64/include/c++/10.1.0/bits\stl_vector.h **** 
 500:D:/msys64/mingw64/include/c++/10.1.0/bits\stl_vector.h **** #if __cplusplus >= 201103L
 501:D:/msys64/mingw64/include/c++/10.1.0/bits\stl_vector.h ****       /**
 502:D:/msys64/mingw64/include/c++/10.1.0/bits\stl_vector.h ****        *  @brief  Creates a %vector with default constructed elements.
 503:D:/msys64/mingw64/include/c++/10.1.0/bits\stl_vector.h ****        *  @param  __n  The number of elements to initially create.
 504:D:/msys64/mingw64/include/c++/10.1.0/bits\stl_vector.h ****        *  @param  __a  An allocator.
 505:D:/msys64/mingw64/include/c++/10.1.0/bits\stl_vector.h ****        *
 506:D:/msys64/mingw64/include/c++/10.1.0/bits\stl_vector.h ****        *  This constructor fills the %vector with @a __n default
 507:D:/msys64/mingw64/include/c++/10.1.0/bits\stl_vector.h ****        *  constructed elements.
 508:D:/msys64/mingw64/include/c++/10.1.0/bits\stl_vector.h ****        */
 509:D:/msys64/mingw64/include/c++/10.1.0/bits\stl_vector.h ****       explicit
 510:D:/msys64/mingw64/include/c++/10.1.0/bits\stl_vector.h ****       vector(size_type __n, const allocator_type& __a = allocator_type())
 511:D:/msys64/mingw64/include/c++/10.1.0/bits\stl_vector.h ****       : _Base(_S_check_init_len(__n, __a), __a)
 512:D:/msys64/mingw64/include/c++/10.1.0/bits\stl_vector.h ****       { _M_default_initialize(__n); }
 513:D:/msys64/mingw64/include/c++/10.1.0/bits\stl_vector.h **** 
 514:D:/msys64/mingw64/include/c++/10.1.0/bits\stl_vector.h ****       /**
 515:D:/msys64/mingw64/include/c++/10.1.0/bits\stl_vector.h ****        *  @brief  Creates a %vector with copies of an exemplar element.
 516:D:/msys64/mingw64/include/c++/10.1.0/bits\stl_vector.h ****        *  @param  __n  The number of elements to initially create.
 517:D:/msys64/mingw64/include/c++/10.1.0/bits\stl_vector.h ****        *  @param  __value  An element to copy.
 518:D:/msys64/mingw64/include/c++/10.1.0/bits\stl_vector.h ****        *  @param  __a  An allocator.
 519:D:/msys64/mingw64/include/c++/10.1.0/bits\stl_vector.h ****        *
 520:D:/msys64/mingw64/include/c++/10.1.0/bits\stl_vector.h ****        *  This constructor fills the %vector with @a __n copies of @a __value.
 521:D:/msys64/mingw64/include/c++/10.1.0/bits\stl_vector.h ****        */
 522:D:/msys64/mingw64/include/c++/10.1.0/bits\stl_vector.h ****       vector(size_type __n, const value_type& __value,
 523:D:/msys64/mingw64/include/c++/10.1.0/bits\stl_vector.h **** 	     const allocator_type& __a = allocator_type())
 524:D:/msys64/mingw64/include/c++/10.1.0/bits\stl_vector.h ****       : _Base(_S_check_init_len(__n, __a), __a)
 525:D:/msys64/mingw64/include/c++/10.1.0/bits\stl_vector.h ****       { _M_fill_initialize(__n, __value); }
 526:D:/msys64/mingw64/include/c++/10.1.0/bits\stl_vector.h **** #else
 527:D:/msys64/mingw64/include/c++/10.1.0/bits\stl_vector.h ****       /**
 528:D:/msys64/mingw64/include/c++/10.1.0/bits\stl_vector.h ****        *  @brief  Creates a %vector with copies of an exemplar element.
 529:D:/msys64/mingw64/include/c++/10.1.0/bits\stl_vector.h ****        *  @param  __n  The number of elements to initially create.
GAS LISTING C:\Users\Ilya\AppData\Local\Temp\ccxaKDG8.s 			page 17


 530:D:/msys64/mingw64/include/c++/10.1.0/bits\stl_vector.h ****        *  @param  __value  An element to copy.
 531:D:/msys64/mingw64/include/c++/10.1.0/bits\stl_vector.h ****        *  @param  __a  An allocator.
 532:D:/msys64/mingw64/include/c++/10.1.0/bits\stl_vector.h ****        *
 533:D:/msys64/mingw64/include/c++/10.1.0/bits\stl_vector.h ****        *  This constructor fills the %vector with @a __n copies of @a __value.
 534:D:/msys64/mingw64/include/c++/10.1.0/bits\stl_vector.h ****        */
 535:D:/msys64/mingw64/include/c++/10.1.0/bits\stl_vector.h ****       explicit
 536:D:/msys64/mingw64/include/c++/10.1.0/bits\stl_vector.h ****       vector(size_type __n, const value_type& __value = value_type(),
 537:D:/msys64/mingw64/include/c++/10.1.0/bits\stl_vector.h **** 	     const allocator_type& __a = allocator_type())
 538:D:/msys64/mingw64/include/c++/10.1.0/bits\stl_vector.h ****       : _Base(_S_check_init_len(__n, __a), __a)
 539:D:/msys64/mingw64/include/c++/10.1.0/bits\stl_vector.h ****       { _M_fill_initialize(__n, __value); }
 540:D:/msys64/mingw64/include/c++/10.1.0/bits\stl_vector.h **** #endif
 541:D:/msys64/mingw64/include/c++/10.1.0/bits\stl_vector.h **** 
 542:D:/msys64/mingw64/include/c++/10.1.0/bits\stl_vector.h ****       /**
 543:D:/msys64/mingw64/include/c++/10.1.0/bits\stl_vector.h ****        *  @brief  %Vector copy constructor.
 544:D:/msys64/mingw64/include/c++/10.1.0/bits\stl_vector.h ****        *  @param  __x  A %vector of identical element and allocator types.
 545:D:/msys64/mingw64/include/c++/10.1.0/bits\stl_vector.h ****        *
 546:D:/msys64/mingw64/include/c++/10.1.0/bits\stl_vector.h ****        *  All the elements of @a __x are copied, but any unused capacity in
 547:D:/msys64/mingw64/include/c++/10.1.0/bits\stl_vector.h ****        *  @a __x  will not be copied
 548:D:/msys64/mingw64/include/c++/10.1.0/bits\stl_vector.h ****        *  (i.e. capacity() == size() in the new %vector).
 549:D:/msys64/mingw64/include/c++/10.1.0/bits\stl_vector.h ****        *
 550:D:/msys64/mingw64/include/c++/10.1.0/bits\stl_vector.h ****        *  The newly-created %vector uses a copy of the allocator object used
 551:D:/msys64/mingw64/include/c++/10.1.0/bits\stl_vector.h ****        *  by @a __x (unless the allocator traits dictate a different object).
 552:D:/msys64/mingw64/include/c++/10.1.0/bits\stl_vector.h ****        */
 553:D:/msys64/mingw64/include/c++/10.1.0/bits\stl_vector.h ****       vector(const vector& __x)
 554:D:/msys64/mingw64/include/c++/10.1.0/bits\stl_vector.h ****       : _Base(__x.size(),
 555:D:/msys64/mingw64/include/c++/10.1.0/bits\stl_vector.h **** 	_Alloc_traits::_S_select_on_copy(__x._M_get_Tp_allocator()))
 556:D:/msys64/mingw64/include/c++/10.1.0/bits\stl_vector.h ****       {
 557:D:/msys64/mingw64/include/c++/10.1.0/bits\stl_vector.h **** 	this->_M_impl._M_finish =
 558:D:/msys64/mingw64/include/c++/10.1.0/bits\stl_vector.h **** 	  std::__uninitialized_copy_a(__x.begin(), __x.end(),
 559:D:/msys64/mingw64/include/c++/10.1.0/bits\stl_vector.h **** 				      this->_M_impl._M_start,
 560:D:/msys64/mingw64/include/c++/10.1.0/bits\stl_vector.h **** 				      _M_get_Tp_allocator());
 561:D:/msys64/mingw64/include/c++/10.1.0/bits\stl_vector.h ****       }
 562:D:/msys64/mingw64/include/c++/10.1.0/bits\stl_vector.h **** 
 563:D:/msys64/mingw64/include/c++/10.1.0/bits\stl_vector.h **** #if __cplusplus >= 201103L
 564:D:/msys64/mingw64/include/c++/10.1.0/bits\stl_vector.h ****       /**
 565:D:/msys64/mingw64/include/c++/10.1.0/bits\stl_vector.h ****        *  @brief  %Vector move constructor.
 566:D:/msys64/mingw64/include/c++/10.1.0/bits\stl_vector.h ****        *
 567:D:/msys64/mingw64/include/c++/10.1.0/bits\stl_vector.h ****        *  The newly-created %vector contains the exact contents of the
 568:D:/msys64/mingw64/include/c++/10.1.0/bits\stl_vector.h ****        *  moved instance.
 569:D:/msys64/mingw64/include/c++/10.1.0/bits\stl_vector.h ****        *  The contents of the moved instance are a valid, but unspecified
 570:D:/msys64/mingw64/include/c++/10.1.0/bits\stl_vector.h ****        *  %vector.
 571:D:/msys64/mingw64/include/c++/10.1.0/bits\stl_vector.h ****        */
 572:D:/msys64/mingw64/include/c++/10.1.0/bits\stl_vector.h ****       vector(vector&&) noexcept = default;
 573:D:/msys64/mingw64/include/c++/10.1.0/bits\stl_vector.h **** 
 574:D:/msys64/mingw64/include/c++/10.1.0/bits\stl_vector.h ****       /// Copy constructor with alternative allocator
 575:D:/msys64/mingw64/include/c++/10.1.0/bits\stl_vector.h ****       vector(const vector& __x, const allocator_type& __a)
 576:D:/msys64/mingw64/include/c++/10.1.0/bits\stl_vector.h ****       : _Base(__x.size(), __a)
 577:D:/msys64/mingw64/include/c++/10.1.0/bits\stl_vector.h ****       {
 578:D:/msys64/mingw64/include/c++/10.1.0/bits\stl_vector.h **** 	this->_M_impl._M_finish =
 579:D:/msys64/mingw64/include/c++/10.1.0/bits\stl_vector.h **** 	  std::__uninitialized_copy_a(__x.begin(), __x.end(),
 580:D:/msys64/mingw64/include/c++/10.1.0/bits\stl_vector.h **** 				      this->_M_impl._M_start,
 581:D:/msys64/mingw64/include/c++/10.1.0/bits\stl_vector.h **** 				      _M_get_Tp_allocator());
 582:D:/msys64/mingw64/include/c++/10.1.0/bits\stl_vector.h ****       }
 583:D:/msys64/mingw64/include/c++/10.1.0/bits\stl_vector.h **** 
 584:D:/msys64/mingw64/include/c++/10.1.0/bits\stl_vector.h ****     private:
 585:D:/msys64/mingw64/include/c++/10.1.0/bits\stl_vector.h ****       vector(vector&& __rv, const allocator_type& __m, true_type) noexcept
 586:D:/msys64/mingw64/include/c++/10.1.0/bits\stl_vector.h ****       : _Base(__m, std::move(__rv))
GAS LISTING C:\Users\Ilya\AppData\Local\Temp\ccxaKDG8.s 			page 18


 587:D:/msys64/mingw64/include/c++/10.1.0/bits\stl_vector.h ****       { }
 588:D:/msys64/mingw64/include/c++/10.1.0/bits\stl_vector.h **** 
 589:D:/msys64/mingw64/include/c++/10.1.0/bits\stl_vector.h ****       vector(vector&& __rv, const allocator_type& __m, false_type)
 590:D:/msys64/mingw64/include/c++/10.1.0/bits\stl_vector.h ****       : _Base(__m)
 591:D:/msys64/mingw64/include/c++/10.1.0/bits\stl_vector.h ****       {
 592:D:/msys64/mingw64/include/c++/10.1.0/bits\stl_vector.h **** 	if (__rv.get_allocator() == __m)
 593:D:/msys64/mingw64/include/c++/10.1.0/bits\stl_vector.h **** 	  this->_M_impl._M_swap_data(__rv._M_impl);
 594:D:/msys64/mingw64/include/c++/10.1.0/bits\stl_vector.h **** 	else if (!__rv.empty())
 595:D:/msys64/mingw64/include/c++/10.1.0/bits\stl_vector.h **** 	  {
 596:D:/msys64/mingw64/include/c++/10.1.0/bits\stl_vector.h **** 	    this->_M_create_storage(__rv.size());
 597:D:/msys64/mingw64/include/c++/10.1.0/bits\stl_vector.h **** 	    this->_M_impl._M_finish =
 598:D:/msys64/mingw64/include/c++/10.1.0/bits\stl_vector.h **** 	      std::__uninitialized_move_a(__rv.begin(), __rv.end(),
 599:D:/msys64/mingw64/include/c++/10.1.0/bits\stl_vector.h **** 					  this->_M_impl._M_start,
 600:D:/msys64/mingw64/include/c++/10.1.0/bits\stl_vector.h **** 					  _M_get_Tp_allocator());
 601:D:/msys64/mingw64/include/c++/10.1.0/bits\stl_vector.h **** 	    __rv.clear();
 602:D:/msys64/mingw64/include/c++/10.1.0/bits\stl_vector.h **** 	  }
 603:D:/msys64/mingw64/include/c++/10.1.0/bits\stl_vector.h ****       }
 604:D:/msys64/mingw64/include/c++/10.1.0/bits\stl_vector.h **** 
 605:D:/msys64/mingw64/include/c++/10.1.0/bits\stl_vector.h ****     public:
 606:D:/msys64/mingw64/include/c++/10.1.0/bits\stl_vector.h ****       /// Move constructor with alternative allocator
 607:D:/msys64/mingw64/include/c++/10.1.0/bits\stl_vector.h ****       vector(vector&& __rv, const allocator_type& __m)
 608:D:/msys64/mingw64/include/c++/10.1.0/bits\stl_vector.h ****       noexcept( noexcept(
 609:D:/msys64/mingw64/include/c++/10.1.0/bits\stl_vector.h **** 	vector(std::declval<vector&&>(), std::declval<const allocator_type&>(),
 610:D:/msys64/mingw64/include/c++/10.1.0/bits\stl_vector.h **** 	       std::declval<typename _Alloc_traits::is_always_equal>())) )
 611:D:/msys64/mingw64/include/c++/10.1.0/bits\stl_vector.h ****       : vector(std::move(__rv), __m, typename _Alloc_traits::is_always_equal{})
 612:D:/msys64/mingw64/include/c++/10.1.0/bits\stl_vector.h ****       { }
 613:D:/msys64/mingw64/include/c++/10.1.0/bits\stl_vector.h **** 
 614:D:/msys64/mingw64/include/c++/10.1.0/bits\stl_vector.h ****       /**
 615:D:/msys64/mingw64/include/c++/10.1.0/bits\stl_vector.h ****        *  @brief  Builds a %vector from an initializer list.
 616:D:/msys64/mingw64/include/c++/10.1.0/bits\stl_vector.h ****        *  @param  __l  An initializer_list.
 617:D:/msys64/mingw64/include/c++/10.1.0/bits\stl_vector.h ****        *  @param  __a  An allocator.
 618:D:/msys64/mingw64/include/c++/10.1.0/bits\stl_vector.h ****        *
 619:D:/msys64/mingw64/include/c++/10.1.0/bits\stl_vector.h ****        *  Create a %vector consisting of copies of the elements in the
 620:D:/msys64/mingw64/include/c++/10.1.0/bits\stl_vector.h ****        *  initializer_list @a __l.
 621:D:/msys64/mingw64/include/c++/10.1.0/bits\stl_vector.h ****        *
 622:D:/msys64/mingw64/include/c++/10.1.0/bits\stl_vector.h ****        *  This will call the element type's copy constructor N times
 623:D:/msys64/mingw64/include/c++/10.1.0/bits\stl_vector.h ****        *  (where N is @a __l.size()) and do no memory reallocation.
 624:D:/msys64/mingw64/include/c++/10.1.0/bits\stl_vector.h ****        */
 625:D:/msys64/mingw64/include/c++/10.1.0/bits\stl_vector.h ****       vector(initializer_list<value_type> __l,
 626:D:/msys64/mingw64/include/c++/10.1.0/bits\stl_vector.h **** 	     const allocator_type& __a = allocator_type())
 627:D:/msys64/mingw64/include/c++/10.1.0/bits\stl_vector.h ****       : _Base(__a)
 628:D:/msys64/mingw64/include/c++/10.1.0/bits\stl_vector.h ****       {
 629:D:/msys64/mingw64/include/c++/10.1.0/bits\stl_vector.h **** 	_M_range_initialize(__l.begin(), __l.end(),
 630:D:/msys64/mingw64/include/c++/10.1.0/bits\stl_vector.h **** 			    random_access_iterator_tag());
 631:D:/msys64/mingw64/include/c++/10.1.0/bits\stl_vector.h ****       }
 632:D:/msys64/mingw64/include/c++/10.1.0/bits\stl_vector.h **** #endif
 633:D:/msys64/mingw64/include/c++/10.1.0/bits\stl_vector.h **** 
 634:D:/msys64/mingw64/include/c++/10.1.0/bits\stl_vector.h ****       /**
 635:D:/msys64/mingw64/include/c++/10.1.0/bits\stl_vector.h ****        *  @brief  Builds a %vector from a range.
 636:D:/msys64/mingw64/include/c++/10.1.0/bits\stl_vector.h ****        *  @param  __first  An input iterator.
 637:D:/msys64/mingw64/include/c++/10.1.0/bits\stl_vector.h ****        *  @param  __last  An input iterator.
 638:D:/msys64/mingw64/include/c++/10.1.0/bits\stl_vector.h ****        *  @param  __a  An allocator.
 639:D:/msys64/mingw64/include/c++/10.1.0/bits\stl_vector.h ****        *
 640:D:/msys64/mingw64/include/c++/10.1.0/bits\stl_vector.h ****        *  Create a %vector consisting of copies of the elements from
 641:D:/msys64/mingw64/include/c++/10.1.0/bits\stl_vector.h ****        *  [first,last).
 642:D:/msys64/mingw64/include/c++/10.1.0/bits\stl_vector.h ****        *
 643:D:/msys64/mingw64/include/c++/10.1.0/bits\stl_vector.h ****        *  If the iterators are forward, bidirectional, or
GAS LISTING C:\Users\Ilya\AppData\Local\Temp\ccxaKDG8.s 			page 19


 644:D:/msys64/mingw64/include/c++/10.1.0/bits\stl_vector.h ****        *  random-access, then this will call the elements' copy
 645:D:/msys64/mingw64/include/c++/10.1.0/bits\stl_vector.h ****        *  constructor N times (where N is distance(first,last)) and do
 646:D:/msys64/mingw64/include/c++/10.1.0/bits\stl_vector.h ****        *  no memory reallocation.  But if only input iterators are
 647:D:/msys64/mingw64/include/c++/10.1.0/bits\stl_vector.h ****        *  used, then this will do at most 2N calls to the copy
 648:D:/msys64/mingw64/include/c++/10.1.0/bits\stl_vector.h ****        *  constructor, and logN memory reallocations.
 649:D:/msys64/mingw64/include/c++/10.1.0/bits\stl_vector.h ****        */
 650:D:/msys64/mingw64/include/c++/10.1.0/bits\stl_vector.h **** #if __cplusplus >= 201103L
 651:D:/msys64/mingw64/include/c++/10.1.0/bits\stl_vector.h ****       template<typename _InputIterator,
 652:D:/msys64/mingw64/include/c++/10.1.0/bits\stl_vector.h **** 	       typename = std::_RequireInputIter<_InputIterator>>
 653:D:/msys64/mingw64/include/c++/10.1.0/bits\stl_vector.h **** 	vector(_InputIterator __first, _InputIterator __last,
 654:D:/msys64/mingw64/include/c++/10.1.0/bits\stl_vector.h **** 	       const allocator_type& __a = allocator_type())
 655:D:/msys64/mingw64/include/c++/10.1.0/bits\stl_vector.h **** 	: _Base(__a)
 656:D:/msys64/mingw64/include/c++/10.1.0/bits\stl_vector.h **** 	{
 657:D:/msys64/mingw64/include/c++/10.1.0/bits\stl_vector.h **** 	  _M_range_initialize(__first, __last,
 658:D:/msys64/mingw64/include/c++/10.1.0/bits\stl_vector.h **** 			      std::__iterator_category(__first));
 659:D:/msys64/mingw64/include/c++/10.1.0/bits\stl_vector.h **** 	}
 660:D:/msys64/mingw64/include/c++/10.1.0/bits\stl_vector.h **** #else
 661:D:/msys64/mingw64/include/c++/10.1.0/bits\stl_vector.h ****       template<typename _InputIterator>
 662:D:/msys64/mingw64/include/c++/10.1.0/bits\stl_vector.h **** 	vector(_InputIterator __first, _InputIterator __last,
 663:D:/msys64/mingw64/include/c++/10.1.0/bits\stl_vector.h **** 	       const allocator_type& __a = allocator_type())
 664:D:/msys64/mingw64/include/c++/10.1.0/bits\stl_vector.h **** 	: _Base(__a)
 665:D:/msys64/mingw64/include/c++/10.1.0/bits\stl_vector.h **** 	{
 666:D:/msys64/mingw64/include/c++/10.1.0/bits\stl_vector.h **** 	  // Check whether it's an integral type.  If so, it's not an iterator.
 667:D:/msys64/mingw64/include/c++/10.1.0/bits\stl_vector.h **** 	  typedef typename std::__is_integer<_InputIterator>::__type _Integral;
 668:D:/msys64/mingw64/include/c++/10.1.0/bits\stl_vector.h **** 	  _M_initialize_dispatch(__first, __last, _Integral());
 669:D:/msys64/mingw64/include/c++/10.1.0/bits\stl_vector.h **** 	}
 670:D:/msys64/mingw64/include/c++/10.1.0/bits\stl_vector.h **** #endif
 671:D:/msys64/mingw64/include/c++/10.1.0/bits\stl_vector.h **** 
 672:D:/msys64/mingw64/include/c++/10.1.0/bits\stl_vector.h ****       /**
 673:D:/msys64/mingw64/include/c++/10.1.0/bits\stl_vector.h ****        *  The dtor only erases the elements, and note that if the
 674:D:/msys64/mingw64/include/c++/10.1.0/bits\stl_vector.h ****        *  elements themselves are pointers, the pointed-to memory is
 675:D:/msys64/mingw64/include/c++/10.1.0/bits\stl_vector.h ****        *  not touched in any way.  Managing the pointer is the user's
 676:D:/msys64/mingw64/include/c++/10.1.0/bits\stl_vector.h ****        *  responsibility.
 677:D:/msys64/mingw64/include/c++/10.1.0/bits\stl_vector.h ****        */
 678:D:/msys64/mingw64/include/c++/10.1.0/bits\stl_vector.h ****       ~vector() _GLIBCXX_NOEXCEPT
 278              		.loc 3 678 7
 279              		.cfi_startproc
 280 0000 55       		pushq	%rbp
 281              		.seh_pushreg	%rbp
 282              		.cfi_def_cfa_offset 16
 283              		.cfi_offset 6, -16
 284 0001 4889E5   		movq	%rsp, %rbp
 285              		.seh_setframe	%rbp, 0
 286              		.cfi_def_cfa_register 6
 287 0004 4883EC20 		subq	$32, %rsp
 288              		.seh_stackalloc	32
 289              		.seh_endprologue
 290 0008 48894D10 		movq	%rcx, 16(%rbp)
 291              	.LBB6:
 679:D:/msys64/mingw64/include/c++/10.1.0/bits\stl_vector.h ****       {
 680:D:/msys64/mingw64/include/c++/10.1.0/bits\stl_vector.h **** 	std::_Destroy(this->_M_impl._M_start, this->_M_impl._M_finish,
 681:D:/msys64/mingw64/include/c++/10.1.0/bits\stl_vector.h **** 		      _M_get_Tp_allocator());
 292              		.loc 3 681 28
 293 000c 488B4510 		movq	16(%rbp), %rax
 294 0010 4889C1   		movq	%rax, %rcx
 295 0013 E8000000 		call	_ZNSt12_Vector_baseISt4pairIclESaIS1_EE19_M_get_Tp_allocatorEv
 295      00
GAS LISTING C:\Users\Ilya\AppData\Local\Temp\ccxaKDG8.s 			page 20


 296 0018 4889C1   		movq	%rax, %rcx
 680:D:/msys64/mingw64/include/c++/10.1.0/bits\stl_vector.h **** 		      _M_get_Tp_allocator());
 297              		.loc 3 680 15
 298 001b 488B4510 		movq	16(%rbp), %rax
 299 001f 488B5008 		movq	8(%rax), %rdx
 300 0023 488B4510 		movq	16(%rbp), %rax
 301 0027 488B00   		movq	(%rax), %rax
 302 002a 4989C8   		movq	%rcx, %r8
 303 002d 4889C1   		movq	%rax, %rcx
 304 0030 E8000000 		call	_ZSt8_DestroyIPSt4pairIclES1_EvT_S3_RSaIT0_E
 304      00
 682:D:/msys64/mingw64/include/c++/10.1.0/bits\stl_vector.h **** 	_GLIBCXX_ASAN_ANNOTATE_BEFORE_DEALLOC;
 683:D:/msys64/mingw64/include/c++/10.1.0/bits\stl_vector.h ****       }
 305              		.loc 3 683 7
 306 0035 488B4510 		movq	16(%rbp), %rax
 307 0039 4889C1   		movq	%rax, %rcx
 308 003c E8000000 		call	_ZNSt12_Vector_baseISt4pairIclESaIS1_EED2Ev
 308      00
 309              	.LBE6:
 310 0041 90       		nop
 311 0042 4883C420 		addq	$32, %rsp
 312 0046 5D       		popq	%rbp
 313              		.cfi_restore 6
 314              		.cfi_def_cfa 7, 8
 315 0047 C3       		ret
 316              		.cfi_endproc
 317              	.LFE2258:
 318              		.seh_handler	__gxx_personality_seh0, @unwind, @except
 319              		.seh_handlerdata
 320              	.LLSDA2258:
 321 0010 FF       		.byte	0xff
 322 0011 FF       		.byte	0xff
 323 0012 01       		.byte	0x1
 324 0013 00       		.uleb128 .LLSDACSE2258-.LLSDACSB2258
 325              	.LLSDACSB2258:
 326              	.LLSDACSE2258:
 327              		.section	.text$_ZNSt6vectorISt4pairIclESaIS1_EED1Ev,"x"
 328              		.linkonce discard
 329              		.seh_endproc
 330 0048 90909090 		.section	.text$_ZNSt12_Vector_baseISt4pairIclESaIS1_EE12_Vector_implD1Ev,"x"
 330      90909090 
 331              		.linkonce discard
 332              		.align 2
 333              		.globl	_ZNSt12_Vector_baseISt4pairIclESaIS1_EE12_Vector_implD1Ev
 335              		.seh_proc	_ZNSt12_Vector_baseISt4pairIclESaIS1_EE12_Vector_implD1Ev
 336              	_ZNSt12_Vector_baseISt4pairIclESaIS1_EE12_Vector_implD1Ev:
 337              	.LFB2374:
 128:D:/msys64/mingw64/include/c++/10.1.0/bits\stl_vector.h **** 	: public _Tp_alloc_type, public _Vector_impl_data
 338              		.loc 3 128 14
 339              		.cfi_startproc
 340 0000 55       		pushq	%rbp
 341              		.seh_pushreg	%rbp
 342              		.cfi_def_cfa_offset 16
 343              		.cfi_offset 6, -16
 344 0001 4889E5   		movq	%rsp, %rbp
 345              		.seh_setframe	%rbp, 0
 346              		.cfi_def_cfa_register 6
GAS LISTING C:\Users\Ilya\AppData\Local\Temp\ccxaKDG8.s 			page 21


 347 0004 4883EC20 		subq	$32, %rsp
 348              		.seh_stackalloc	32
 349              		.seh_endprologue
 350 0008 48894D10 		movq	%rcx, 16(%rbp)
 351              	.LBB7:
 128:D:/msys64/mingw64/include/c++/10.1.0/bits\stl_vector.h **** 	: public _Tp_alloc_type, public _Vector_impl_data
 352              		.loc 3 128 14
 353 000c 488B4D10 		movq	16(%rbp), %rcx
 354 0010 E8000000 		call	_ZNSaISt4pairIclEED2Ev
 354      00
 355              	.LBE7:
 356 0015 90       		nop
 357 0016 4883C420 		addq	$32, %rsp
 358 001a 5D       		popq	%rbp
 359              		.cfi_restore 6
 360              		.cfi_def_cfa 7, 8
 361 001b C3       		ret
 362              		.cfi_endproc
 363              	.LFE2374:
 364              		.seh_endproc
 365 001c 90909090 		.section	.text$_ZNSt12_Vector_baseISt4pairIclESaIS1_EED2Ev,"x"
 366              		.linkonce discard
 367              		.align 2
 368              		.globl	_ZNSt12_Vector_baseISt4pairIclESaIS1_EED2Ev
 370              		.seh_proc	_ZNSt12_Vector_baseISt4pairIclESaIS1_EED2Ev
 371              	_ZNSt12_Vector_baseISt4pairIclESaIS1_EED2Ev:
 372              	.LFB2377:
 333:D:/msys64/mingw64/include/c++/10.1.0/bits\stl_vector.h ****       {
 373              		.loc 3 333 7
 374              		.cfi_startproc
 375 0000 55       		pushq	%rbp
 376              		.seh_pushreg	%rbp
 377              		.cfi_def_cfa_offset 16
 378              		.cfi_offset 6, -16
 379 0001 4889E5   		movq	%rsp, %rbp
 380              		.seh_setframe	%rbp, 0
 381              		.cfi_def_cfa_register 6
 382 0004 4883EC20 		subq	$32, %rsp
 383              		.seh_stackalloc	32
 384              		.seh_endprologue
 385 0008 48894D10 		movq	%rcx, 16(%rbp)
 386              	.LBB8:
 336:D:/msys64/mingw64/include/c++/10.1.0/bits\stl_vector.h ****       }
 387              		.loc 3 336 17
 388 000c 488B4510 		movq	16(%rbp), %rax
 389 0010 488B5010 		movq	16(%rax), %rdx
 336:D:/msys64/mingw64/include/c++/10.1.0/bits\stl_vector.h ****       }
 390              		.loc 3 336 45
 391 0014 488B4510 		movq	16(%rbp), %rax
 392 0018 488B08   		movq	(%rax), %rcx
 336:D:/msys64/mingw64/include/c++/10.1.0/bits\stl_vector.h ****       }
 393              		.loc 3 336 35
 394 001b 4889D0   		movq	%rdx, %rax
 395 001e 4829C8   		subq	%rcx, %rax
 396 0021 48C1F803 		sarq	$3, %rax
 335:D:/msys64/mingw64/include/c++/10.1.0/bits\stl_vector.h **** 		      _M_impl._M_end_of_storage - _M_impl._M_start);
 397              		.loc 3 335 15
GAS LISTING C:\Users\Ilya\AppData\Local\Temp\ccxaKDG8.s 			page 22


 398 0025 4889C2   		movq	%rax, %rdx
 399 0028 488B4510 		movq	16(%rbp), %rax
 400 002c 488B00   		movq	(%rax), %rax
 401 002f 4989D0   		movq	%rdx, %r8
 402 0032 4889C2   		movq	%rax, %rdx
 403 0035 488B4D10 		movq	16(%rbp), %rcx
 404 0039 E8000000 		call	_ZNSt12_Vector_baseISt4pairIclESaIS1_EE13_M_deallocateEPS1_y
 404      00
 337:D:/msys64/mingw64/include/c++/10.1.0/bits\stl_vector.h **** 
 405              		.loc 3 337 7
 406 003e 488B4510 		movq	16(%rbp), %rax
 407 0042 4889C1   		movq	%rax, %rcx
 408 0045 E8000000 		call	_ZNSt12_Vector_baseISt4pairIclESaIS1_EE12_Vector_implD1Ev
 408      00
 409              	.LBE8:
 410 004a 90       		nop
 411 004b 4883C420 		addq	$32, %rsp
 412 004f 5D       		popq	%rbp
 413              		.cfi_restore 6
 414              		.cfi_def_cfa 7, 8
 415 0050 C3       		ret
 416              		.cfi_endproc
 417              	.LFE2377:
 418              		.seh_handler	__gxx_personality_seh0, @unwind, @except
 419              		.seh_handlerdata
 420              	.LLSDA2377:
 421 0010 FF       		.byte	0xff
 422 0011 FF       		.byte	0xff
 423 0012 01       		.byte	0x1
 424 0013 00       		.uleb128 .LLSDACSE2377-.LLSDACSB2377
 425              	.LLSDACSB2377:
 426              	.LLSDACSE2377:
 427              		.section	.text$_ZNSt12_Vector_baseISt4pairIclESaIS1_EED2Ev,"x"
 428              		.linkonce discard
 429              		.seh_endproc
 430 0051 90909090 		.section	.text$_ZNSt12_Vector_baseISt4pairIclESaIS1_EE19_M_get_Tp_allocatorEv,"x"
 430      90909090 
 430      90909090 
 430      909090
 431              		.linkonce discard
 432              		.align 2
 433              		.globl	_ZNSt12_Vector_baseISt4pairIclESaIS1_EE19_M_get_Tp_allocatorEv
 435              		.seh_proc	_ZNSt12_Vector_baseISt4pairIclESaIS1_EE19_M_get_Tp_allocatorEv
 436              	_ZNSt12_Vector_baseISt4pairIclESaIS1_EE19_M_get_Tp_allocatorEv:
 437              	.LFB2379:
 276:D:/msys64/mingw64/include/c++/10.1.0/bits\stl_vector.h ****       { return this->_M_impl; }
 438              		.loc 3 276 7
 439              		.cfi_startproc
 440 0000 55       		pushq	%rbp
 441              		.seh_pushreg	%rbp
 442              		.cfi_def_cfa_offset 16
 443              		.cfi_offset 6, -16
 444 0001 4889E5   		movq	%rsp, %rbp
 445              		.seh_setframe	%rbp, 0
 446              		.cfi_def_cfa_register 6
 447              		.seh_endprologue
 448 0004 48894D10 		movq	%rcx, 16(%rbp)
GAS LISTING C:\Users\Ilya\AppData\Local\Temp\ccxaKDG8.s 			page 23


 277:D:/msys64/mingw64/include/c++/10.1.0/bits\stl_vector.h **** 
 449              		.loc 3 277 22
 450 0008 488B4510 		movq	16(%rbp), %rax
 277:D:/msys64/mingw64/include/c++/10.1.0/bits\stl_vector.h **** 
 451              		.loc 3 277 31
 452 000c 5D       		popq	%rbp
 453              		.cfi_restore 6
 454              		.cfi_def_cfa 7, 8
 455 000d C3       		ret
 456              		.cfi_endproc
 457              	.LFE2379:
 458              		.seh_endproc
 459 000e 9090     		.section	.text$_ZSt8_DestroyIPSt4pairIclES1_EvT_S3_RSaIT0_E,"x"
 460              		.linkonce discard
 461              		.globl	_ZSt8_DestroyIPSt4pairIclES1_EvT_S3_RSaIT0_E
 463              		.seh_proc	_ZSt8_DestroyIPSt4pairIclES1_EvT_S3_RSaIT0_E
 464              	_ZSt8_DestroyIPSt4pairIclES1_EvT_S3_RSaIT0_E:
 465              	.LFB2380:
 466              		.file 4 "D:/msys64/mingw64/include/c++/10.1.0/bits/alloc_traits.h"
   1:D:/msys64/mingw64/include/c++/10.1.0/bits\alloc_traits.h **** // Allocator traits -*- C++ -*-
   2:D:/msys64/mingw64/include/c++/10.1.0/bits\alloc_traits.h **** 
   3:D:/msys64/mingw64/include/c++/10.1.0/bits\alloc_traits.h **** // Copyright (C) 2011-2020 Free Software Foundation, Inc.
   4:D:/msys64/mingw64/include/c++/10.1.0/bits\alloc_traits.h **** //
   5:D:/msys64/mingw64/include/c++/10.1.0/bits\alloc_traits.h **** // This file is part of the GNU ISO C++ Library.  This library is free
   6:D:/msys64/mingw64/include/c++/10.1.0/bits\alloc_traits.h **** // software; you can redistribute it and/or modify it under the
   7:D:/msys64/mingw64/include/c++/10.1.0/bits\alloc_traits.h **** // terms of the GNU General Public License as published by the
   8:D:/msys64/mingw64/include/c++/10.1.0/bits\alloc_traits.h **** // Free Software Foundation; either version 3, or (at your option)
   9:D:/msys64/mingw64/include/c++/10.1.0/bits\alloc_traits.h **** // any later version.
  10:D:/msys64/mingw64/include/c++/10.1.0/bits\alloc_traits.h **** 
  11:D:/msys64/mingw64/include/c++/10.1.0/bits\alloc_traits.h **** // This library is distributed in the hope that it will be useful,
  12:D:/msys64/mingw64/include/c++/10.1.0/bits\alloc_traits.h **** // but WITHOUT ANY WARRANTY; without even the implied warranty of
  13:D:/msys64/mingw64/include/c++/10.1.0/bits\alloc_traits.h **** // MERCHANTABILITY or FITNESS FOR A PARTICULAR PURPOSE.  See the
  14:D:/msys64/mingw64/include/c++/10.1.0/bits\alloc_traits.h **** // GNU General Public License for more details.
  15:D:/msys64/mingw64/include/c++/10.1.0/bits\alloc_traits.h **** 
  16:D:/msys64/mingw64/include/c++/10.1.0/bits\alloc_traits.h **** // Under Section 7 of GPL version 3, you are granted additional
  17:D:/msys64/mingw64/include/c++/10.1.0/bits\alloc_traits.h **** // permissions described in the GCC Runtime Library Exception, version
  18:D:/msys64/mingw64/include/c++/10.1.0/bits\alloc_traits.h **** // 3.1, as published by the Free Software Foundation.
  19:D:/msys64/mingw64/include/c++/10.1.0/bits\alloc_traits.h **** 
  20:D:/msys64/mingw64/include/c++/10.1.0/bits\alloc_traits.h **** // You should have received a copy of the GNU General Public License and
  21:D:/msys64/mingw64/include/c++/10.1.0/bits\alloc_traits.h **** // a copy of the GCC Runtime Library Exception along with this program;
  22:D:/msys64/mingw64/include/c++/10.1.0/bits\alloc_traits.h **** // see the files COPYING3 and COPYING.RUNTIME respectively.  If not, see
  23:D:/msys64/mingw64/include/c++/10.1.0/bits\alloc_traits.h **** // <http://www.gnu.org/licenses/>.
  24:D:/msys64/mingw64/include/c++/10.1.0/bits\alloc_traits.h **** 
  25:D:/msys64/mingw64/include/c++/10.1.0/bits\alloc_traits.h **** /** @file bits/alloc_traits.h
  26:D:/msys64/mingw64/include/c++/10.1.0/bits\alloc_traits.h ****  *  This is an internal header file, included by other library headers.
  27:D:/msys64/mingw64/include/c++/10.1.0/bits\alloc_traits.h ****  *  Do not attempt to use it directly. @headername{memory}
  28:D:/msys64/mingw64/include/c++/10.1.0/bits\alloc_traits.h ****  */
  29:D:/msys64/mingw64/include/c++/10.1.0/bits\alloc_traits.h **** 
  30:D:/msys64/mingw64/include/c++/10.1.0/bits\alloc_traits.h **** #ifndef _ALLOC_TRAITS_H
  31:D:/msys64/mingw64/include/c++/10.1.0/bits\alloc_traits.h **** #define _ALLOC_TRAITS_H 1
  32:D:/msys64/mingw64/include/c++/10.1.0/bits\alloc_traits.h **** 
  33:D:/msys64/mingw64/include/c++/10.1.0/bits\alloc_traits.h **** #include <bits/stl_construct.h>
  34:D:/msys64/mingw64/include/c++/10.1.0/bits\alloc_traits.h **** #include <bits/memoryfwd.h>
  35:D:/msys64/mingw64/include/c++/10.1.0/bits\alloc_traits.h **** #if __cplusplus >= 201103L
  36:D:/msys64/mingw64/include/c++/10.1.0/bits\alloc_traits.h **** # include <bits/allocator.h>
  37:D:/msys64/mingw64/include/c++/10.1.0/bits\alloc_traits.h **** # include <bits/ptr_traits.h>
  38:D:/msys64/mingw64/include/c++/10.1.0/bits\alloc_traits.h **** # include <ext/numeric_traits.h>
GAS LISTING C:\Users\Ilya\AppData\Local\Temp\ccxaKDG8.s 			page 24


  39:D:/msys64/mingw64/include/c++/10.1.0/bits\alloc_traits.h **** #endif
  40:D:/msys64/mingw64/include/c++/10.1.0/bits\alloc_traits.h **** 
  41:D:/msys64/mingw64/include/c++/10.1.0/bits\alloc_traits.h **** namespace std _GLIBCXX_VISIBILITY(default)
  42:D:/msys64/mingw64/include/c++/10.1.0/bits\alloc_traits.h **** {
  43:D:/msys64/mingw64/include/c++/10.1.0/bits\alloc_traits.h **** _GLIBCXX_BEGIN_NAMESPACE_VERSION
  44:D:/msys64/mingw64/include/c++/10.1.0/bits\alloc_traits.h **** 
  45:D:/msys64/mingw64/include/c++/10.1.0/bits\alloc_traits.h **** #if __cplusplus >= 201103L
  46:D:/msys64/mingw64/include/c++/10.1.0/bits\alloc_traits.h **** #define __cpp_lib_allocator_traits_is_always_equal 201411
  47:D:/msys64/mingw64/include/c++/10.1.0/bits\alloc_traits.h **** 
  48:D:/msys64/mingw64/include/c++/10.1.0/bits\alloc_traits.h ****   struct __allocator_traits_base
  49:D:/msys64/mingw64/include/c++/10.1.0/bits\alloc_traits.h ****   {
  50:D:/msys64/mingw64/include/c++/10.1.0/bits\alloc_traits.h ****     template<typename _Tp, typename _Up, typename = void>
  51:D:/msys64/mingw64/include/c++/10.1.0/bits\alloc_traits.h ****       struct __rebind : __replace_first_arg<_Tp, _Up> { };
  52:D:/msys64/mingw64/include/c++/10.1.0/bits\alloc_traits.h **** 
  53:D:/msys64/mingw64/include/c++/10.1.0/bits\alloc_traits.h ****     template<typename _Tp, typename _Up>
  54:D:/msys64/mingw64/include/c++/10.1.0/bits\alloc_traits.h ****       struct __rebind<_Tp, _Up,
  55:D:/msys64/mingw64/include/c++/10.1.0/bits\alloc_traits.h **** 		      __void_t<typename _Tp::template rebind<_Up>::other>>
  56:D:/msys64/mingw64/include/c++/10.1.0/bits\alloc_traits.h ****       { using type = typename _Tp::template rebind<_Up>::other; };
  57:D:/msys64/mingw64/include/c++/10.1.0/bits\alloc_traits.h **** 
  58:D:/msys64/mingw64/include/c++/10.1.0/bits\alloc_traits.h ****   protected:
  59:D:/msys64/mingw64/include/c++/10.1.0/bits\alloc_traits.h ****     template<typename _Tp>
  60:D:/msys64/mingw64/include/c++/10.1.0/bits\alloc_traits.h ****       using __pointer = typename _Tp::pointer;
  61:D:/msys64/mingw64/include/c++/10.1.0/bits\alloc_traits.h ****     template<typename _Tp>
  62:D:/msys64/mingw64/include/c++/10.1.0/bits\alloc_traits.h ****       using __c_pointer = typename _Tp::const_pointer;
  63:D:/msys64/mingw64/include/c++/10.1.0/bits\alloc_traits.h ****     template<typename _Tp>
  64:D:/msys64/mingw64/include/c++/10.1.0/bits\alloc_traits.h ****       using __v_pointer = typename _Tp::void_pointer;
  65:D:/msys64/mingw64/include/c++/10.1.0/bits\alloc_traits.h ****     template<typename _Tp>
  66:D:/msys64/mingw64/include/c++/10.1.0/bits\alloc_traits.h ****       using __cv_pointer = typename _Tp::const_void_pointer;
  67:D:/msys64/mingw64/include/c++/10.1.0/bits\alloc_traits.h ****     template<typename _Tp>
  68:D:/msys64/mingw64/include/c++/10.1.0/bits\alloc_traits.h ****       using __pocca = typename _Tp::propagate_on_container_copy_assignment;
  69:D:/msys64/mingw64/include/c++/10.1.0/bits\alloc_traits.h ****     template<typename _Tp>
  70:D:/msys64/mingw64/include/c++/10.1.0/bits\alloc_traits.h ****       using __pocma = typename _Tp::propagate_on_container_move_assignment;
  71:D:/msys64/mingw64/include/c++/10.1.0/bits\alloc_traits.h ****     template<typename _Tp>
  72:D:/msys64/mingw64/include/c++/10.1.0/bits\alloc_traits.h ****       using __pocs = typename _Tp::propagate_on_container_swap;
  73:D:/msys64/mingw64/include/c++/10.1.0/bits\alloc_traits.h ****     template<typename _Tp>
  74:D:/msys64/mingw64/include/c++/10.1.0/bits\alloc_traits.h ****       using __equal = typename _Tp::is_always_equal;
  75:D:/msys64/mingw64/include/c++/10.1.0/bits\alloc_traits.h ****   };
  76:D:/msys64/mingw64/include/c++/10.1.0/bits\alloc_traits.h **** 
  77:D:/msys64/mingw64/include/c++/10.1.0/bits\alloc_traits.h ****   template<typename _Alloc, typename _Up>
  78:D:/msys64/mingw64/include/c++/10.1.0/bits\alloc_traits.h ****     using __alloc_rebind
  79:D:/msys64/mingw64/include/c++/10.1.0/bits\alloc_traits.h ****       = typename __allocator_traits_base::template __rebind<_Alloc, _Up>::type;
  80:D:/msys64/mingw64/include/c++/10.1.0/bits\alloc_traits.h **** 
  81:D:/msys64/mingw64/include/c++/10.1.0/bits\alloc_traits.h ****   /**
  82:D:/msys64/mingw64/include/c++/10.1.0/bits\alloc_traits.h ****    * @brief  Uniform interface to all allocator types.
  83:D:/msys64/mingw64/include/c++/10.1.0/bits\alloc_traits.h ****    * @ingroup allocators
  84:D:/msys64/mingw64/include/c++/10.1.0/bits\alloc_traits.h ****   */
  85:D:/msys64/mingw64/include/c++/10.1.0/bits\alloc_traits.h ****   template<typename _Alloc>
  86:D:/msys64/mingw64/include/c++/10.1.0/bits\alloc_traits.h ****     struct allocator_traits : __allocator_traits_base
  87:D:/msys64/mingw64/include/c++/10.1.0/bits\alloc_traits.h ****     {
  88:D:/msys64/mingw64/include/c++/10.1.0/bits\alloc_traits.h ****       /// The allocator type
  89:D:/msys64/mingw64/include/c++/10.1.0/bits\alloc_traits.h ****       typedef _Alloc allocator_type;
  90:D:/msys64/mingw64/include/c++/10.1.0/bits\alloc_traits.h ****       /// The allocated type
  91:D:/msys64/mingw64/include/c++/10.1.0/bits\alloc_traits.h ****       typedef typename _Alloc::value_type value_type;
  92:D:/msys64/mingw64/include/c++/10.1.0/bits\alloc_traits.h **** 
  93:D:/msys64/mingw64/include/c++/10.1.0/bits\alloc_traits.h ****       /**
  94:D:/msys64/mingw64/include/c++/10.1.0/bits\alloc_traits.h ****        * @brief   The allocator's pointer type.
  95:D:/msys64/mingw64/include/c++/10.1.0/bits\alloc_traits.h ****        *
GAS LISTING C:\Users\Ilya\AppData\Local\Temp\ccxaKDG8.s 			page 25


  96:D:/msys64/mingw64/include/c++/10.1.0/bits\alloc_traits.h ****        * @c Alloc::pointer if that type exists, otherwise @c value_type*
  97:D:/msys64/mingw64/include/c++/10.1.0/bits\alloc_traits.h ****       */
  98:D:/msys64/mingw64/include/c++/10.1.0/bits\alloc_traits.h ****       using pointer = __detected_or_t<value_type*, __pointer, _Alloc>;
  99:D:/msys64/mingw64/include/c++/10.1.0/bits\alloc_traits.h **** 
 100:D:/msys64/mingw64/include/c++/10.1.0/bits\alloc_traits.h ****     private:
 101:D:/msys64/mingw64/include/c++/10.1.0/bits\alloc_traits.h ****       // Select _Func<_Alloc> or pointer_traits<pointer>::rebind<_Tp>
 102:D:/msys64/mingw64/include/c++/10.1.0/bits\alloc_traits.h ****       template<template<typename> class _Func, typename _Tp, typename = void>
 103:D:/msys64/mingw64/include/c++/10.1.0/bits\alloc_traits.h **** 	struct _Ptr
 104:D:/msys64/mingw64/include/c++/10.1.0/bits\alloc_traits.h **** 	{
 105:D:/msys64/mingw64/include/c++/10.1.0/bits\alloc_traits.h **** 	  using type = typename pointer_traits<pointer>::template rebind<_Tp>;
 106:D:/msys64/mingw64/include/c++/10.1.0/bits\alloc_traits.h **** 	};
 107:D:/msys64/mingw64/include/c++/10.1.0/bits\alloc_traits.h **** 
 108:D:/msys64/mingw64/include/c++/10.1.0/bits\alloc_traits.h ****       template<template<typename> class _Func, typename _Tp>
 109:D:/msys64/mingw64/include/c++/10.1.0/bits\alloc_traits.h **** 	struct _Ptr<_Func, _Tp, __void_t<_Func<_Alloc>>>
 110:D:/msys64/mingw64/include/c++/10.1.0/bits\alloc_traits.h **** 	{
 111:D:/msys64/mingw64/include/c++/10.1.0/bits\alloc_traits.h **** 	  using type = _Func<_Alloc>;
 112:D:/msys64/mingw64/include/c++/10.1.0/bits\alloc_traits.h **** 	};
 113:D:/msys64/mingw64/include/c++/10.1.0/bits\alloc_traits.h **** 
 114:D:/msys64/mingw64/include/c++/10.1.0/bits\alloc_traits.h ****       // Select _A2::difference_type or pointer_traits<_Ptr>::difference_type
 115:D:/msys64/mingw64/include/c++/10.1.0/bits\alloc_traits.h ****       template<typename _A2, typename _PtrT, typename = void>
 116:D:/msys64/mingw64/include/c++/10.1.0/bits\alloc_traits.h **** 	struct _Diff
 117:D:/msys64/mingw64/include/c++/10.1.0/bits\alloc_traits.h **** 	{ using type = typename pointer_traits<_PtrT>::difference_type; };
 118:D:/msys64/mingw64/include/c++/10.1.0/bits\alloc_traits.h **** 
 119:D:/msys64/mingw64/include/c++/10.1.0/bits\alloc_traits.h ****       template<typename _A2, typename _PtrT>
 120:D:/msys64/mingw64/include/c++/10.1.0/bits\alloc_traits.h **** 	struct _Diff<_A2, _PtrT, __void_t<typename _A2::difference_type>>
 121:D:/msys64/mingw64/include/c++/10.1.0/bits\alloc_traits.h **** 	{ using type = typename _A2::difference_type; };
 122:D:/msys64/mingw64/include/c++/10.1.0/bits\alloc_traits.h **** 
 123:D:/msys64/mingw64/include/c++/10.1.0/bits\alloc_traits.h ****       // Select _A2::size_type or make_unsigned<_DiffT>::type
 124:D:/msys64/mingw64/include/c++/10.1.0/bits\alloc_traits.h ****       template<typename _A2, typename _DiffT, typename = void>
 125:D:/msys64/mingw64/include/c++/10.1.0/bits\alloc_traits.h **** 	struct _Size : make_unsigned<_DiffT> { };
 126:D:/msys64/mingw64/include/c++/10.1.0/bits\alloc_traits.h **** 
 127:D:/msys64/mingw64/include/c++/10.1.0/bits\alloc_traits.h ****       template<typename _A2, typename _DiffT>
 128:D:/msys64/mingw64/include/c++/10.1.0/bits\alloc_traits.h **** 	struct _Size<_A2, _DiffT, __void_t<typename _A2::size_type>>
 129:D:/msys64/mingw64/include/c++/10.1.0/bits\alloc_traits.h **** 	{ using type = typename _A2::size_type; };
 130:D:/msys64/mingw64/include/c++/10.1.0/bits\alloc_traits.h **** 
 131:D:/msys64/mingw64/include/c++/10.1.0/bits\alloc_traits.h ****     public:
 132:D:/msys64/mingw64/include/c++/10.1.0/bits\alloc_traits.h ****       /**
 133:D:/msys64/mingw64/include/c++/10.1.0/bits\alloc_traits.h ****        * @brief   The allocator's const pointer type.
 134:D:/msys64/mingw64/include/c++/10.1.0/bits\alloc_traits.h ****        *
 135:D:/msys64/mingw64/include/c++/10.1.0/bits\alloc_traits.h ****        * @c Alloc::const_pointer if that type exists, otherwise
 136:D:/msys64/mingw64/include/c++/10.1.0/bits\alloc_traits.h ****        * <tt> pointer_traits<pointer>::rebind<const value_type> </tt>
 137:D:/msys64/mingw64/include/c++/10.1.0/bits\alloc_traits.h ****       */
 138:D:/msys64/mingw64/include/c++/10.1.0/bits\alloc_traits.h ****       using const_pointer = typename _Ptr<__c_pointer, const value_type>::type;
 139:D:/msys64/mingw64/include/c++/10.1.0/bits\alloc_traits.h **** 
 140:D:/msys64/mingw64/include/c++/10.1.0/bits\alloc_traits.h ****       /**
 141:D:/msys64/mingw64/include/c++/10.1.0/bits\alloc_traits.h ****        * @brief   The allocator's void pointer type.
 142:D:/msys64/mingw64/include/c++/10.1.0/bits\alloc_traits.h ****        *
 143:D:/msys64/mingw64/include/c++/10.1.0/bits\alloc_traits.h ****        * @c Alloc::void_pointer if that type exists, otherwise
 144:D:/msys64/mingw64/include/c++/10.1.0/bits\alloc_traits.h ****        * <tt> pointer_traits<pointer>::rebind<void> </tt>
 145:D:/msys64/mingw64/include/c++/10.1.0/bits\alloc_traits.h ****       */
 146:D:/msys64/mingw64/include/c++/10.1.0/bits\alloc_traits.h ****       using void_pointer = typename _Ptr<__v_pointer, void>::type;
 147:D:/msys64/mingw64/include/c++/10.1.0/bits\alloc_traits.h **** 
 148:D:/msys64/mingw64/include/c++/10.1.0/bits\alloc_traits.h ****       /**
 149:D:/msys64/mingw64/include/c++/10.1.0/bits\alloc_traits.h ****        * @brief   The allocator's const void pointer type.
 150:D:/msys64/mingw64/include/c++/10.1.0/bits\alloc_traits.h ****        *
 151:D:/msys64/mingw64/include/c++/10.1.0/bits\alloc_traits.h ****        * @c Alloc::const_void_pointer if that type exists, otherwise
 152:D:/msys64/mingw64/include/c++/10.1.0/bits\alloc_traits.h ****        * <tt> pointer_traits<pointer>::rebind<const void> </tt>
GAS LISTING C:\Users\Ilya\AppData\Local\Temp\ccxaKDG8.s 			page 26


 153:D:/msys64/mingw64/include/c++/10.1.0/bits\alloc_traits.h ****       */
 154:D:/msys64/mingw64/include/c++/10.1.0/bits\alloc_traits.h ****       using const_void_pointer = typename _Ptr<__cv_pointer, const void>::type;
 155:D:/msys64/mingw64/include/c++/10.1.0/bits\alloc_traits.h **** 
 156:D:/msys64/mingw64/include/c++/10.1.0/bits\alloc_traits.h ****       /**
 157:D:/msys64/mingw64/include/c++/10.1.0/bits\alloc_traits.h ****        * @brief   The allocator's difference type
 158:D:/msys64/mingw64/include/c++/10.1.0/bits\alloc_traits.h ****        *
 159:D:/msys64/mingw64/include/c++/10.1.0/bits\alloc_traits.h ****        * @c Alloc::difference_type if that type exists, otherwise
 160:D:/msys64/mingw64/include/c++/10.1.0/bits\alloc_traits.h ****        * <tt> pointer_traits<pointer>::difference_type </tt>
 161:D:/msys64/mingw64/include/c++/10.1.0/bits\alloc_traits.h ****       */
 162:D:/msys64/mingw64/include/c++/10.1.0/bits\alloc_traits.h ****       using difference_type = typename _Diff<_Alloc, pointer>::type;
 163:D:/msys64/mingw64/include/c++/10.1.0/bits\alloc_traits.h **** 
 164:D:/msys64/mingw64/include/c++/10.1.0/bits\alloc_traits.h ****       /**
 165:D:/msys64/mingw64/include/c++/10.1.0/bits\alloc_traits.h ****        * @brief   The allocator's size type
 166:D:/msys64/mingw64/include/c++/10.1.0/bits\alloc_traits.h ****        *
 167:D:/msys64/mingw64/include/c++/10.1.0/bits\alloc_traits.h ****        * @c Alloc::size_type if that type exists, otherwise
 168:D:/msys64/mingw64/include/c++/10.1.0/bits\alloc_traits.h ****        * <tt> make_unsigned<difference_type>::type </tt>
 169:D:/msys64/mingw64/include/c++/10.1.0/bits\alloc_traits.h ****       */
 170:D:/msys64/mingw64/include/c++/10.1.0/bits\alloc_traits.h ****       using size_type = typename _Size<_Alloc, difference_type>::type;
 171:D:/msys64/mingw64/include/c++/10.1.0/bits\alloc_traits.h **** 
 172:D:/msys64/mingw64/include/c++/10.1.0/bits\alloc_traits.h ****       /**
 173:D:/msys64/mingw64/include/c++/10.1.0/bits\alloc_traits.h ****        * @brief   How the allocator is propagated on copy assignment
 174:D:/msys64/mingw64/include/c++/10.1.0/bits\alloc_traits.h ****        *
 175:D:/msys64/mingw64/include/c++/10.1.0/bits\alloc_traits.h ****        * @c Alloc::propagate_on_container_copy_assignment if that type exists,
 176:D:/msys64/mingw64/include/c++/10.1.0/bits\alloc_traits.h ****        * otherwise @c false_type
 177:D:/msys64/mingw64/include/c++/10.1.0/bits\alloc_traits.h ****       */
 178:D:/msys64/mingw64/include/c++/10.1.0/bits\alloc_traits.h ****       using propagate_on_container_copy_assignment
 179:D:/msys64/mingw64/include/c++/10.1.0/bits\alloc_traits.h **** 	= __detected_or_t<false_type, __pocca, _Alloc>;
 180:D:/msys64/mingw64/include/c++/10.1.0/bits\alloc_traits.h **** 
 181:D:/msys64/mingw64/include/c++/10.1.0/bits\alloc_traits.h ****       /**
 182:D:/msys64/mingw64/include/c++/10.1.0/bits\alloc_traits.h ****        * @brief   How the allocator is propagated on move assignment
 183:D:/msys64/mingw64/include/c++/10.1.0/bits\alloc_traits.h ****        *
 184:D:/msys64/mingw64/include/c++/10.1.0/bits\alloc_traits.h ****        * @c Alloc::propagate_on_container_move_assignment if that type exists,
 185:D:/msys64/mingw64/include/c++/10.1.0/bits\alloc_traits.h ****        * otherwise @c false_type
 186:D:/msys64/mingw64/include/c++/10.1.0/bits\alloc_traits.h ****       */
 187:D:/msys64/mingw64/include/c++/10.1.0/bits\alloc_traits.h ****       using propagate_on_container_move_assignment
 188:D:/msys64/mingw64/include/c++/10.1.0/bits\alloc_traits.h **** 	= __detected_or_t<false_type, __pocma, _Alloc>;
 189:D:/msys64/mingw64/include/c++/10.1.0/bits\alloc_traits.h **** 
 190:D:/msys64/mingw64/include/c++/10.1.0/bits\alloc_traits.h ****       /**
 191:D:/msys64/mingw64/include/c++/10.1.0/bits\alloc_traits.h ****        * @brief   How the allocator is propagated on swap
 192:D:/msys64/mingw64/include/c++/10.1.0/bits\alloc_traits.h ****        *
 193:D:/msys64/mingw64/include/c++/10.1.0/bits\alloc_traits.h ****        * @c Alloc::propagate_on_container_swap if that type exists,
 194:D:/msys64/mingw64/include/c++/10.1.0/bits\alloc_traits.h ****        * otherwise @c false_type
 195:D:/msys64/mingw64/include/c++/10.1.0/bits\alloc_traits.h ****       */
 196:D:/msys64/mingw64/include/c++/10.1.0/bits\alloc_traits.h ****       using propagate_on_container_swap
 197:D:/msys64/mingw64/include/c++/10.1.0/bits\alloc_traits.h **** 	= __detected_or_t<false_type, __pocs, _Alloc>;
 198:D:/msys64/mingw64/include/c++/10.1.0/bits\alloc_traits.h **** 
 199:D:/msys64/mingw64/include/c++/10.1.0/bits\alloc_traits.h ****       /**
 200:D:/msys64/mingw64/include/c++/10.1.0/bits\alloc_traits.h ****        * @brief   Whether all instances of the allocator type compare equal.
 201:D:/msys64/mingw64/include/c++/10.1.0/bits\alloc_traits.h ****        *
 202:D:/msys64/mingw64/include/c++/10.1.0/bits\alloc_traits.h ****        * @c Alloc::is_always_equal if that type exists,
 203:D:/msys64/mingw64/include/c++/10.1.0/bits\alloc_traits.h ****        * otherwise @c is_empty<Alloc>::type
 204:D:/msys64/mingw64/include/c++/10.1.0/bits\alloc_traits.h ****       */
 205:D:/msys64/mingw64/include/c++/10.1.0/bits\alloc_traits.h ****       using is_always_equal
 206:D:/msys64/mingw64/include/c++/10.1.0/bits\alloc_traits.h **** 	= __detected_or_t<typename is_empty<_Alloc>::type, __equal, _Alloc>;
 207:D:/msys64/mingw64/include/c++/10.1.0/bits\alloc_traits.h **** 
 208:D:/msys64/mingw64/include/c++/10.1.0/bits\alloc_traits.h ****       template<typename _Tp>
 209:D:/msys64/mingw64/include/c++/10.1.0/bits\alloc_traits.h **** 	using rebind_alloc = __alloc_rebind<_Alloc, _Tp>;
GAS LISTING C:\Users\Ilya\AppData\Local\Temp\ccxaKDG8.s 			page 27


 210:D:/msys64/mingw64/include/c++/10.1.0/bits\alloc_traits.h ****       template<typename _Tp>
 211:D:/msys64/mingw64/include/c++/10.1.0/bits\alloc_traits.h **** 	using rebind_traits = allocator_traits<rebind_alloc<_Tp>>;
 212:D:/msys64/mingw64/include/c++/10.1.0/bits\alloc_traits.h **** 
 213:D:/msys64/mingw64/include/c++/10.1.0/bits\alloc_traits.h ****     private:
 214:D:/msys64/mingw64/include/c++/10.1.0/bits\alloc_traits.h ****       template<typename _Alloc2>
 215:D:/msys64/mingw64/include/c++/10.1.0/bits\alloc_traits.h **** 	static constexpr auto
 216:D:/msys64/mingw64/include/c++/10.1.0/bits\alloc_traits.h **** 	_S_allocate(_Alloc2& __a, size_type __n, const_void_pointer __hint, int)
 217:D:/msys64/mingw64/include/c++/10.1.0/bits\alloc_traits.h **** 	-> decltype(__a.allocate(__n, __hint))
 218:D:/msys64/mingw64/include/c++/10.1.0/bits\alloc_traits.h **** 	{ return __a.allocate(__n, __hint); }
 219:D:/msys64/mingw64/include/c++/10.1.0/bits\alloc_traits.h **** 
 220:D:/msys64/mingw64/include/c++/10.1.0/bits\alloc_traits.h ****       template<typename _Alloc2>
 221:D:/msys64/mingw64/include/c++/10.1.0/bits\alloc_traits.h **** 	static constexpr pointer
 222:D:/msys64/mingw64/include/c++/10.1.0/bits\alloc_traits.h **** 	_S_allocate(_Alloc2& __a, size_type __n, const_void_pointer, ...)
 223:D:/msys64/mingw64/include/c++/10.1.0/bits\alloc_traits.h **** 	{ return __a.allocate(__n); }
 224:D:/msys64/mingw64/include/c++/10.1.0/bits\alloc_traits.h **** 
 225:D:/msys64/mingw64/include/c++/10.1.0/bits\alloc_traits.h ****       template<typename _Tp, typename... _Args>
 226:D:/msys64/mingw64/include/c++/10.1.0/bits\alloc_traits.h **** 	struct __construct_helper
 227:D:/msys64/mingw64/include/c++/10.1.0/bits\alloc_traits.h **** 	{
 228:D:/msys64/mingw64/include/c++/10.1.0/bits\alloc_traits.h **** 	  template<typename _Alloc2,
 229:D:/msys64/mingw64/include/c++/10.1.0/bits\alloc_traits.h **** 	    typename = decltype(std::declval<_Alloc2*>()->construct(
 230:D:/msys64/mingw64/include/c++/10.1.0/bits\alloc_traits.h **** 		  std::declval<_Tp*>(), std::declval<_Args>()...))>
 231:D:/msys64/mingw64/include/c++/10.1.0/bits\alloc_traits.h **** 	    static true_type __test(int);
 232:D:/msys64/mingw64/include/c++/10.1.0/bits\alloc_traits.h **** 
 233:D:/msys64/mingw64/include/c++/10.1.0/bits\alloc_traits.h **** 	  template<typename>
 234:D:/msys64/mingw64/include/c++/10.1.0/bits\alloc_traits.h **** 	    static false_type __test(...);
 235:D:/msys64/mingw64/include/c++/10.1.0/bits\alloc_traits.h **** 
 236:D:/msys64/mingw64/include/c++/10.1.0/bits\alloc_traits.h **** 	  using type = decltype(__test<_Alloc>(0));
 237:D:/msys64/mingw64/include/c++/10.1.0/bits\alloc_traits.h **** 	};
 238:D:/msys64/mingw64/include/c++/10.1.0/bits\alloc_traits.h **** 
 239:D:/msys64/mingw64/include/c++/10.1.0/bits\alloc_traits.h ****       template<typename _Tp, typename... _Args>
 240:D:/msys64/mingw64/include/c++/10.1.0/bits\alloc_traits.h **** 	using __has_construct
 241:D:/msys64/mingw64/include/c++/10.1.0/bits\alloc_traits.h **** 	  = typename __construct_helper<_Tp, _Args...>::type;
 242:D:/msys64/mingw64/include/c++/10.1.0/bits\alloc_traits.h **** 
 243:D:/msys64/mingw64/include/c++/10.1.0/bits\alloc_traits.h ****       template<typename _Tp, typename... _Args>
 244:D:/msys64/mingw64/include/c++/10.1.0/bits\alloc_traits.h **** 	static _GLIBCXX14_CONSTEXPR _Require<__has_construct<_Tp, _Args...>>
 245:D:/msys64/mingw64/include/c++/10.1.0/bits\alloc_traits.h **** 	_S_construct(_Alloc& __a, _Tp* __p, _Args&&... __args)
 246:D:/msys64/mingw64/include/c++/10.1.0/bits\alloc_traits.h **** 	noexcept(noexcept(__a.construct(__p, std::forward<_Args>(__args)...)))
 247:D:/msys64/mingw64/include/c++/10.1.0/bits\alloc_traits.h **** 	{ __a.construct(__p, std::forward<_Args>(__args)...); }
 248:D:/msys64/mingw64/include/c++/10.1.0/bits\alloc_traits.h **** 
 249:D:/msys64/mingw64/include/c++/10.1.0/bits\alloc_traits.h ****       template<typename _Tp, typename... _Args>
 250:D:/msys64/mingw64/include/c++/10.1.0/bits\alloc_traits.h **** 	static _GLIBCXX14_CONSTEXPR
 251:D:/msys64/mingw64/include/c++/10.1.0/bits\alloc_traits.h **** 	_Require<__and_<__not_<__has_construct<_Tp, _Args...>>,
 252:D:/msys64/mingw64/include/c++/10.1.0/bits\alloc_traits.h **** 			       is_constructible<_Tp, _Args...>>>
 253:D:/msys64/mingw64/include/c++/10.1.0/bits\alloc_traits.h **** 	_S_construct(_Alloc&, _Tp* __p, _Args&&... __args)
 254:D:/msys64/mingw64/include/c++/10.1.0/bits\alloc_traits.h **** 	noexcept(std::is_nothrow_constructible<_Tp, _Args...>::value)
 255:D:/msys64/mingw64/include/c++/10.1.0/bits\alloc_traits.h **** 	{
 256:D:/msys64/mingw64/include/c++/10.1.0/bits\alloc_traits.h **** #if __cplusplus <= 201703L
 257:D:/msys64/mingw64/include/c++/10.1.0/bits\alloc_traits.h **** 	  ::new((void*)__p) _Tp(std::forward<_Args>(__args)...);
 258:D:/msys64/mingw64/include/c++/10.1.0/bits\alloc_traits.h **** #else
 259:D:/msys64/mingw64/include/c++/10.1.0/bits\alloc_traits.h **** 	  std::construct_at(__p, std::forward<_Args>(__args)...);
 260:D:/msys64/mingw64/include/c++/10.1.0/bits\alloc_traits.h **** #endif
 261:D:/msys64/mingw64/include/c++/10.1.0/bits\alloc_traits.h **** 	}
 262:D:/msys64/mingw64/include/c++/10.1.0/bits\alloc_traits.h **** 
 263:D:/msys64/mingw64/include/c++/10.1.0/bits\alloc_traits.h ****       template<typename _Alloc2, typename _Tp>
 264:D:/msys64/mingw64/include/c++/10.1.0/bits\alloc_traits.h **** 	static _GLIBCXX14_CONSTEXPR auto
 265:D:/msys64/mingw64/include/c++/10.1.0/bits\alloc_traits.h **** 	_S_destroy(_Alloc2& __a, _Tp* __p, int)
 266:D:/msys64/mingw64/include/c++/10.1.0/bits\alloc_traits.h **** 	noexcept(noexcept(__a.destroy(__p)))
GAS LISTING C:\Users\Ilya\AppData\Local\Temp\ccxaKDG8.s 			page 28


 267:D:/msys64/mingw64/include/c++/10.1.0/bits\alloc_traits.h **** 	-> decltype(__a.destroy(__p))
 268:D:/msys64/mingw64/include/c++/10.1.0/bits\alloc_traits.h **** 	{ __a.destroy(__p); }
 269:D:/msys64/mingw64/include/c++/10.1.0/bits\alloc_traits.h **** 
 270:D:/msys64/mingw64/include/c++/10.1.0/bits\alloc_traits.h ****       template<typename _Alloc2, typename _Tp>
 271:D:/msys64/mingw64/include/c++/10.1.0/bits\alloc_traits.h **** 	static _GLIBCXX14_CONSTEXPR void
 272:D:/msys64/mingw64/include/c++/10.1.0/bits\alloc_traits.h **** 	_S_destroy(_Alloc2&, _Tp* __p, ...)
 273:D:/msys64/mingw64/include/c++/10.1.0/bits\alloc_traits.h **** 	noexcept(std::is_nothrow_destructible<_Tp>::value)
 274:D:/msys64/mingw64/include/c++/10.1.0/bits\alloc_traits.h **** 	{ std::_Destroy(__p); }
 275:D:/msys64/mingw64/include/c++/10.1.0/bits\alloc_traits.h **** 
 276:D:/msys64/mingw64/include/c++/10.1.0/bits\alloc_traits.h ****       template<typename _Alloc2>
 277:D:/msys64/mingw64/include/c++/10.1.0/bits\alloc_traits.h **** 	static constexpr auto
 278:D:/msys64/mingw64/include/c++/10.1.0/bits\alloc_traits.h **** 	_S_max_size(_Alloc2& __a, int)
 279:D:/msys64/mingw64/include/c++/10.1.0/bits\alloc_traits.h **** 	-> decltype(__a.max_size())
 280:D:/msys64/mingw64/include/c++/10.1.0/bits\alloc_traits.h **** 	{ return __a.max_size(); }
 281:D:/msys64/mingw64/include/c++/10.1.0/bits\alloc_traits.h **** 
 282:D:/msys64/mingw64/include/c++/10.1.0/bits\alloc_traits.h ****       template<typename _Alloc2>
 283:D:/msys64/mingw64/include/c++/10.1.0/bits\alloc_traits.h **** 	static constexpr size_type
 284:D:/msys64/mingw64/include/c++/10.1.0/bits\alloc_traits.h **** 	_S_max_size(_Alloc2&, ...)
 285:D:/msys64/mingw64/include/c++/10.1.0/bits\alloc_traits.h **** 	{
 286:D:/msys64/mingw64/include/c++/10.1.0/bits\alloc_traits.h **** 	  // _GLIBCXX_RESOLVE_LIB_DEFECTS
 287:D:/msys64/mingw64/include/c++/10.1.0/bits\alloc_traits.h **** 	  // 2466. allocator_traits::max_size() default behavior is incorrect
 288:D:/msys64/mingw64/include/c++/10.1.0/bits\alloc_traits.h **** 	  return __gnu_cxx::__numeric_traits<size_type>::__max
 289:D:/msys64/mingw64/include/c++/10.1.0/bits\alloc_traits.h **** 	    / sizeof(value_type);
 290:D:/msys64/mingw64/include/c++/10.1.0/bits\alloc_traits.h **** 	}
 291:D:/msys64/mingw64/include/c++/10.1.0/bits\alloc_traits.h **** 
 292:D:/msys64/mingw64/include/c++/10.1.0/bits\alloc_traits.h ****       template<typename _Alloc2>
 293:D:/msys64/mingw64/include/c++/10.1.0/bits\alloc_traits.h **** 	static constexpr auto
 294:D:/msys64/mingw64/include/c++/10.1.0/bits\alloc_traits.h **** 	_S_select(_Alloc2& __a, int)
 295:D:/msys64/mingw64/include/c++/10.1.0/bits\alloc_traits.h **** 	-> decltype(__a.select_on_container_copy_construction())
 296:D:/msys64/mingw64/include/c++/10.1.0/bits\alloc_traits.h **** 	{ return __a.select_on_container_copy_construction(); }
 297:D:/msys64/mingw64/include/c++/10.1.0/bits\alloc_traits.h **** 
 298:D:/msys64/mingw64/include/c++/10.1.0/bits\alloc_traits.h ****       template<typename _Alloc2>
 299:D:/msys64/mingw64/include/c++/10.1.0/bits\alloc_traits.h **** 	static constexpr _Alloc2
 300:D:/msys64/mingw64/include/c++/10.1.0/bits\alloc_traits.h **** 	_S_select(_Alloc2& __a, ...)
 301:D:/msys64/mingw64/include/c++/10.1.0/bits\alloc_traits.h **** 	{ return __a; }
 302:D:/msys64/mingw64/include/c++/10.1.0/bits\alloc_traits.h **** 
 303:D:/msys64/mingw64/include/c++/10.1.0/bits\alloc_traits.h ****     public:
 304:D:/msys64/mingw64/include/c++/10.1.0/bits\alloc_traits.h **** 
 305:D:/msys64/mingw64/include/c++/10.1.0/bits\alloc_traits.h ****       /**
 306:D:/msys64/mingw64/include/c++/10.1.0/bits\alloc_traits.h ****        *  @brief  Allocate memory.
 307:D:/msys64/mingw64/include/c++/10.1.0/bits\alloc_traits.h ****        *  @param  __a  An allocator.
 308:D:/msys64/mingw64/include/c++/10.1.0/bits\alloc_traits.h ****        *  @param  __n  The number of objects to allocate space for.
 309:D:/msys64/mingw64/include/c++/10.1.0/bits\alloc_traits.h ****        *
 310:D:/msys64/mingw64/include/c++/10.1.0/bits\alloc_traits.h ****        *  Calls @c a.allocate(n)
 311:D:/msys64/mingw64/include/c++/10.1.0/bits\alloc_traits.h ****       */
 312:D:/msys64/mingw64/include/c++/10.1.0/bits\alloc_traits.h ****       _GLIBCXX_NODISCARD static _GLIBCXX20_CONSTEXPR pointer
 313:D:/msys64/mingw64/include/c++/10.1.0/bits\alloc_traits.h ****       allocate(_Alloc& __a, size_type __n)
 314:D:/msys64/mingw64/include/c++/10.1.0/bits\alloc_traits.h ****       { return __a.allocate(__n); }
 315:D:/msys64/mingw64/include/c++/10.1.0/bits\alloc_traits.h **** 
 316:D:/msys64/mingw64/include/c++/10.1.0/bits\alloc_traits.h ****       /**
 317:D:/msys64/mingw64/include/c++/10.1.0/bits\alloc_traits.h ****        *  @brief  Allocate memory.
 318:D:/msys64/mingw64/include/c++/10.1.0/bits\alloc_traits.h ****        *  @param  __a  An allocator.
 319:D:/msys64/mingw64/include/c++/10.1.0/bits\alloc_traits.h ****        *  @param  __n  The number of objects to allocate space for.
 320:D:/msys64/mingw64/include/c++/10.1.0/bits\alloc_traits.h ****        *  @param  __hint Aid to locality.
 321:D:/msys64/mingw64/include/c++/10.1.0/bits\alloc_traits.h ****        *  @return Memory of suitable size and alignment for @a n objects
 322:D:/msys64/mingw64/include/c++/10.1.0/bits\alloc_traits.h ****        *          of type @c value_type
 323:D:/msys64/mingw64/include/c++/10.1.0/bits\alloc_traits.h ****        *
GAS LISTING C:\Users\Ilya\AppData\Local\Temp\ccxaKDG8.s 			page 29


 324:D:/msys64/mingw64/include/c++/10.1.0/bits\alloc_traits.h ****        *  Returns <tt> a.allocate(n, hint) </tt> if that expression is
 325:D:/msys64/mingw64/include/c++/10.1.0/bits\alloc_traits.h ****        *  well-formed, otherwise returns @c a.allocate(n)
 326:D:/msys64/mingw64/include/c++/10.1.0/bits\alloc_traits.h ****       */
 327:D:/msys64/mingw64/include/c++/10.1.0/bits\alloc_traits.h ****       _GLIBCXX_NODISCARD static _GLIBCXX20_CONSTEXPR pointer
 328:D:/msys64/mingw64/include/c++/10.1.0/bits\alloc_traits.h ****       allocate(_Alloc& __a, size_type __n, const_void_pointer __hint)
 329:D:/msys64/mingw64/include/c++/10.1.0/bits\alloc_traits.h ****       { return _S_allocate(__a, __n, __hint, 0); }
 330:D:/msys64/mingw64/include/c++/10.1.0/bits\alloc_traits.h **** 
 331:D:/msys64/mingw64/include/c++/10.1.0/bits\alloc_traits.h ****       /**
 332:D:/msys64/mingw64/include/c++/10.1.0/bits\alloc_traits.h ****        *  @brief  Deallocate memory.
 333:D:/msys64/mingw64/include/c++/10.1.0/bits\alloc_traits.h ****        *  @param  __a  An allocator.
 334:D:/msys64/mingw64/include/c++/10.1.0/bits\alloc_traits.h ****        *  @param  __p  Pointer to the memory to deallocate.
 335:D:/msys64/mingw64/include/c++/10.1.0/bits\alloc_traits.h ****        *  @param  __n  The number of objects space was allocated for.
 336:D:/msys64/mingw64/include/c++/10.1.0/bits\alloc_traits.h ****        *
 337:D:/msys64/mingw64/include/c++/10.1.0/bits\alloc_traits.h ****        *  Calls <tt> a.deallocate(p, n) </tt>
 338:D:/msys64/mingw64/include/c++/10.1.0/bits\alloc_traits.h ****       */
 339:D:/msys64/mingw64/include/c++/10.1.0/bits\alloc_traits.h ****       static _GLIBCXX20_CONSTEXPR void
 340:D:/msys64/mingw64/include/c++/10.1.0/bits\alloc_traits.h ****       deallocate(_Alloc& __a, pointer __p, size_type __n)
 341:D:/msys64/mingw64/include/c++/10.1.0/bits\alloc_traits.h ****       { __a.deallocate(__p, __n); }
 342:D:/msys64/mingw64/include/c++/10.1.0/bits\alloc_traits.h **** 
 343:D:/msys64/mingw64/include/c++/10.1.0/bits\alloc_traits.h ****       /**
 344:D:/msys64/mingw64/include/c++/10.1.0/bits\alloc_traits.h ****        *  @brief  Construct an object of type @a _Tp
 345:D:/msys64/mingw64/include/c++/10.1.0/bits\alloc_traits.h ****        *  @param  __a  An allocator.
 346:D:/msys64/mingw64/include/c++/10.1.0/bits\alloc_traits.h ****        *  @param  __p  Pointer to memory of suitable size and alignment for Tp
 347:D:/msys64/mingw64/include/c++/10.1.0/bits\alloc_traits.h ****        *  @param  __args Constructor arguments.
 348:D:/msys64/mingw64/include/c++/10.1.0/bits\alloc_traits.h ****        *
 349:D:/msys64/mingw64/include/c++/10.1.0/bits\alloc_traits.h ****        *  Calls <tt> __a.construct(__p, std::forward<Args>(__args)...) </tt>
 350:D:/msys64/mingw64/include/c++/10.1.0/bits\alloc_traits.h ****        *  if that expression is well-formed, otherwise uses placement-new
 351:D:/msys64/mingw64/include/c++/10.1.0/bits\alloc_traits.h ****        *  to construct an object of type @a _Tp at location @a __p from the
 352:D:/msys64/mingw64/include/c++/10.1.0/bits\alloc_traits.h ****        *  arguments @a __args...
 353:D:/msys64/mingw64/include/c++/10.1.0/bits\alloc_traits.h ****       */
 354:D:/msys64/mingw64/include/c++/10.1.0/bits\alloc_traits.h ****       template<typename _Tp, typename... _Args>
 355:D:/msys64/mingw64/include/c++/10.1.0/bits\alloc_traits.h **** 	static _GLIBCXX20_CONSTEXPR auto
 356:D:/msys64/mingw64/include/c++/10.1.0/bits\alloc_traits.h **** 	construct(_Alloc& __a, _Tp* __p, _Args&&... __args)
 357:D:/msys64/mingw64/include/c++/10.1.0/bits\alloc_traits.h **** 	noexcept(noexcept(_S_construct(__a, __p,
 358:D:/msys64/mingw64/include/c++/10.1.0/bits\alloc_traits.h **** 				       std::forward<_Args>(__args)...)))
 359:D:/msys64/mingw64/include/c++/10.1.0/bits\alloc_traits.h **** 	-> decltype(_S_construct(__a, __p, std::forward<_Args>(__args)...))
 360:D:/msys64/mingw64/include/c++/10.1.0/bits\alloc_traits.h **** 	{ _S_construct(__a, __p, std::forward<_Args>(__args)...); }
 361:D:/msys64/mingw64/include/c++/10.1.0/bits\alloc_traits.h **** 
 362:D:/msys64/mingw64/include/c++/10.1.0/bits\alloc_traits.h ****       /**
 363:D:/msys64/mingw64/include/c++/10.1.0/bits\alloc_traits.h ****        *  @brief  Destroy an object of type @a _Tp
 364:D:/msys64/mingw64/include/c++/10.1.0/bits\alloc_traits.h ****        *  @param  __a  An allocator.
 365:D:/msys64/mingw64/include/c++/10.1.0/bits\alloc_traits.h ****        *  @param  __p  Pointer to the object to destroy
 366:D:/msys64/mingw64/include/c++/10.1.0/bits\alloc_traits.h ****        *
 367:D:/msys64/mingw64/include/c++/10.1.0/bits\alloc_traits.h ****        *  Calls @c __a.destroy(__p) if that expression is well-formed,
 368:D:/msys64/mingw64/include/c++/10.1.0/bits\alloc_traits.h ****        *  otherwise calls @c __p->~_Tp()
 369:D:/msys64/mingw64/include/c++/10.1.0/bits\alloc_traits.h ****       */
 370:D:/msys64/mingw64/include/c++/10.1.0/bits\alloc_traits.h ****       template<typename _Tp>
 371:D:/msys64/mingw64/include/c++/10.1.0/bits\alloc_traits.h **** 	static _GLIBCXX20_CONSTEXPR void
 372:D:/msys64/mingw64/include/c++/10.1.0/bits\alloc_traits.h **** 	destroy(_Alloc& __a, _Tp* __p)
 373:D:/msys64/mingw64/include/c++/10.1.0/bits\alloc_traits.h **** 	noexcept(noexcept(_S_destroy(__a, __p, 0)))
 374:D:/msys64/mingw64/include/c++/10.1.0/bits\alloc_traits.h **** 	{ _S_destroy(__a, __p, 0); }
 375:D:/msys64/mingw64/include/c++/10.1.0/bits\alloc_traits.h **** 
 376:D:/msys64/mingw64/include/c++/10.1.0/bits\alloc_traits.h ****       /**
 377:D:/msys64/mingw64/include/c++/10.1.0/bits\alloc_traits.h ****        *  @brief  The maximum supported allocation size
 378:D:/msys64/mingw64/include/c++/10.1.0/bits\alloc_traits.h ****        *  @param  __a  An allocator.
 379:D:/msys64/mingw64/include/c++/10.1.0/bits\alloc_traits.h ****        *  @return @c __a.max_size() or @c numeric_limits<size_type>::max()
 380:D:/msys64/mingw64/include/c++/10.1.0/bits\alloc_traits.h ****        *
GAS LISTING C:\Users\Ilya\AppData\Local\Temp\ccxaKDG8.s 			page 30


 381:D:/msys64/mingw64/include/c++/10.1.0/bits\alloc_traits.h ****        *  Returns @c __a.max_size() if that expression is well-formed,
 382:D:/msys64/mingw64/include/c++/10.1.0/bits\alloc_traits.h ****        *  otherwise returns @c numeric_limits<size_type>::max()
 383:D:/msys64/mingw64/include/c++/10.1.0/bits\alloc_traits.h ****       */
 384:D:/msys64/mingw64/include/c++/10.1.0/bits\alloc_traits.h ****       static _GLIBCXX20_CONSTEXPR size_type
 385:D:/msys64/mingw64/include/c++/10.1.0/bits\alloc_traits.h ****       max_size(const _Alloc& __a) noexcept
 386:D:/msys64/mingw64/include/c++/10.1.0/bits\alloc_traits.h ****       { return _S_max_size(__a, 0); }
 387:D:/msys64/mingw64/include/c++/10.1.0/bits\alloc_traits.h **** 
 388:D:/msys64/mingw64/include/c++/10.1.0/bits\alloc_traits.h ****       /**
 389:D:/msys64/mingw64/include/c++/10.1.0/bits\alloc_traits.h ****        *  @brief  Obtain an allocator to use when copying a container.
 390:D:/msys64/mingw64/include/c++/10.1.0/bits\alloc_traits.h ****        *  @param  __rhs  An allocator.
 391:D:/msys64/mingw64/include/c++/10.1.0/bits\alloc_traits.h ****        *  @return @c __rhs.select_on_container_copy_construction() or @a __rhs
 392:D:/msys64/mingw64/include/c++/10.1.0/bits\alloc_traits.h ****        *
 393:D:/msys64/mingw64/include/c++/10.1.0/bits\alloc_traits.h ****        *  Returns @c __rhs.select_on_container_copy_construction() if that
 394:D:/msys64/mingw64/include/c++/10.1.0/bits\alloc_traits.h ****        *  expression is well-formed, otherwise returns @a __rhs
 395:D:/msys64/mingw64/include/c++/10.1.0/bits\alloc_traits.h ****       */
 396:D:/msys64/mingw64/include/c++/10.1.0/bits\alloc_traits.h ****       static _GLIBCXX20_CONSTEXPR _Alloc
 397:D:/msys64/mingw64/include/c++/10.1.0/bits\alloc_traits.h ****       select_on_container_copy_construction(const _Alloc& __rhs)
 398:D:/msys64/mingw64/include/c++/10.1.0/bits\alloc_traits.h ****       { return _S_select(__rhs, 0); }
 399:D:/msys64/mingw64/include/c++/10.1.0/bits\alloc_traits.h ****     };
 400:D:/msys64/mingw64/include/c++/10.1.0/bits\alloc_traits.h **** 
 401:D:/msys64/mingw64/include/c++/10.1.0/bits\alloc_traits.h **** #if __cplusplus > 201703L
 402:D:/msys64/mingw64/include/c++/10.1.0/bits\alloc_traits.h **** # define __cpp_lib_constexpr_dynamic_alloc 201907L
 403:D:/msys64/mingw64/include/c++/10.1.0/bits\alloc_traits.h **** #endif
 404:D:/msys64/mingw64/include/c++/10.1.0/bits\alloc_traits.h **** 
 405:D:/msys64/mingw64/include/c++/10.1.0/bits\alloc_traits.h ****   /// Partial specialization for std::allocator.
 406:D:/msys64/mingw64/include/c++/10.1.0/bits\alloc_traits.h ****   template<typename _Tp>
 407:D:/msys64/mingw64/include/c++/10.1.0/bits\alloc_traits.h ****     struct allocator_traits<allocator<_Tp>>
 408:D:/msys64/mingw64/include/c++/10.1.0/bits\alloc_traits.h ****     {
 409:D:/msys64/mingw64/include/c++/10.1.0/bits\alloc_traits.h ****       /// The allocator type
 410:D:/msys64/mingw64/include/c++/10.1.0/bits\alloc_traits.h ****       using allocator_type = allocator<_Tp>;
 411:D:/msys64/mingw64/include/c++/10.1.0/bits\alloc_traits.h **** 
 412:D:/msys64/mingw64/include/c++/10.1.0/bits\alloc_traits.h ****       /// The allocated type
 413:D:/msys64/mingw64/include/c++/10.1.0/bits\alloc_traits.h ****       using value_type = _Tp;
 414:D:/msys64/mingw64/include/c++/10.1.0/bits\alloc_traits.h **** 
 415:D:/msys64/mingw64/include/c++/10.1.0/bits\alloc_traits.h ****       /// The allocator's pointer type.
 416:D:/msys64/mingw64/include/c++/10.1.0/bits\alloc_traits.h ****       using pointer = _Tp*;
 417:D:/msys64/mingw64/include/c++/10.1.0/bits\alloc_traits.h **** 
 418:D:/msys64/mingw64/include/c++/10.1.0/bits\alloc_traits.h ****       /// The allocator's const pointer type.
 419:D:/msys64/mingw64/include/c++/10.1.0/bits\alloc_traits.h ****       using const_pointer = const _Tp*;
 420:D:/msys64/mingw64/include/c++/10.1.0/bits\alloc_traits.h **** 
 421:D:/msys64/mingw64/include/c++/10.1.0/bits\alloc_traits.h ****       /// The allocator's void pointer type.
 422:D:/msys64/mingw64/include/c++/10.1.0/bits\alloc_traits.h ****       using void_pointer = void*;
 423:D:/msys64/mingw64/include/c++/10.1.0/bits\alloc_traits.h **** 
 424:D:/msys64/mingw64/include/c++/10.1.0/bits\alloc_traits.h ****       /// The allocator's const void pointer type.
 425:D:/msys64/mingw64/include/c++/10.1.0/bits\alloc_traits.h ****       using const_void_pointer = const void*;
 426:D:/msys64/mingw64/include/c++/10.1.0/bits\alloc_traits.h **** 
 427:D:/msys64/mingw64/include/c++/10.1.0/bits\alloc_traits.h ****       /// The allocator's difference type
 428:D:/msys64/mingw64/include/c++/10.1.0/bits\alloc_traits.h ****       using difference_type = std::ptrdiff_t;
 429:D:/msys64/mingw64/include/c++/10.1.0/bits\alloc_traits.h **** 
 430:D:/msys64/mingw64/include/c++/10.1.0/bits\alloc_traits.h ****       /// The allocator's size type
 431:D:/msys64/mingw64/include/c++/10.1.0/bits\alloc_traits.h ****       using size_type = std::size_t;
 432:D:/msys64/mingw64/include/c++/10.1.0/bits\alloc_traits.h **** 
 433:D:/msys64/mingw64/include/c++/10.1.0/bits\alloc_traits.h ****       /// How the allocator is propagated on copy assignment
 434:D:/msys64/mingw64/include/c++/10.1.0/bits\alloc_traits.h ****       using propagate_on_container_copy_assignment = false_type;
 435:D:/msys64/mingw64/include/c++/10.1.0/bits\alloc_traits.h **** 
 436:D:/msys64/mingw64/include/c++/10.1.0/bits\alloc_traits.h ****       /// How the allocator is propagated on move assignment
 437:D:/msys64/mingw64/include/c++/10.1.0/bits\alloc_traits.h ****       using propagate_on_container_move_assignment = true_type;
GAS LISTING C:\Users\Ilya\AppData\Local\Temp\ccxaKDG8.s 			page 31


 438:D:/msys64/mingw64/include/c++/10.1.0/bits\alloc_traits.h **** 
 439:D:/msys64/mingw64/include/c++/10.1.0/bits\alloc_traits.h ****       /// How the allocator is propagated on swap
 440:D:/msys64/mingw64/include/c++/10.1.0/bits\alloc_traits.h ****       using propagate_on_container_swap = false_type;
 441:D:/msys64/mingw64/include/c++/10.1.0/bits\alloc_traits.h **** 
 442:D:/msys64/mingw64/include/c++/10.1.0/bits\alloc_traits.h ****       /// Whether all instances of the allocator type compare equal.
 443:D:/msys64/mingw64/include/c++/10.1.0/bits\alloc_traits.h ****       using is_always_equal = true_type;
 444:D:/msys64/mingw64/include/c++/10.1.0/bits\alloc_traits.h **** 
 445:D:/msys64/mingw64/include/c++/10.1.0/bits\alloc_traits.h ****       template<typename _Up>
 446:D:/msys64/mingw64/include/c++/10.1.0/bits\alloc_traits.h **** 	using rebind_alloc = allocator<_Up>;
 447:D:/msys64/mingw64/include/c++/10.1.0/bits\alloc_traits.h **** 
 448:D:/msys64/mingw64/include/c++/10.1.0/bits\alloc_traits.h ****       template<typename _Up>
 449:D:/msys64/mingw64/include/c++/10.1.0/bits\alloc_traits.h **** 	using rebind_traits = allocator_traits<allocator<_Up>>;
 450:D:/msys64/mingw64/include/c++/10.1.0/bits\alloc_traits.h **** 
 451:D:/msys64/mingw64/include/c++/10.1.0/bits\alloc_traits.h ****       /**
 452:D:/msys64/mingw64/include/c++/10.1.0/bits\alloc_traits.h ****        *  @brief  Allocate memory.
 453:D:/msys64/mingw64/include/c++/10.1.0/bits\alloc_traits.h ****        *  @param  __a  An allocator.
 454:D:/msys64/mingw64/include/c++/10.1.0/bits\alloc_traits.h ****        *  @param  __n  The number of objects to allocate space for.
 455:D:/msys64/mingw64/include/c++/10.1.0/bits\alloc_traits.h ****        *
 456:D:/msys64/mingw64/include/c++/10.1.0/bits\alloc_traits.h ****        *  Calls @c a.allocate(n)
 457:D:/msys64/mingw64/include/c++/10.1.0/bits\alloc_traits.h ****       */
 458:D:/msys64/mingw64/include/c++/10.1.0/bits\alloc_traits.h ****       _GLIBCXX_NODISCARD static _GLIBCXX20_CONSTEXPR pointer
 459:D:/msys64/mingw64/include/c++/10.1.0/bits\alloc_traits.h ****       allocate(allocator_type& __a, size_type __n)
 460:D:/msys64/mingw64/include/c++/10.1.0/bits\alloc_traits.h ****       { return __a.allocate(__n); }
 461:D:/msys64/mingw64/include/c++/10.1.0/bits\alloc_traits.h **** 
 462:D:/msys64/mingw64/include/c++/10.1.0/bits\alloc_traits.h ****       /**
 463:D:/msys64/mingw64/include/c++/10.1.0/bits\alloc_traits.h ****        *  @brief  Allocate memory.
 464:D:/msys64/mingw64/include/c++/10.1.0/bits\alloc_traits.h ****        *  @param  __a  An allocator.
 465:D:/msys64/mingw64/include/c++/10.1.0/bits\alloc_traits.h ****        *  @param  __n  The number of objects to allocate space for.
 466:D:/msys64/mingw64/include/c++/10.1.0/bits\alloc_traits.h ****        *  @param  __hint Aid to locality.
 467:D:/msys64/mingw64/include/c++/10.1.0/bits\alloc_traits.h ****        *  @return Memory of suitable size and alignment for @a n objects
 468:D:/msys64/mingw64/include/c++/10.1.0/bits\alloc_traits.h ****        *          of type @c value_type
 469:D:/msys64/mingw64/include/c++/10.1.0/bits\alloc_traits.h ****        *
 470:D:/msys64/mingw64/include/c++/10.1.0/bits\alloc_traits.h ****        *  Returns <tt> a.allocate(n, hint) </tt>
 471:D:/msys64/mingw64/include/c++/10.1.0/bits\alloc_traits.h ****       */
 472:D:/msys64/mingw64/include/c++/10.1.0/bits\alloc_traits.h ****       _GLIBCXX_NODISCARD static _GLIBCXX20_CONSTEXPR pointer
 473:D:/msys64/mingw64/include/c++/10.1.0/bits\alloc_traits.h ****       allocate(allocator_type& __a, size_type __n, const_void_pointer __hint)
 474:D:/msys64/mingw64/include/c++/10.1.0/bits\alloc_traits.h ****       {
 475:D:/msys64/mingw64/include/c++/10.1.0/bits\alloc_traits.h **** #if __cplusplus <= 201703L
 476:D:/msys64/mingw64/include/c++/10.1.0/bits\alloc_traits.h **** 	return __a.allocate(__n, __hint);
 477:D:/msys64/mingw64/include/c++/10.1.0/bits\alloc_traits.h **** #else
 478:D:/msys64/mingw64/include/c++/10.1.0/bits\alloc_traits.h **** 	return __a.allocate(__n);
 479:D:/msys64/mingw64/include/c++/10.1.0/bits\alloc_traits.h **** #endif
 480:D:/msys64/mingw64/include/c++/10.1.0/bits\alloc_traits.h ****       }
 481:D:/msys64/mingw64/include/c++/10.1.0/bits\alloc_traits.h **** 
 482:D:/msys64/mingw64/include/c++/10.1.0/bits\alloc_traits.h ****       /**
 483:D:/msys64/mingw64/include/c++/10.1.0/bits\alloc_traits.h ****        *  @brief  Deallocate memory.
 484:D:/msys64/mingw64/include/c++/10.1.0/bits\alloc_traits.h ****        *  @param  __a  An allocator.
 485:D:/msys64/mingw64/include/c++/10.1.0/bits\alloc_traits.h ****        *  @param  __p  Pointer to the memory to deallocate.
 486:D:/msys64/mingw64/include/c++/10.1.0/bits\alloc_traits.h ****        *  @param  __n  The number of objects space was allocated for.
 487:D:/msys64/mingw64/include/c++/10.1.0/bits\alloc_traits.h ****        *
 488:D:/msys64/mingw64/include/c++/10.1.0/bits\alloc_traits.h ****        *  Calls <tt> a.deallocate(p, n) </tt>
 489:D:/msys64/mingw64/include/c++/10.1.0/bits\alloc_traits.h ****       */
 490:D:/msys64/mingw64/include/c++/10.1.0/bits\alloc_traits.h ****       static _GLIBCXX20_CONSTEXPR void
 491:D:/msys64/mingw64/include/c++/10.1.0/bits\alloc_traits.h ****       deallocate(allocator_type& __a, pointer __p, size_type __n)
 492:D:/msys64/mingw64/include/c++/10.1.0/bits\alloc_traits.h ****       { __a.deallocate(__p, __n); }
 493:D:/msys64/mingw64/include/c++/10.1.0/bits\alloc_traits.h **** 
 494:D:/msys64/mingw64/include/c++/10.1.0/bits\alloc_traits.h ****       /**
GAS LISTING C:\Users\Ilya\AppData\Local\Temp\ccxaKDG8.s 			page 32


 495:D:/msys64/mingw64/include/c++/10.1.0/bits\alloc_traits.h ****        *  @brief  Construct an object of type `_Up`
 496:D:/msys64/mingw64/include/c++/10.1.0/bits\alloc_traits.h ****        *  @param  __a  An allocator.
 497:D:/msys64/mingw64/include/c++/10.1.0/bits\alloc_traits.h ****        *  @param  __p  Pointer to memory of suitable size and alignment for
 498:D:/msys64/mingw64/include/c++/10.1.0/bits\alloc_traits.h ****        *	       an object of type `_Up`.
 499:D:/msys64/mingw64/include/c++/10.1.0/bits\alloc_traits.h ****        *  @param  __args Constructor arguments.
 500:D:/msys64/mingw64/include/c++/10.1.0/bits\alloc_traits.h ****        *
 501:D:/msys64/mingw64/include/c++/10.1.0/bits\alloc_traits.h ****        *  Calls `__a.construct(__p, std::forward<_Args>(__args)...)`
 502:D:/msys64/mingw64/include/c++/10.1.0/bits\alloc_traits.h ****        *  in C++11, C++14 and C++17. Changed in C++20 to call
 503:D:/msys64/mingw64/include/c++/10.1.0/bits\alloc_traits.h ****        *  `std::construct_at(__p, std::forward<_Args>(__args)...)` instead.
 504:D:/msys64/mingw64/include/c++/10.1.0/bits\alloc_traits.h ****       */
 505:D:/msys64/mingw64/include/c++/10.1.0/bits\alloc_traits.h ****       template<typename _Up, typename... _Args>
 506:D:/msys64/mingw64/include/c++/10.1.0/bits\alloc_traits.h **** 	static _GLIBCXX20_CONSTEXPR void
 507:D:/msys64/mingw64/include/c++/10.1.0/bits\alloc_traits.h **** 	construct(allocator_type& __a __attribute__((__unused__)), _Up* __p,
 508:D:/msys64/mingw64/include/c++/10.1.0/bits\alloc_traits.h **** 		  _Args&&... __args)
 509:D:/msys64/mingw64/include/c++/10.1.0/bits\alloc_traits.h **** 	noexcept(std::is_nothrow_constructible<_Up, _Args...>::value)
 510:D:/msys64/mingw64/include/c++/10.1.0/bits\alloc_traits.h **** 	{
 511:D:/msys64/mingw64/include/c++/10.1.0/bits\alloc_traits.h **** #if __cplusplus <= 201703L
 512:D:/msys64/mingw64/include/c++/10.1.0/bits\alloc_traits.h **** 	  __a.construct(__p, std::forward<_Args>(__args)...);
 513:D:/msys64/mingw64/include/c++/10.1.0/bits\alloc_traits.h **** #else
 514:D:/msys64/mingw64/include/c++/10.1.0/bits\alloc_traits.h **** 	  std::construct_at(__p, std::forward<_Args>(__args)...);
 515:D:/msys64/mingw64/include/c++/10.1.0/bits\alloc_traits.h **** #endif
 516:D:/msys64/mingw64/include/c++/10.1.0/bits\alloc_traits.h **** 	}
 517:D:/msys64/mingw64/include/c++/10.1.0/bits\alloc_traits.h **** 
 518:D:/msys64/mingw64/include/c++/10.1.0/bits\alloc_traits.h ****       /**
 519:D:/msys64/mingw64/include/c++/10.1.0/bits\alloc_traits.h ****        *  @brief  Destroy an object of type @a _Up
 520:D:/msys64/mingw64/include/c++/10.1.0/bits\alloc_traits.h ****        *  @param  __a  An allocator.
 521:D:/msys64/mingw64/include/c++/10.1.0/bits\alloc_traits.h ****        *  @param  __p  Pointer to the object to destroy
 522:D:/msys64/mingw64/include/c++/10.1.0/bits\alloc_traits.h ****        *
 523:D:/msys64/mingw64/include/c++/10.1.0/bits\alloc_traits.h ****        *  Calls @c __a.destroy(__p).
 524:D:/msys64/mingw64/include/c++/10.1.0/bits\alloc_traits.h ****       */
 525:D:/msys64/mingw64/include/c++/10.1.0/bits\alloc_traits.h ****       template<typename _Up>
 526:D:/msys64/mingw64/include/c++/10.1.0/bits\alloc_traits.h **** 	static _GLIBCXX20_CONSTEXPR void
 527:D:/msys64/mingw64/include/c++/10.1.0/bits\alloc_traits.h **** 	destroy(allocator_type& __a __attribute__((__unused__)), _Up* __p)
 528:D:/msys64/mingw64/include/c++/10.1.0/bits\alloc_traits.h **** 	noexcept(is_nothrow_destructible<_Up>::value)
 529:D:/msys64/mingw64/include/c++/10.1.0/bits\alloc_traits.h **** 	{
 530:D:/msys64/mingw64/include/c++/10.1.0/bits\alloc_traits.h **** #if __cplusplus <= 201703L
 531:D:/msys64/mingw64/include/c++/10.1.0/bits\alloc_traits.h **** 	  __a.destroy(__p);
 532:D:/msys64/mingw64/include/c++/10.1.0/bits\alloc_traits.h **** #else
 533:D:/msys64/mingw64/include/c++/10.1.0/bits\alloc_traits.h **** 	  std::destroy_at(__p);
 534:D:/msys64/mingw64/include/c++/10.1.0/bits\alloc_traits.h **** #endif
 535:D:/msys64/mingw64/include/c++/10.1.0/bits\alloc_traits.h **** 	}
 536:D:/msys64/mingw64/include/c++/10.1.0/bits\alloc_traits.h **** 
 537:D:/msys64/mingw64/include/c++/10.1.0/bits\alloc_traits.h ****       /**
 538:D:/msys64/mingw64/include/c++/10.1.0/bits\alloc_traits.h ****        *  @brief  The maximum supported allocation size
 539:D:/msys64/mingw64/include/c++/10.1.0/bits\alloc_traits.h ****        *  @param  __a  An allocator.
 540:D:/msys64/mingw64/include/c++/10.1.0/bits\alloc_traits.h ****        *  @return @c __a.max_size()
 541:D:/msys64/mingw64/include/c++/10.1.0/bits\alloc_traits.h ****       */
 542:D:/msys64/mingw64/include/c++/10.1.0/bits\alloc_traits.h ****       static _GLIBCXX20_CONSTEXPR size_type
 543:D:/msys64/mingw64/include/c++/10.1.0/bits\alloc_traits.h ****       max_size(const allocator_type& __a __attribute__((__unused__))) noexcept
 544:D:/msys64/mingw64/include/c++/10.1.0/bits\alloc_traits.h ****       {
 545:D:/msys64/mingw64/include/c++/10.1.0/bits\alloc_traits.h **** #if __cplusplus <= 201703L
 546:D:/msys64/mingw64/include/c++/10.1.0/bits\alloc_traits.h **** 	return __a.max_size();
 547:D:/msys64/mingw64/include/c++/10.1.0/bits\alloc_traits.h **** #else
 548:D:/msys64/mingw64/include/c++/10.1.0/bits\alloc_traits.h **** 	return size_t(-1) / sizeof(value_type);
 549:D:/msys64/mingw64/include/c++/10.1.0/bits\alloc_traits.h **** #endif
 550:D:/msys64/mingw64/include/c++/10.1.0/bits\alloc_traits.h ****       }
 551:D:/msys64/mingw64/include/c++/10.1.0/bits\alloc_traits.h **** 
GAS LISTING C:\Users\Ilya\AppData\Local\Temp\ccxaKDG8.s 			page 33


 552:D:/msys64/mingw64/include/c++/10.1.0/bits\alloc_traits.h ****       /**
 553:D:/msys64/mingw64/include/c++/10.1.0/bits\alloc_traits.h ****        *  @brief  Obtain an allocator to use when copying a container.
 554:D:/msys64/mingw64/include/c++/10.1.0/bits\alloc_traits.h ****        *  @param  __rhs  An allocator.
 555:D:/msys64/mingw64/include/c++/10.1.0/bits\alloc_traits.h ****        *  @return @c __rhs
 556:D:/msys64/mingw64/include/c++/10.1.0/bits\alloc_traits.h ****       */
 557:D:/msys64/mingw64/include/c++/10.1.0/bits\alloc_traits.h ****       static _GLIBCXX20_CONSTEXPR allocator_type
 558:D:/msys64/mingw64/include/c++/10.1.0/bits\alloc_traits.h ****       select_on_container_copy_construction(const allocator_type& __rhs)
 559:D:/msys64/mingw64/include/c++/10.1.0/bits\alloc_traits.h ****       { return __rhs; }
 560:D:/msys64/mingw64/include/c++/10.1.0/bits\alloc_traits.h ****     };
 561:D:/msys64/mingw64/include/c++/10.1.0/bits\alloc_traits.h **** 
 562:D:/msys64/mingw64/include/c++/10.1.0/bits\alloc_traits.h **** #if __cplusplus < 201703L
 563:D:/msys64/mingw64/include/c++/10.1.0/bits\alloc_traits.h ****   template<typename _Alloc>
 564:D:/msys64/mingw64/include/c++/10.1.0/bits\alloc_traits.h ****     inline void
 565:D:/msys64/mingw64/include/c++/10.1.0/bits\alloc_traits.h ****     __do_alloc_on_copy(_Alloc& __one, const _Alloc& __two, true_type)
 566:D:/msys64/mingw64/include/c++/10.1.0/bits\alloc_traits.h ****     { __one = __two; }
 567:D:/msys64/mingw64/include/c++/10.1.0/bits\alloc_traits.h **** 
 568:D:/msys64/mingw64/include/c++/10.1.0/bits\alloc_traits.h ****   template<typename _Alloc>
 569:D:/msys64/mingw64/include/c++/10.1.0/bits\alloc_traits.h ****     inline void
 570:D:/msys64/mingw64/include/c++/10.1.0/bits\alloc_traits.h ****     __do_alloc_on_copy(_Alloc&, const _Alloc&, false_type)
 571:D:/msys64/mingw64/include/c++/10.1.0/bits\alloc_traits.h ****     { }
 572:D:/msys64/mingw64/include/c++/10.1.0/bits\alloc_traits.h **** #endif
 573:D:/msys64/mingw64/include/c++/10.1.0/bits\alloc_traits.h **** 
 574:D:/msys64/mingw64/include/c++/10.1.0/bits\alloc_traits.h ****   template<typename _Alloc>
 575:D:/msys64/mingw64/include/c++/10.1.0/bits\alloc_traits.h ****     _GLIBCXX14_CONSTEXPR inline void
 576:D:/msys64/mingw64/include/c++/10.1.0/bits\alloc_traits.h ****     __alloc_on_copy(_Alloc& __one, const _Alloc& __two)
 577:D:/msys64/mingw64/include/c++/10.1.0/bits\alloc_traits.h ****     {
 578:D:/msys64/mingw64/include/c++/10.1.0/bits\alloc_traits.h ****       typedef allocator_traits<_Alloc> __traits;
 579:D:/msys64/mingw64/include/c++/10.1.0/bits\alloc_traits.h ****       typedef typename __traits::propagate_on_container_copy_assignment __pocca;
 580:D:/msys64/mingw64/include/c++/10.1.0/bits\alloc_traits.h **** #if __cplusplus >= 201703L
 581:D:/msys64/mingw64/include/c++/10.1.0/bits\alloc_traits.h ****       if constexpr (__pocca::value)
 582:D:/msys64/mingw64/include/c++/10.1.0/bits\alloc_traits.h **** 	__one = __two;
 583:D:/msys64/mingw64/include/c++/10.1.0/bits\alloc_traits.h **** #else
 584:D:/msys64/mingw64/include/c++/10.1.0/bits\alloc_traits.h ****       __do_alloc_on_copy(__one, __two, __pocca());
 585:D:/msys64/mingw64/include/c++/10.1.0/bits\alloc_traits.h **** #endif
 586:D:/msys64/mingw64/include/c++/10.1.0/bits\alloc_traits.h ****     }
 587:D:/msys64/mingw64/include/c++/10.1.0/bits\alloc_traits.h **** 
 588:D:/msys64/mingw64/include/c++/10.1.0/bits\alloc_traits.h ****   template<typename _Alloc>
 589:D:/msys64/mingw64/include/c++/10.1.0/bits\alloc_traits.h ****     constexpr _Alloc
 590:D:/msys64/mingw64/include/c++/10.1.0/bits\alloc_traits.h ****     __alloc_on_copy(const _Alloc& __a)
 591:D:/msys64/mingw64/include/c++/10.1.0/bits\alloc_traits.h ****     {
 592:D:/msys64/mingw64/include/c++/10.1.0/bits\alloc_traits.h ****       typedef allocator_traits<_Alloc> __traits;
 593:D:/msys64/mingw64/include/c++/10.1.0/bits\alloc_traits.h ****       return __traits::select_on_container_copy_construction(__a);
 594:D:/msys64/mingw64/include/c++/10.1.0/bits\alloc_traits.h ****     }
 595:D:/msys64/mingw64/include/c++/10.1.0/bits\alloc_traits.h **** 
 596:D:/msys64/mingw64/include/c++/10.1.0/bits\alloc_traits.h **** #if __cplusplus < 201703L
 597:D:/msys64/mingw64/include/c++/10.1.0/bits\alloc_traits.h ****   template<typename _Alloc>
 598:D:/msys64/mingw64/include/c++/10.1.0/bits\alloc_traits.h ****     inline void __do_alloc_on_move(_Alloc& __one, _Alloc& __two, true_type)
 599:D:/msys64/mingw64/include/c++/10.1.0/bits\alloc_traits.h ****     { __one = std::move(__two); }
 600:D:/msys64/mingw64/include/c++/10.1.0/bits\alloc_traits.h **** 
 601:D:/msys64/mingw64/include/c++/10.1.0/bits\alloc_traits.h ****   template<typename _Alloc>
 602:D:/msys64/mingw64/include/c++/10.1.0/bits\alloc_traits.h ****     inline void __do_alloc_on_move(_Alloc&, _Alloc&, false_type)
 603:D:/msys64/mingw64/include/c++/10.1.0/bits\alloc_traits.h ****     { }
 604:D:/msys64/mingw64/include/c++/10.1.0/bits\alloc_traits.h **** #endif
 605:D:/msys64/mingw64/include/c++/10.1.0/bits\alloc_traits.h **** 
 606:D:/msys64/mingw64/include/c++/10.1.0/bits\alloc_traits.h ****   template<typename _Alloc>
 607:D:/msys64/mingw64/include/c++/10.1.0/bits\alloc_traits.h ****     _GLIBCXX14_CONSTEXPR inline void
 608:D:/msys64/mingw64/include/c++/10.1.0/bits\alloc_traits.h ****     __alloc_on_move(_Alloc& __one, _Alloc& __two)
GAS LISTING C:\Users\Ilya\AppData\Local\Temp\ccxaKDG8.s 			page 34


 609:D:/msys64/mingw64/include/c++/10.1.0/bits\alloc_traits.h ****     {
 610:D:/msys64/mingw64/include/c++/10.1.0/bits\alloc_traits.h ****       typedef allocator_traits<_Alloc> __traits;
 611:D:/msys64/mingw64/include/c++/10.1.0/bits\alloc_traits.h ****       typedef typename __traits::propagate_on_container_move_assignment __pocma;
 612:D:/msys64/mingw64/include/c++/10.1.0/bits\alloc_traits.h **** #if __cplusplus >= 201703L
 613:D:/msys64/mingw64/include/c++/10.1.0/bits\alloc_traits.h ****       if constexpr (__pocma::value)
 614:D:/msys64/mingw64/include/c++/10.1.0/bits\alloc_traits.h **** 	__one = std::move(__two);
 615:D:/msys64/mingw64/include/c++/10.1.0/bits\alloc_traits.h **** #else
 616:D:/msys64/mingw64/include/c++/10.1.0/bits\alloc_traits.h ****       __do_alloc_on_move(__one, __two, __pocma());
 617:D:/msys64/mingw64/include/c++/10.1.0/bits\alloc_traits.h **** #endif
 618:D:/msys64/mingw64/include/c++/10.1.0/bits\alloc_traits.h ****     }
 619:D:/msys64/mingw64/include/c++/10.1.0/bits\alloc_traits.h **** 
 620:D:/msys64/mingw64/include/c++/10.1.0/bits\alloc_traits.h **** #if __cplusplus < 201703L
 621:D:/msys64/mingw64/include/c++/10.1.0/bits\alloc_traits.h ****   template<typename _Alloc>
 622:D:/msys64/mingw64/include/c++/10.1.0/bits\alloc_traits.h ****     inline void __do_alloc_on_swap(_Alloc& __one, _Alloc& __two, true_type)
 623:D:/msys64/mingw64/include/c++/10.1.0/bits\alloc_traits.h ****     {
 624:D:/msys64/mingw64/include/c++/10.1.0/bits\alloc_traits.h ****       using std::swap;
 625:D:/msys64/mingw64/include/c++/10.1.0/bits\alloc_traits.h ****       swap(__one, __two);
 626:D:/msys64/mingw64/include/c++/10.1.0/bits\alloc_traits.h ****     }
 627:D:/msys64/mingw64/include/c++/10.1.0/bits\alloc_traits.h **** 
 628:D:/msys64/mingw64/include/c++/10.1.0/bits\alloc_traits.h ****   template<typename _Alloc>
 629:D:/msys64/mingw64/include/c++/10.1.0/bits\alloc_traits.h ****     inline void __do_alloc_on_swap(_Alloc&, _Alloc&, false_type)
 630:D:/msys64/mingw64/include/c++/10.1.0/bits\alloc_traits.h ****     { }
 631:D:/msys64/mingw64/include/c++/10.1.0/bits\alloc_traits.h **** #endif
 632:D:/msys64/mingw64/include/c++/10.1.0/bits\alloc_traits.h **** 
 633:D:/msys64/mingw64/include/c++/10.1.0/bits\alloc_traits.h ****   template<typename _Alloc>
 634:D:/msys64/mingw64/include/c++/10.1.0/bits\alloc_traits.h ****     _GLIBCXX14_CONSTEXPR inline void
 635:D:/msys64/mingw64/include/c++/10.1.0/bits\alloc_traits.h ****     __alloc_on_swap(_Alloc& __one, _Alloc& __two)
 636:D:/msys64/mingw64/include/c++/10.1.0/bits\alloc_traits.h ****     {
 637:D:/msys64/mingw64/include/c++/10.1.0/bits\alloc_traits.h ****       typedef allocator_traits<_Alloc> __traits;
 638:D:/msys64/mingw64/include/c++/10.1.0/bits\alloc_traits.h ****       typedef typename __traits::propagate_on_container_swap __pocs;
 639:D:/msys64/mingw64/include/c++/10.1.0/bits\alloc_traits.h **** #if __cplusplus >= 201703L
 640:D:/msys64/mingw64/include/c++/10.1.0/bits\alloc_traits.h ****       if constexpr (__pocs::value)
 641:D:/msys64/mingw64/include/c++/10.1.0/bits\alloc_traits.h **** 	{
 642:D:/msys64/mingw64/include/c++/10.1.0/bits\alloc_traits.h **** 	  using std::swap;
 643:D:/msys64/mingw64/include/c++/10.1.0/bits\alloc_traits.h **** 	  swap(__one, __two);
 644:D:/msys64/mingw64/include/c++/10.1.0/bits\alloc_traits.h **** 	}
 645:D:/msys64/mingw64/include/c++/10.1.0/bits\alloc_traits.h **** #else
 646:D:/msys64/mingw64/include/c++/10.1.0/bits\alloc_traits.h ****       __do_alloc_on_swap(__one, __two, __pocs());
 647:D:/msys64/mingw64/include/c++/10.1.0/bits\alloc_traits.h **** #endif
 648:D:/msys64/mingw64/include/c++/10.1.0/bits\alloc_traits.h ****     }
 649:D:/msys64/mingw64/include/c++/10.1.0/bits\alloc_traits.h **** 
 650:D:/msys64/mingw64/include/c++/10.1.0/bits\alloc_traits.h ****   template<typename _Alloc, typename _Tp,
 651:D:/msys64/mingw64/include/c++/10.1.0/bits\alloc_traits.h **** 	   typename _ValueT = __remove_cvref_t<typename _Alloc::value_type>,
 652:D:/msys64/mingw64/include/c++/10.1.0/bits\alloc_traits.h **** 	   typename = void>
 653:D:/msys64/mingw64/include/c++/10.1.0/bits\alloc_traits.h ****     struct __is_alloc_insertable_impl
 654:D:/msys64/mingw64/include/c++/10.1.0/bits\alloc_traits.h ****     : false_type
 655:D:/msys64/mingw64/include/c++/10.1.0/bits\alloc_traits.h ****     { };
 656:D:/msys64/mingw64/include/c++/10.1.0/bits\alloc_traits.h **** 
 657:D:/msys64/mingw64/include/c++/10.1.0/bits\alloc_traits.h ****   template<typename _Alloc, typename _Tp, typename _ValueT>
 658:D:/msys64/mingw64/include/c++/10.1.0/bits\alloc_traits.h ****     struct __is_alloc_insertable_impl<_Alloc, _Tp, _ValueT,
 659:D:/msys64/mingw64/include/c++/10.1.0/bits\alloc_traits.h ****       __void_t<decltype(allocator_traits<_Alloc>::construct(
 660:D:/msys64/mingw64/include/c++/10.1.0/bits\alloc_traits.h **** 		   std::declval<_Alloc&>(), std::declval<_ValueT*>(),
 661:D:/msys64/mingw64/include/c++/10.1.0/bits\alloc_traits.h **** 		   std::declval<_Tp>()))>>
 662:D:/msys64/mingw64/include/c++/10.1.0/bits\alloc_traits.h ****     : true_type
 663:D:/msys64/mingw64/include/c++/10.1.0/bits\alloc_traits.h ****     { };
 664:D:/msys64/mingw64/include/c++/10.1.0/bits\alloc_traits.h **** 
 665:D:/msys64/mingw64/include/c++/10.1.0/bits\alloc_traits.h ****   // true if _Alloc::value_type is CopyInsertable into containers using _Alloc
GAS LISTING C:\Users\Ilya\AppData\Local\Temp\ccxaKDG8.s 			page 35


 666:D:/msys64/mingw64/include/c++/10.1.0/bits\alloc_traits.h ****   // (might be wrong if _Alloc::construct exists but is not constrained,
 667:D:/msys64/mingw64/include/c++/10.1.0/bits\alloc_traits.h ****   // i.e. actually trying to use it would still be invalid. Use with caution.)
 668:D:/msys64/mingw64/include/c++/10.1.0/bits\alloc_traits.h ****   template<typename _Alloc>
 669:D:/msys64/mingw64/include/c++/10.1.0/bits\alloc_traits.h ****     struct __is_copy_insertable
 670:D:/msys64/mingw64/include/c++/10.1.0/bits\alloc_traits.h ****     : __is_alloc_insertable_impl<_Alloc,
 671:D:/msys64/mingw64/include/c++/10.1.0/bits\alloc_traits.h **** 				 typename _Alloc::value_type const&>::type
 672:D:/msys64/mingw64/include/c++/10.1.0/bits\alloc_traits.h ****     { };
 673:D:/msys64/mingw64/include/c++/10.1.0/bits\alloc_traits.h **** 
 674:D:/msys64/mingw64/include/c++/10.1.0/bits\alloc_traits.h ****   // std::allocator<_Tp> just requires CopyConstructible
 675:D:/msys64/mingw64/include/c++/10.1.0/bits\alloc_traits.h ****   template<typename _Tp>
 676:D:/msys64/mingw64/include/c++/10.1.0/bits\alloc_traits.h ****     struct __is_copy_insertable<allocator<_Tp>>
 677:D:/msys64/mingw64/include/c++/10.1.0/bits\alloc_traits.h ****     : is_copy_constructible<_Tp>
 678:D:/msys64/mingw64/include/c++/10.1.0/bits\alloc_traits.h ****     { };
 679:D:/msys64/mingw64/include/c++/10.1.0/bits\alloc_traits.h **** 
 680:D:/msys64/mingw64/include/c++/10.1.0/bits\alloc_traits.h ****   // true if _Alloc::value_type is MoveInsertable into containers using _Alloc
 681:D:/msys64/mingw64/include/c++/10.1.0/bits\alloc_traits.h ****   // (might be wrong if _Alloc::construct exists but is not constrained,
 682:D:/msys64/mingw64/include/c++/10.1.0/bits\alloc_traits.h ****   // i.e. actually trying to use it would still be invalid. Use with caution.)
 683:D:/msys64/mingw64/include/c++/10.1.0/bits\alloc_traits.h ****   template<typename _Alloc>
 684:D:/msys64/mingw64/include/c++/10.1.0/bits\alloc_traits.h ****     struct __is_move_insertable
 685:D:/msys64/mingw64/include/c++/10.1.0/bits\alloc_traits.h ****     : __is_alloc_insertable_impl<_Alloc, typename _Alloc::value_type>::type
 686:D:/msys64/mingw64/include/c++/10.1.0/bits\alloc_traits.h ****     { };
 687:D:/msys64/mingw64/include/c++/10.1.0/bits\alloc_traits.h **** 
 688:D:/msys64/mingw64/include/c++/10.1.0/bits\alloc_traits.h ****   // std::allocator<_Tp> just requires MoveConstructible
 689:D:/msys64/mingw64/include/c++/10.1.0/bits\alloc_traits.h ****   template<typename _Tp>
 690:D:/msys64/mingw64/include/c++/10.1.0/bits\alloc_traits.h ****     struct __is_move_insertable<allocator<_Tp>>
 691:D:/msys64/mingw64/include/c++/10.1.0/bits\alloc_traits.h ****     : is_move_constructible<_Tp>
 692:D:/msys64/mingw64/include/c++/10.1.0/bits\alloc_traits.h ****     { };
 693:D:/msys64/mingw64/include/c++/10.1.0/bits\alloc_traits.h **** 
 694:D:/msys64/mingw64/include/c++/10.1.0/bits\alloc_traits.h ****   // Trait to detect Allocator-like types.
 695:D:/msys64/mingw64/include/c++/10.1.0/bits\alloc_traits.h ****   template<typename _Alloc, typename = void>
 696:D:/msys64/mingw64/include/c++/10.1.0/bits\alloc_traits.h ****     struct __is_allocator : false_type { };
 697:D:/msys64/mingw64/include/c++/10.1.0/bits\alloc_traits.h **** 
 698:D:/msys64/mingw64/include/c++/10.1.0/bits\alloc_traits.h ****   template<typename _Alloc>
 699:D:/msys64/mingw64/include/c++/10.1.0/bits\alloc_traits.h ****     struct __is_allocator<_Alloc,
 700:D:/msys64/mingw64/include/c++/10.1.0/bits\alloc_traits.h ****       __void_t<typename _Alloc::value_type,
 701:D:/msys64/mingw64/include/c++/10.1.0/bits\alloc_traits.h **** 	       decltype(std::declval<_Alloc&>().allocate(size_t{}))>>
 702:D:/msys64/mingw64/include/c++/10.1.0/bits\alloc_traits.h ****     : true_type { };
 703:D:/msys64/mingw64/include/c++/10.1.0/bits\alloc_traits.h **** 
 704:D:/msys64/mingw64/include/c++/10.1.0/bits\alloc_traits.h ****   template<typename _Alloc>
 705:D:/msys64/mingw64/include/c++/10.1.0/bits\alloc_traits.h ****     using _RequireAllocator
 706:D:/msys64/mingw64/include/c++/10.1.0/bits\alloc_traits.h ****       = typename enable_if<__is_allocator<_Alloc>::value, _Alloc>::type;
 707:D:/msys64/mingw64/include/c++/10.1.0/bits\alloc_traits.h **** 
 708:D:/msys64/mingw64/include/c++/10.1.0/bits\alloc_traits.h ****   template<typename _Alloc>
 709:D:/msys64/mingw64/include/c++/10.1.0/bits\alloc_traits.h ****     using _RequireNotAllocator
 710:D:/msys64/mingw64/include/c++/10.1.0/bits\alloc_traits.h ****       = typename enable_if<!__is_allocator<_Alloc>::value, _Alloc>::type;
 711:D:/msys64/mingw64/include/c++/10.1.0/bits\alloc_traits.h **** #endif // C++11
 712:D:/msys64/mingw64/include/c++/10.1.0/bits\alloc_traits.h **** 
 713:D:/msys64/mingw64/include/c++/10.1.0/bits\alloc_traits.h ****   /**
 714:D:/msys64/mingw64/include/c++/10.1.0/bits\alloc_traits.h ****    * Destroy a range of objects using the supplied allocator.  For
 715:D:/msys64/mingw64/include/c++/10.1.0/bits\alloc_traits.h ****    * non-default allocators we do not optimize away invocation of
 716:D:/msys64/mingw64/include/c++/10.1.0/bits\alloc_traits.h ****    * destroy() even if _Tp has a trivial destructor.
 717:D:/msys64/mingw64/include/c++/10.1.0/bits\alloc_traits.h ****    */
 718:D:/msys64/mingw64/include/c++/10.1.0/bits\alloc_traits.h **** 
 719:D:/msys64/mingw64/include/c++/10.1.0/bits\alloc_traits.h ****   template<typename _ForwardIterator, typename _Allocator>
 720:D:/msys64/mingw64/include/c++/10.1.0/bits\alloc_traits.h ****     void
 721:D:/msys64/mingw64/include/c++/10.1.0/bits\alloc_traits.h ****     _Destroy(_ForwardIterator __first, _ForwardIterator __last,
 722:D:/msys64/mingw64/include/c++/10.1.0/bits\alloc_traits.h **** 	     _Allocator& __alloc)
GAS LISTING C:\Users\Ilya\AppData\Local\Temp\ccxaKDG8.s 			page 36


 723:D:/msys64/mingw64/include/c++/10.1.0/bits\alloc_traits.h ****     {
 724:D:/msys64/mingw64/include/c++/10.1.0/bits\alloc_traits.h ****       for (; __first != __last; ++__first)
 725:D:/msys64/mingw64/include/c++/10.1.0/bits\alloc_traits.h **** #if __cplusplus < 201103L
 726:D:/msys64/mingw64/include/c++/10.1.0/bits\alloc_traits.h **** 	__alloc.destroy(std::__addressof(*__first));
 727:D:/msys64/mingw64/include/c++/10.1.0/bits\alloc_traits.h **** #else
 728:D:/msys64/mingw64/include/c++/10.1.0/bits\alloc_traits.h **** 	allocator_traits<_Allocator>::destroy(__alloc,
 729:D:/msys64/mingw64/include/c++/10.1.0/bits\alloc_traits.h **** 					      std::__addressof(*__first));
 730:D:/msys64/mingw64/include/c++/10.1.0/bits\alloc_traits.h **** #endif
 731:D:/msys64/mingw64/include/c++/10.1.0/bits\alloc_traits.h ****     }
 732:D:/msys64/mingw64/include/c++/10.1.0/bits\alloc_traits.h **** 
 733:D:/msys64/mingw64/include/c++/10.1.0/bits\alloc_traits.h ****   template<typename _ForwardIterator, typename _Tp>
 734:D:/msys64/mingw64/include/c++/10.1.0/bits\alloc_traits.h ****     inline void
 735:D:/msys64/mingw64/include/c++/10.1.0/bits\alloc_traits.h ****     _Destroy(_ForwardIterator __first, _ForwardIterator __last,
 467              		.loc 4 735 5
 468              		.cfi_startproc
 469 0000 55       		pushq	%rbp
 470              		.seh_pushreg	%rbp
 471              		.cfi_def_cfa_offset 16
 472              		.cfi_offset 6, -16
 473 0001 4889E5   		movq	%rsp, %rbp
 474              		.seh_setframe	%rbp, 0
 475              		.cfi_def_cfa_register 6
 476 0004 4883EC20 		subq	$32, %rsp
 477              		.seh_stackalloc	32
 478              		.seh_endprologue
 479 0008 48894D10 		movq	%rcx, 16(%rbp)
 480 000c 48895518 		movq	%rdx, 24(%rbp)
 481 0010 4C894520 		movq	%r8, 32(%rbp)
 736:D:/msys64/mingw64/include/c++/10.1.0/bits\alloc_traits.h **** 	     allocator<_Tp>&)
 737:D:/msys64/mingw64/include/c++/10.1.0/bits\alloc_traits.h ****     {
 738:D:/msys64/mingw64/include/c++/10.1.0/bits\alloc_traits.h ****       _Destroy(__first, __last);
 482              		.loc 4 738 15
 483 0014 488B4518 		movq	24(%rbp), %rax
 484 0018 4889C2   		movq	%rax, %rdx
 485 001b 488B4D10 		movq	16(%rbp), %rcx
 486 001f E8000000 		call	_ZSt8_DestroyIPSt4pairIclEEvT_S3_
 486      00
 739:D:/msys64/mingw64/include/c++/10.1.0/bits\alloc_traits.h ****     }
 487              		.loc 4 739 5
 488 0024 90       		nop
 489 0025 4883C420 		addq	$32, %rsp
 490 0029 5D       		popq	%rbp
 491              		.cfi_restore 6
 492              		.cfi_def_cfa 7, 8
 493 002a C3       		ret
 494              		.cfi_endproc
 495              	.LFE2380:
 496              		.seh_endproc
 497 002b 90909090 		.section	.text$_ZNSaISt4pairIclEED2Ev,"x"
 497      90
 498              		.linkonce discard
 499              		.align 2
 500              		.globl	_ZNSaISt4pairIclEED2Ev
 502              		.seh_proc	_ZNSaISt4pairIclEED2Ev
 503              	_ZNSaISt4pairIclEED2Ev:
 504              	.LFB2419:
 505              		.file 5 "D:/msys64/mingw64/include/c++/10.1.0/bits/allocator.h"
GAS LISTING C:\Users\Ilya\AppData\Local\Temp\ccxaKDG8.s 			page 37


   1:D:/msys64/mingw64/include/c++/10.1.0/bits\allocator.h **** // Allocators -*- C++ -*-
   2:D:/msys64/mingw64/include/c++/10.1.0/bits\allocator.h **** 
   3:D:/msys64/mingw64/include/c++/10.1.0/bits\allocator.h **** // Copyright (C) 2001-2020 Free Software Foundation, Inc.
   4:D:/msys64/mingw64/include/c++/10.1.0/bits\allocator.h **** //
   5:D:/msys64/mingw64/include/c++/10.1.0/bits\allocator.h **** // This file is part of the GNU ISO C++ Library.  This library is free
   6:D:/msys64/mingw64/include/c++/10.1.0/bits\allocator.h **** // software; you can redistribute it and/or modify it under the
   7:D:/msys64/mingw64/include/c++/10.1.0/bits\allocator.h **** // terms of the GNU General Public License as published by the
   8:D:/msys64/mingw64/include/c++/10.1.0/bits\allocator.h **** // Free Software Foundation; either version 3, or (at your option)
   9:D:/msys64/mingw64/include/c++/10.1.0/bits\allocator.h **** // any later version.
  10:D:/msys64/mingw64/include/c++/10.1.0/bits\allocator.h **** 
  11:D:/msys64/mingw64/include/c++/10.1.0/bits\allocator.h **** // This library is distributed in the hope that it will be useful,
  12:D:/msys64/mingw64/include/c++/10.1.0/bits\allocator.h **** // but WITHOUT ANY WARRANTY; without even the implied warranty of
  13:D:/msys64/mingw64/include/c++/10.1.0/bits\allocator.h **** // MERCHANTABILITY or FITNESS FOR A PARTICULAR PURPOSE.  See the
  14:D:/msys64/mingw64/include/c++/10.1.0/bits\allocator.h **** // GNU General Public License for more details.
  15:D:/msys64/mingw64/include/c++/10.1.0/bits\allocator.h **** 
  16:D:/msys64/mingw64/include/c++/10.1.0/bits\allocator.h **** // Under Section 7 of GPL version 3, you are granted additional
  17:D:/msys64/mingw64/include/c++/10.1.0/bits\allocator.h **** // permissions described in the GCC Runtime Library Exception, version
  18:D:/msys64/mingw64/include/c++/10.1.0/bits\allocator.h **** // 3.1, as published by the Free Software Foundation.
  19:D:/msys64/mingw64/include/c++/10.1.0/bits\allocator.h **** 
  20:D:/msys64/mingw64/include/c++/10.1.0/bits\allocator.h **** // You should have received a copy of the GNU General Public License and
  21:D:/msys64/mingw64/include/c++/10.1.0/bits\allocator.h **** // a copy of the GCC Runtime Library Exception along with this program;
  22:D:/msys64/mingw64/include/c++/10.1.0/bits\allocator.h **** // see the files COPYING3 and COPYING.RUNTIME respectively.  If not, see
  23:D:/msys64/mingw64/include/c++/10.1.0/bits\allocator.h **** // <http://www.gnu.org/licenses/>.
  24:D:/msys64/mingw64/include/c++/10.1.0/bits\allocator.h **** 
  25:D:/msys64/mingw64/include/c++/10.1.0/bits\allocator.h **** /*
  26:D:/msys64/mingw64/include/c++/10.1.0/bits\allocator.h ****  * Copyright (c) 1996-1997
  27:D:/msys64/mingw64/include/c++/10.1.0/bits\allocator.h ****  * Silicon Graphics Computer Systems, Inc.
  28:D:/msys64/mingw64/include/c++/10.1.0/bits\allocator.h ****  *
  29:D:/msys64/mingw64/include/c++/10.1.0/bits\allocator.h ****  * Permission to use, copy, modify, distribute and sell this software
  30:D:/msys64/mingw64/include/c++/10.1.0/bits\allocator.h ****  * and its documentation for any purpose is hereby granted without fee,
  31:D:/msys64/mingw64/include/c++/10.1.0/bits\allocator.h ****  * provided that the above copyright notice appear in all copies and
  32:D:/msys64/mingw64/include/c++/10.1.0/bits\allocator.h ****  * that both that copyright notice and this permission notice appear
  33:D:/msys64/mingw64/include/c++/10.1.0/bits\allocator.h ****  * in supporting documentation.  Silicon Graphics makes no
  34:D:/msys64/mingw64/include/c++/10.1.0/bits\allocator.h ****  * representations about the suitability of this software for any
  35:D:/msys64/mingw64/include/c++/10.1.0/bits\allocator.h ****  * purpose.  It is provided "as is" without express or implied warranty.
  36:D:/msys64/mingw64/include/c++/10.1.0/bits\allocator.h ****  */
  37:D:/msys64/mingw64/include/c++/10.1.0/bits\allocator.h **** 
  38:D:/msys64/mingw64/include/c++/10.1.0/bits\allocator.h **** /** @file bits/allocator.h
  39:D:/msys64/mingw64/include/c++/10.1.0/bits\allocator.h ****  *  This is an internal header file, included by other library headers.
  40:D:/msys64/mingw64/include/c++/10.1.0/bits\allocator.h ****  *  Do not attempt to use it directly. @headername{memory}
  41:D:/msys64/mingw64/include/c++/10.1.0/bits\allocator.h ****  */
  42:D:/msys64/mingw64/include/c++/10.1.0/bits\allocator.h **** 
  43:D:/msys64/mingw64/include/c++/10.1.0/bits\allocator.h **** #ifndef _ALLOCATOR_H
  44:D:/msys64/mingw64/include/c++/10.1.0/bits\allocator.h **** #define _ALLOCATOR_H 1
  45:D:/msys64/mingw64/include/c++/10.1.0/bits\allocator.h **** 
  46:D:/msys64/mingw64/include/c++/10.1.0/bits\allocator.h **** #include <bits/c++allocator.h> // Define the base class to std::allocator.
  47:D:/msys64/mingw64/include/c++/10.1.0/bits\allocator.h **** #include <bits/memoryfwd.h>
  48:D:/msys64/mingw64/include/c++/10.1.0/bits\allocator.h **** #if __cplusplus >= 201103L
  49:D:/msys64/mingw64/include/c++/10.1.0/bits\allocator.h **** #include <type_traits>
  50:D:/msys64/mingw64/include/c++/10.1.0/bits\allocator.h **** #endif
  51:D:/msys64/mingw64/include/c++/10.1.0/bits\allocator.h **** 
  52:D:/msys64/mingw64/include/c++/10.1.0/bits\allocator.h **** #define __cpp_lib_incomplete_container_elements 201505
  53:D:/msys64/mingw64/include/c++/10.1.0/bits\allocator.h **** 
  54:D:/msys64/mingw64/include/c++/10.1.0/bits\allocator.h **** namespace std _GLIBCXX_VISIBILITY(default)
  55:D:/msys64/mingw64/include/c++/10.1.0/bits\allocator.h **** {
  56:D:/msys64/mingw64/include/c++/10.1.0/bits\allocator.h **** _GLIBCXX_BEGIN_NAMESPACE_VERSION
  57:D:/msys64/mingw64/include/c++/10.1.0/bits\allocator.h **** 
GAS LISTING C:\Users\Ilya\AppData\Local\Temp\ccxaKDG8.s 			page 38


  58:D:/msys64/mingw64/include/c++/10.1.0/bits\allocator.h ****   /**
  59:D:/msys64/mingw64/include/c++/10.1.0/bits\allocator.h ****    *  @addtogroup allocators
  60:D:/msys64/mingw64/include/c++/10.1.0/bits\allocator.h ****    *  @{
  61:D:/msys64/mingw64/include/c++/10.1.0/bits\allocator.h ****    */
  62:D:/msys64/mingw64/include/c++/10.1.0/bits\allocator.h **** 
  63:D:/msys64/mingw64/include/c++/10.1.0/bits\allocator.h ****   /// allocator<void> specialization.
  64:D:/msys64/mingw64/include/c++/10.1.0/bits\allocator.h ****   template<>
  65:D:/msys64/mingw64/include/c++/10.1.0/bits\allocator.h ****     class allocator<void>
  66:D:/msys64/mingw64/include/c++/10.1.0/bits\allocator.h ****     {
  67:D:/msys64/mingw64/include/c++/10.1.0/bits\allocator.h ****     public:
  68:D:/msys64/mingw64/include/c++/10.1.0/bits\allocator.h ****       typedef void        value_type;
  69:D:/msys64/mingw64/include/c++/10.1.0/bits\allocator.h ****       typedef size_t      size_type;
  70:D:/msys64/mingw64/include/c++/10.1.0/bits\allocator.h ****       typedef ptrdiff_t   difference_type;
  71:D:/msys64/mingw64/include/c++/10.1.0/bits\allocator.h **** #if __cplusplus <= 201703L
  72:D:/msys64/mingw64/include/c++/10.1.0/bits\allocator.h ****       typedef void*       pointer;
  73:D:/msys64/mingw64/include/c++/10.1.0/bits\allocator.h ****       typedef const void* const_pointer;
  74:D:/msys64/mingw64/include/c++/10.1.0/bits\allocator.h **** 
  75:D:/msys64/mingw64/include/c++/10.1.0/bits\allocator.h ****       template<typename _Tp1>
  76:D:/msys64/mingw64/include/c++/10.1.0/bits\allocator.h **** 	struct rebind
  77:D:/msys64/mingw64/include/c++/10.1.0/bits\allocator.h **** 	{ typedef allocator<_Tp1> other; };
  78:D:/msys64/mingw64/include/c++/10.1.0/bits\allocator.h **** #else
  79:D:/msys64/mingw64/include/c++/10.1.0/bits\allocator.h ****       allocator() = default;
  80:D:/msys64/mingw64/include/c++/10.1.0/bits\allocator.h **** 
  81:D:/msys64/mingw64/include/c++/10.1.0/bits\allocator.h ****       template<typename _Up>
  82:D:/msys64/mingw64/include/c++/10.1.0/bits\allocator.h **** 	constexpr
  83:D:/msys64/mingw64/include/c++/10.1.0/bits\allocator.h **** 	allocator(const allocator<_Up>&) { }
  84:D:/msys64/mingw64/include/c++/10.1.0/bits\allocator.h **** #endif // ! C++20
  85:D:/msys64/mingw64/include/c++/10.1.0/bits\allocator.h **** 
  86:D:/msys64/mingw64/include/c++/10.1.0/bits\allocator.h **** #if __cplusplus >= 201103L && __cplusplus <= 201703L
  87:D:/msys64/mingw64/include/c++/10.1.0/bits\allocator.h ****       // _GLIBCXX_RESOLVE_LIB_DEFECTS
  88:D:/msys64/mingw64/include/c++/10.1.0/bits\allocator.h ****       // 2103. std::allocator propagate_on_container_move_assignment
  89:D:/msys64/mingw64/include/c++/10.1.0/bits\allocator.h ****       typedef true_type propagate_on_container_move_assignment;
  90:D:/msys64/mingw64/include/c++/10.1.0/bits\allocator.h **** 
  91:D:/msys64/mingw64/include/c++/10.1.0/bits\allocator.h ****       typedef true_type is_always_equal;
  92:D:/msys64/mingw64/include/c++/10.1.0/bits\allocator.h **** 
  93:D:/msys64/mingw64/include/c++/10.1.0/bits\allocator.h ****       template<typename _Up, typename... _Args>
  94:D:/msys64/mingw64/include/c++/10.1.0/bits\allocator.h **** 	void
  95:D:/msys64/mingw64/include/c++/10.1.0/bits\allocator.h **** 	construct(_Up* __p, _Args&&... __args)
  96:D:/msys64/mingw64/include/c++/10.1.0/bits\allocator.h **** 	noexcept(std::is_nothrow_constructible<_Up, _Args...>::value)
  97:D:/msys64/mingw64/include/c++/10.1.0/bits\allocator.h **** 	{ ::new((void *)__p) _Up(std::forward<_Args>(__args)...); }
  98:D:/msys64/mingw64/include/c++/10.1.0/bits\allocator.h **** 
  99:D:/msys64/mingw64/include/c++/10.1.0/bits\allocator.h ****       template<typename _Up>
 100:D:/msys64/mingw64/include/c++/10.1.0/bits\allocator.h **** 	void
 101:D:/msys64/mingw64/include/c++/10.1.0/bits\allocator.h **** 	destroy(_Up* __p)
 102:D:/msys64/mingw64/include/c++/10.1.0/bits\allocator.h **** 	noexcept(std::is_nothrow_destructible<_Up>::value)
 103:D:/msys64/mingw64/include/c++/10.1.0/bits\allocator.h **** 	{ __p->~_Up(); }
 104:D:/msys64/mingw64/include/c++/10.1.0/bits\allocator.h **** #endif // C++11 to C++17
 105:D:/msys64/mingw64/include/c++/10.1.0/bits\allocator.h ****     };
 106:D:/msys64/mingw64/include/c++/10.1.0/bits\allocator.h **** 
 107:D:/msys64/mingw64/include/c++/10.1.0/bits\allocator.h ****   /**
 108:D:/msys64/mingw64/include/c++/10.1.0/bits\allocator.h ****    * @brief  The @a standard allocator, as per [20.4].
 109:D:/msys64/mingw64/include/c++/10.1.0/bits\allocator.h ****    *
 110:D:/msys64/mingw64/include/c++/10.1.0/bits\allocator.h ****    *  See https://gcc.gnu.org/onlinedocs/libstdc++/manual/memory.html#std.util.memory.allocator
 111:D:/msys64/mingw64/include/c++/10.1.0/bits\allocator.h ****    *  for further details.
 112:D:/msys64/mingw64/include/c++/10.1.0/bits\allocator.h ****    *
 113:D:/msys64/mingw64/include/c++/10.1.0/bits\allocator.h ****    *  @tparam  _Tp  Type of allocated object.
 114:D:/msys64/mingw64/include/c++/10.1.0/bits\allocator.h ****    */
GAS LISTING C:\Users\Ilya\AppData\Local\Temp\ccxaKDG8.s 			page 39


 115:D:/msys64/mingw64/include/c++/10.1.0/bits\allocator.h ****   template<typename _Tp>
 116:D:/msys64/mingw64/include/c++/10.1.0/bits\allocator.h ****     class allocator : public __allocator_base<_Tp>
 117:D:/msys64/mingw64/include/c++/10.1.0/bits\allocator.h ****     {
 118:D:/msys64/mingw64/include/c++/10.1.0/bits\allocator.h ****     public:
 119:D:/msys64/mingw64/include/c++/10.1.0/bits\allocator.h ****       typedef _Tp        value_type;
 120:D:/msys64/mingw64/include/c++/10.1.0/bits\allocator.h ****       typedef size_t     size_type;
 121:D:/msys64/mingw64/include/c++/10.1.0/bits\allocator.h ****       typedef ptrdiff_t  difference_type;
 122:D:/msys64/mingw64/include/c++/10.1.0/bits\allocator.h **** #if __cplusplus <= 201703L
 123:D:/msys64/mingw64/include/c++/10.1.0/bits\allocator.h ****       typedef _Tp*       pointer;
 124:D:/msys64/mingw64/include/c++/10.1.0/bits\allocator.h ****       typedef const _Tp* const_pointer;
 125:D:/msys64/mingw64/include/c++/10.1.0/bits\allocator.h ****       typedef _Tp&       reference;
 126:D:/msys64/mingw64/include/c++/10.1.0/bits\allocator.h ****       typedef const _Tp& const_reference;
 127:D:/msys64/mingw64/include/c++/10.1.0/bits\allocator.h **** 
 128:D:/msys64/mingw64/include/c++/10.1.0/bits\allocator.h ****       template<typename _Tp1>
 129:D:/msys64/mingw64/include/c++/10.1.0/bits\allocator.h **** 	struct rebind
 130:D:/msys64/mingw64/include/c++/10.1.0/bits\allocator.h **** 	{ typedef allocator<_Tp1> other; };
 131:D:/msys64/mingw64/include/c++/10.1.0/bits\allocator.h **** #endif
 132:D:/msys64/mingw64/include/c++/10.1.0/bits\allocator.h **** 
 133:D:/msys64/mingw64/include/c++/10.1.0/bits\allocator.h **** #if __cplusplus >= 201103L
 134:D:/msys64/mingw64/include/c++/10.1.0/bits\allocator.h ****       // _GLIBCXX_RESOLVE_LIB_DEFECTS
 135:D:/msys64/mingw64/include/c++/10.1.0/bits\allocator.h ****       // 2103. std::allocator propagate_on_container_move_assignment
 136:D:/msys64/mingw64/include/c++/10.1.0/bits\allocator.h ****       typedef true_type propagate_on_container_move_assignment;
 137:D:/msys64/mingw64/include/c++/10.1.0/bits\allocator.h **** 
 138:D:/msys64/mingw64/include/c++/10.1.0/bits\allocator.h ****       typedef true_type is_always_equal;
 139:D:/msys64/mingw64/include/c++/10.1.0/bits\allocator.h **** #endif
 140:D:/msys64/mingw64/include/c++/10.1.0/bits\allocator.h **** 
 141:D:/msys64/mingw64/include/c++/10.1.0/bits\allocator.h ****       // _GLIBCXX_RESOLVE_LIB_DEFECTS
 142:D:/msys64/mingw64/include/c++/10.1.0/bits\allocator.h ****       // 3035. std::allocator's constructors should be constexpr
 143:D:/msys64/mingw64/include/c++/10.1.0/bits\allocator.h ****       _GLIBCXX20_CONSTEXPR
 144:D:/msys64/mingw64/include/c++/10.1.0/bits\allocator.h ****       allocator() _GLIBCXX_NOTHROW { }
 145:D:/msys64/mingw64/include/c++/10.1.0/bits\allocator.h **** 
 146:D:/msys64/mingw64/include/c++/10.1.0/bits\allocator.h ****       _GLIBCXX20_CONSTEXPR
 147:D:/msys64/mingw64/include/c++/10.1.0/bits\allocator.h ****       allocator(const allocator& __a) _GLIBCXX_NOTHROW
 148:D:/msys64/mingw64/include/c++/10.1.0/bits\allocator.h ****       : __allocator_base<_Tp>(__a) { }
 149:D:/msys64/mingw64/include/c++/10.1.0/bits\allocator.h **** 
 150:D:/msys64/mingw64/include/c++/10.1.0/bits\allocator.h **** #if __cplusplus >= 201103L
 151:D:/msys64/mingw64/include/c++/10.1.0/bits\allocator.h ****       // Avoid implicit deprecation.
 152:D:/msys64/mingw64/include/c++/10.1.0/bits\allocator.h ****       allocator& operator=(const allocator&) = default;
 153:D:/msys64/mingw64/include/c++/10.1.0/bits\allocator.h **** #endif
 154:D:/msys64/mingw64/include/c++/10.1.0/bits\allocator.h **** 
 155:D:/msys64/mingw64/include/c++/10.1.0/bits\allocator.h ****       template<typename _Tp1>
 156:D:/msys64/mingw64/include/c++/10.1.0/bits\allocator.h **** 	_GLIBCXX20_CONSTEXPR
 157:D:/msys64/mingw64/include/c++/10.1.0/bits\allocator.h **** 	allocator(const allocator<_Tp1>&) _GLIBCXX_NOTHROW { }
 158:D:/msys64/mingw64/include/c++/10.1.0/bits\allocator.h **** 
 159:D:/msys64/mingw64/include/c++/10.1.0/bits\allocator.h **** #if __cpp_constexpr_dynamic_alloc
 160:D:/msys64/mingw64/include/c++/10.1.0/bits\allocator.h ****       constexpr
 161:D:/msys64/mingw64/include/c++/10.1.0/bits\allocator.h **** #endif
 162:D:/msys64/mingw64/include/c++/10.1.0/bits\allocator.h ****       ~allocator() _GLIBCXX_NOTHROW { }
 506              		.loc 5 162 7
 507              		.cfi_startproc
 508 0000 55       		pushq	%rbp
 509              		.seh_pushreg	%rbp
 510              		.cfi_def_cfa_offset 16
 511              		.cfi_offset 6, -16
 512 0001 4889E5   		movq	%rsp, %rbp
 513              		.seh_setframe	%rbp, 0
 514              		.cfi_def_cfa_register 6
GAS LISTING C:\Users\Ilya\AppData\Local\Temp\ccxaKDG8.s 			page 40


 515 0004 4883EC20 		subq	$32, %rsp
 516              		.seh_stackalloc	32
 517              		.seh_endprologue
 518 0008 48894D10 		movq	%rcx, 16(%rbp)
 519              	.LBB9:
 520              		.loc 5 162 39
 521 000c 488B4D10 		movq	16(%rbp), %rcx
 522 0010 E8000000 		call	_ZN9__gnu_cxx13new_allocatorISt4pairIclEED2Ev
 522      00
 523              	.LBE9:
 524 0015 90       		nop
 525 0016 4883C420 		addq	$32, %rsp
 526 001a 5D       		popq	%rbp
 527              		.cfi_restore 6
 528              		.cfi_def_cfa 7, 8
 529 001b C3       		ret
 530              		.cfi_endproc
 531              	.LFE2419:
 532              		.seh_endproc
 533 001c 90909090 		.section	.text$_ZNSt12_Vector_baseISt4pairIclESaIS1_EE13_M_deallocateEPS1_y,"x"
 534              		.linkonce discard
 535              		.align 2
 536              		.globl	_ZNSt12_Vector_baseISt4pairIclESaIS1_EE13_M_deallocateEPS1_y
 538              		.seh_proc	_ZNSt12_Vector_baseISt4pairIclESaIS1_EE13_M_deallocateEPS1_y
 539              	_ZNSt12_Vector_baseISt4pairIclESaIS1_EE13_M_deallocateEPS1_y:
 540              	.LFB2421:
 350:D:/msys64/mingw64/include/c++/10.1.0/bits\stl_vector.h ****       {
 541              		.loc 3 350 7
 542              		.cfi_startproc
 543 0000 55       		pushq	%rbp
 544              		.seh_pushreg	%rbp
 545              		.cfi_def_cfa_offset 16
 546              		.cfi_offset 6, -16
 547 0001 4889E5   		movq	%rsp, %rbp
 548              		.seh_setframe	%rbp, 0
 549              		.cfi_def_cfa_register 6
 550 0004 4883EC20 		subq	$32, %rsp
 551              		.seh_stackalloc	32
 552              		.seh_endprologue
 553 0008 48894D10 		movq	%rcx, 16(%rbp)
 554 000c 48895518 		movq	%rdx, 24(%rbp)
 555 0010 4C894520 		movq	%r8, 32(%rbp)
 353:D:/msys64/mingw64/include/c++/10.1.0/bits\stl_vector.h **** 	  _Tr::deallocate(_M_impl, __p, __n);
 556              		.loc 3 353 2
 557 0014 48837D18 		cmpq	$0, 24(%rbp)
 557      00
 558 0019 7417     		je	.L24
 354:D:/msys64/mingw64/include/c++/10.1.0/bits\stl_vector.h ****       }
 559              		.loc 3 354 20
 560 001b 488B4510 		movq	16(%rbp), %rax
 354:D:/msys64/mingw64/include/c++/10.1.0/bits\stl_vector.h ****       }
 561              		.loc 3 354 19
 562 001f 488B4D20 		movq	32(%rbp), %rcx
 563 0023 488B5518 		movq	24(%rbp), %rdx
 564 0027 4989C8   		movq	%rcx, %r8
 565 002a 4889C1   		movq	%rax, %rcx
 566 002d E8000000 		call	_ZNSt16allocator_traitsISaISt4pairIclEEE10deallocateERS2_PS1_y
GAS LISTING C:\Users\Ilya\AppData\Local\Temp\ccxaKDG8.s 			page 41


 566      00
 567              	.L24:
 355:D:/msys64/mingw64/include/c++/10.1.0/bits\stl_vector.h **** 
 568              		.loc 3 355 7
 569 0032 90       		nop
 570 0033 4883C420 		addq	$32, %rsp
 571 0037 5D       		popq	%rbp
 572              		.cfi_restore 6
 573              		.cfi_def_cfa 7, 8
 574 0038 C3       		ret
 575              		.cfi_endproc
 576              	.LFE2421:
 577              		.seh_endproc
 578 0039 90909090 		.section	.text$_ZSt8_DestroyIPSt4pairIclEEvT_S3_,"x"
 578      909090
 579              		.linkonce discard
 580              		.globl	_ZSt8_DestroyIPSt4pairIclEEvT_S3_
 582              		.seh_proc	_ZSt8_DestroyIPSt4pairIclEEvT_S3_
 583              	_ZSt8_DestroyIPSt4pairIclEEvT_S3_:
 584              	.LFB2422:
 585              		.file 6 "D:/msys64/mingw64/include/c++/10.1.0/bits/stl_construct.h"
   1:D:/msys64/mingw64/include/c++/10.1.0/bits\stl_construct.h **** // nonstandard construct and destroy functions -*- C++ -*-
   2:D:/msys64/mingw64/include/c++/10.1.0/bits\stl_construct.h **** 
   3:D:/msys64/mingw64/include/c++/10.1.0/bits\stl_construct.h **** // Copyright (C) 2001-2020 Free Software Foundation, Inc.
   4:D:/msys64/mingw64/include/c++/10.1.0/bits\stl_construct.h **** //
   5:D:/msys64/mingw64/include/c++/10.1.0/bits\stl_construct.h **** // This file is part of the GNU ISO C++ Library.  This library is free
   6:D:/msys64/mingw64/include/c++/10.1.0/bits\stl_construct.h **** // software; you can redistribute it and/or modify it under the
   7:D:/msys64/mingw64/include/c++/10.1.0/bits\stl_construct.h **** // terms of the GNU General Public License as published by the
   8:D:/msys64/mingw64/include/c++/10.1.0/bits\stl_construct.h **** // Free Software Foundation; either version 3, or (at your option)
   9:D:/msys64/mingw64/include/c++/10.1.0/bits\stl_construct.h **** // any later version.
  10:D:/msys64/mingw64/include/c++/10.1.0/bits\stl_construct.h **** 
  11:D:/msys64/mingw64/include/c++/10.1.0/bits\stl_construct.h **** // This library is distributed in the hope that it will be useful,
  12:D:/msys64/mingw64/include/c++/10.1.0/bits\stl_construct.h **** // but WITHOUT ANY WARRANTY; without even the implied warranty of
  13:D:/msys64/mingw64/include/c++/10.1.0/bits\stl_construct.h **** // MERCHANTABILITY or FITNESS FOR A PARTICULAR PURPOSE.  See the
  14:D:/msys64/mingw64/include/c++/10.1.0/bits\stl_construct.h **** // GNU General Public License for more details.
  15:D:/msys64/mingw64/include/c++/10.1.0/bits\stl_construct.h **** 
  16:D:/msys64/mingw64/include/c++/10.1.0/bits\stl_construct.h **** // Under Section 7 of GPL version 3, you are granted additional
  17:D:/msys64/mingw64/include/c++/10.1.0/bits\stl_construct.h **** // permissions described in the GCC Runtime Library Exception, version
  18:D:/msys64/mingw64/include/c++/10.1.0/bits\stl_construct.h **** // 3.1, as published by the Free Software Foundation.
  19:D:/msys64/mingw64/include/c++/10.1.0/bits\stl_construct.h **** 
  20:D:/msys64/mingw64/include/c++/10.1.0/bits\stl_construct.h **** // You should have received a copy of the GNU General Public License and
  21:D:/msys64/mingw64/include/c++/10.1.0/bits\stl_construct.h **** // a copy of the GCC Runtime Library Exception along with this program;
  22:D:/msys64/mingw64/include/c++/10.1.0/bits\stl_construct.h **** // see the files COPYING3 and COPYING.RUNTIME respectively.  If not, see
  23:D:/msys64/mingw64/include/c++/10.1.0/bits\stl_construct.h **** // <http://www.gnu.org/licenses/>.
  24:D:/msys64/mingw64/include/c++/10.1.0/bits\stl_construct.h **** 
  25:D:/msys64/mingw64/include/c++/10.1.0/bits\stl_construct.h **** /*
  26:D:/msys64/mingw64/include/c++/10.1.0/bits\stl_construct.h ****  *
  27:D:/msys64/mingw64/include/c++/10.1.0/bits\stl_construct.h ****  * Copyright (c) 1994
  28:D:/msys64/mingw64/include/c++/10.1.0/bits\stl_construct.h ****  * Hewlett-Packard Company
  29:D:/msys64/mingw64/include/c++/10.1.0/bits\stl_construct.h ****  *
  30:D:/msys64/mingw64/include/c++/10.1.0/bits\stl_construct.h ****  * Permission to use, copy, modify, distribute and sell this software
  31:D:/msys64/mingw64/include/c++/10.1.0/bits\stl_construct.h ****  * and its documentation for any purpose is hereby granted without fee,
  32:D:/msys64/mingw64/include/c++/10.1.0/bits\stl_construct.h ****  * provided that the above copyright notice appear in all copies and
  33:D:/msys64/mingw64/include/c++/10.1.0/bits\stl_construct.h ****  * that both that copyright notice and this permission notice appear
  34:D:/msys64/mingw64/include/c++/10.1.0/bits\stl_construct.h ****  * in supporting documentation.  Hewlett-Packard Company makes no
  35:D:/msys64/mingw64/include/c++/10.1.0/bits\stl_construct.h ****  * representations about the suitability of this software for any
  36:D:/msys64/mingw64/include/c++/10.1.0/bits\stl_construct.h ****  * purpose.  It is provided "as is" without express or implied warranty.
GAS LISTING C:\Users\Ilya\AppData\Local\Temp\ccxaKDG8.s 			page 42


  37:D:/msys64/mingw64/include/c++/10.1.0/bits\stl_construct.h ****  *
  38:D:/msys64/mingw64/include/c++/10.1.0/bits\stl_construct.h ****  *
  39:D:/msys64/mingw64/include/c++/10.1.0/bits\stl_construct.h ****  * Copyright (c) 1996,1997
  40:D:/msys64/mingw64/include/c++/10.1.0/bits\stl_construct.h ****  * Silicon Graphics Computer Systems, Inc.
  41:D:/msys64/mingw64/include/c++/10.1.0/bits\stl_construct.h ****  *
  42:D:/msys64/mingw64/include/c++/10.1.0/bits\stl_construct.h ****  * Permission to use, copy, modify, distribute and sell this software
  43:D:/msys64/mingw64/include/c++/10.1.0/bits\stl_construct.h ****  * and its documentation for any purpose is hereby granted without fee,
  44:D:/msys64/mingw64/include/c++/10.1.0/bits\stl_construct.h ****  * provided that the above copyright notice appear in all copies and
  45:D:/msys64/mingw64/include/c++/10.1.0/bits\stl_construct.h ****  * that both that copyright notice and this permission notice appear
  46:D:/msys64/mingw64/include/c++/10.1.0/bits\stl_construct.h ****  * in supporting documentation.  Silicon Graphics makes no
  47:D:/msys64/mingw64/include/c++/10.1.0/bits\stl_construct.h ****  * representations about the suitability of this software for any
  48:D:/msys64/mingw64/include/c++/10.1.0/bits\stl_construct.h ****  * purpose.  It is provided "as is" without express or implied warranty.
  49:D:/msys64/mingw64/include/c++/10.1.0/bits\stl_construct.h ****  */
  50:D:/msys64/mingw64/include/c++/10.1.0/bits\stl_construct.h **** 
  51:D:/msys64/mingw64/include/c++/10.1.0/bits\stl_construct.h **** /** @file bits/stl_construct.h
  52:D:/msys64/mingw64/include/c++/10.1.0/bits\stl_construct.h ****  *  This is an internal header file, included by other library headers.
  53:D:/msys64/mingw64/include/c++/10.1.0/bits\stl_construct.h ****  *  Do not attempt to use it directly. @headername{memory}
  54:D:/msys64/mingw64/include/c++/10.1.0/bits\stl_construct.h ****  */
  55:D:/msys64/mingw64/include/c++/10.1.0/bits\stl_construct.h **** 
  56:D:/msys64/mingw64/include/c++/10.1.0/bits\stl_construct.h **** #ifndef _STL_CONSTRUCT_H
  57:D:/msys64/mingw64/include/c++/10.1.0/bits\stl_construct.h **** #define _STL_CONSTRUCT_H 1
  58:D:/msys64/mingw64/include/c++/10.1.0/bits\stl_construct.h **** 
  59:D:/msys64/mingw64/include/c++/10.1.0/bits\stl_construct.h **** #include <new>
  60:D:/msys64/mingw64/include/c++/10.1.0/bits\stl_construct.h **** #include <bits/move.h>
  61:D:/msys64/mingw64/include/c++/10.1.0/bits\stl_construct.h **** #include <bits/stl_iterator_base_types.h> // for iterator_traits
  62:D:/msys64/mingw64/include/c++/10.1.0/bits\stl_construct.h **** #include <bits/stl_iterator_base_funcs.h> // for advance
  63:D:/msys64/mingw64/include/c++/10.1.0/bits\stl_construct.h **** 
  64:D:/msys64/mingw64/include/c++/10.1.0/bits\stl_construct.h **** /* This file provides the C++17 functions std::destroy_at, std::destroy, and
  65:D:/msys64/mingw64/include/c++/10.1.0/bits\stl_construct.h ****  * std::destroy_n, and the C++20 function std::construct_at.
  66:D:/msys64/mingw64/include/c++/10.1.0/bits\stl_construct.h ****  * It also provides std::_Construct, std::_Destroy,and std::_Destroy_n functions
  67:D:/msys64/mingw64/include/c++/10.1.0/bits\stl_construct.h ****  * which are defined in all standard modes and so can be used in C++98-14 code.
  68:D:/msys64/mingw64/include/c++/10.1.0/bits\stl_construct.h ****  * The _Destroy functions will dispatch to destroy_at during constant
  69:D:/msys64/mingw64/include/c++/10.1.0/bits\stl_construct.h ****  * evaluation, because calls to that function are intercepted by the compiler
  70:D:/msys64/mingw64/include/c++/10.1.0/bits\stl_construct.h ****  * to allow use in constant expressions.
  71:D:/msys64/mingw64/include/c++/10.1.0/bits\stl_construct.h ****  */
  72:D:/msys64/mingw64/include/c++/10.1.0/bits\stl_construct.h **** 
  73:D:/msys64/mingw64/include/c++/10.1.0/bits\stl_construct.h **** namespace std _GLIBCXX_VISIBILITY(default)
  74:D:/msys64/mingw64/include/c++/10.1.0/bits\stl_construct.h **** {
  75:D:/msys64/mingw64/include/c++/10.1.0/bits\stl_construct.h **** _GLIBCXX_BEGIN_NAMESPACE_VERSION
  76:D:/msys64/mingw64/include/c++/10.1.0/bits\stl_construct.h **** 
  77:D:/msys64/mingw64/include/c++/10.1.0/bits\stl_construct.h **** #if __cplusplus >= 201703L
  78:D:/msys64/mingw64/include/c++/10.1.0/bits\stl_construct.h ****   template <typename _Tp>
  79:D:/msys64/mingw64/include/c++/10.1.0/bits\stl_construct.h ****     _GLIBCXX20_CONSTEXPR inline void
  80:D:/msys64/mingw64/include/c++/10.1.0/bits\stl_construct.h ****     destroy_at(_Tp* __location)
  81:D:/msys64/mingw64/include/c++/10.1.0/bits\stl_construct.h ****     {
  82:D:/msys64/mingw64/include/c++/10.1.0/bits\stl_construct.h ****       if constexpr (__cplusplus > 201703L && is_array_v<_Tp>)
  83:D:/msys64/mingw64/include/c++/10.1.0/bits\stl_construct.h **** 	{
  84:D:/msys64/mingw64/include/c++/10.1.0/bits\stl_construct.h **** 	  for (auto& __x : *__location)
  85:D:/msys64/mingw64/include/c++/10.1.0/bits\stl_construct.h **** 	    std::destroy_at(std::__addressof(__x));
  86:D:/msys64/mingw64/include/c++/10.1.0/bits\stl_construct.h **** 	}
  87:D:/msys64/mingw64/include/c++/10.1.0/bits\stl_construct.h ****       else
  88:D:/msys64/mingw64/include/c++/10.1.0/bits\stl_construct.h **** 	__location->~_Tp();
  89:D:/msys64/mingw64/include/c++/10.1.0/bits\stl_construct.h ****     }
  90:D:/msys64/mingw64/include/c++/10.1.0/bits\stl_construct.h **** 
  91:D:/msys64/mingw64/include/c++/10.1.0/bits\stl_construct.h **** #if __cplusplus > 201703L
  92:D:/msys64/mingw64/include/c++/10.1.0/bits\stl_construct.h ****   template<typename _Tp, typename... _Args>
  93:D:/msys64/mingw64/include/c++/10.1.0/bits\stl_construct.h ****     constexpr auto
GAS LISTING C:\Users\Ilya\AppData\Local\Temp\ccxaKDG8.s 			page 43


  94:D:/msys64/mingw64/include/c++/10.1.0/bits\stl_construct.h ****     construct_at(_Tp* __location, _Args&&... __args)
  95:D:/msys64/mingw64/include/c++/10.1.0/bits\stl_construct.h ****     noexcept(noexcept(::new((void*)0) _Tp(std::declval<_Args>()...)))
  96:D:/msys64/mingw64/include/c++/10.1.0/bits\stl_construct.h ****     -> decltype(::new((void*)0) _Tp(std::declval<_Args>()...))
  97:D:/msys64/mingw64/include/c++/10.1.0/bits\stl_construct.h ****     { return ::new((void*)__location) _Tp(std::forward<_Args>(__args)...); }
  98:D:/msys64/mingw64/include/c++/10.1.0/bits\stl_construct.h **** #endif // C++20
  99:D:/msys64/mingw64/include/c++/10.1.0/bits\stl_construct.h **** #endif// C++17
 100:D:/msys64/mingw64/include/c++/10.1.0/bits\stl_construct.h **** 
 101:D:/msys64/mingw64/include/c++/10.1.0/bits\stl_construct.h ****   /**
 102:D:/msys64/mingw64/include/c++/10.1.0/bits\stl_construct.h ****    * Constructs an object in existing memory by invoking an allocated
 103:D:/msys64/mingw64/include/c++/10.1.0/bits\stl_construct.h ****    * object's constructor with an initializer.
 104:D:/msys64/mingw64/include/c++/10.1.0/bits\stl_construct.h ****    */
 105:D:/msys64/mingw64/include/c++/10.1.0/bits\stl_construct.h **** #if __cplusplus >= 201103L
 106:D:/msys64/mingw64/include/c++/10.1.0/bits\stl_construct.h ****   template<typename _Tp, typename... _Args>
 107:D:/msys64/mingw64/include/c++/10.1.0/bits\stl_construct.h ****     inline void
 108:D:/msys64/mingw64/include/c++/10.1.0/bits\stl_construct.h ****     _Construct(_Tp* __p, _Args&&... __args)
 109:D:/msys64/mingw64/include/c++/10.1.0/bits\stl_construct.h ****     { ::new(static_cast<void*>(__p)) _Tp(std::forward<_Args>(__args)...); }
 110:D:/msys64/mingw64/include/c++/10.1.0/bits\stl_construct.h **** #else
 111:D:/msys64/mingw64/include/c++/10.1.0/bits\stl_construct.h ****   template<typename _T1, typename _T2>
 112:D:/msys64/mingw64/include/c++/10.1.0/bits\stl_construct.h ****     inline void
 113:D:/msys64/mingw64/include/c++/10.1.0/bits\stl_construct.h ****     _Construct(_T1* __p, const _T2& __value)
 114:D:/msys64/mingw64/include/c++/10.1.0/bits\stl_construct.h ****     {
 115:D:/msys64/mingw64/include/c++/10.1.0/bits\stl_construct.h ****       // _GLIBCXX_RESOLVE_LIB_DEFECTS
 116:D:/msys64/mingw64/include/c++/10.1.0/bits\stl_construct.h ****       // 402. wrong new expression in [some_]allocator::construct
 117:D:/msys64/mingw64/include/c++/10.1.0/bits\stl_construct.h ****       ::new(static_cast<void*>(__p)) _T1(__value);
 118:D:/msys64/mingw64/include/c++/10.1.0/bits\stl_construct.h ****     }
 119:D:/msys64/mingw64/include/c++/10.1.0/bits\stl_construct.h **** #endif
 120:D:/msys64/mingw64/include/c++/10.1.0/bits\stl_construct.h **** 
 121:D:/msys64/mingw64/include/c++/10.1.0/bits\stl_construct.h ****   template<typename _T1>
 122:D:/msys64/mingw64/include/c++/10.1.0/bits\stl_construct.h ****     inline void
 123:D:/msys64/mingw64/include/c++/10.1.0/bits\stl_construct.h ****     _Construct_novalue(_T1* __p)
 124:D:/msys64/mingw64/include/c++/10.1.0/bits\stl_construct.h ****     { ::new(static_cast<void*>(__p)) _T1; }
 125:D:/msys64/mingw64/include/c++/10.1.0/bits\stl_construct.h **** 
 126:D:/msys64/mingw64/include/c++/10.1.0/bits\stl_construct.h ****   template<typename _ForwardIterator>
 127:D:/msys64/mingw64/include/c++/10.1.0/bits\stl_construct.h ****     _GLIBCXX20_CONSTEXPR void
 128:D:/msys64/mingw64/include/c++/10.1.0/bits\stl_construct.h ****     _Destroy(_ForwardIterator __first, _ForwardIterator __last);
 129:D:/msys64/mingw64/include/c++/10.1.0/bits\stl_construct.h **** 
 130:D:/msys64/mingw64/include/c++/10.1.0/bits\stl_construct.h ****   /**
 131:D:/msys64/mingw64/include/c++/10.1.0/bits\stl_construct.h ****    * Destroy the object pointed to by a pointer type.
 132:D:/msys64/mingw64/include/c++/10.1.0/bits\stl_construct.h ****    */
 133:D:/msys64/mingw64/include/c++/10.1.0/bits\stl_construct.h ****   template<typename _Tp>
 134:D:/msys64/mingw64/include/c++/10.1.0/bits\stl_construct.h ****     _GLIBCXX14_CONSTEXPR inline void
 135:D:/msys64/mingw64/include/c++/10.1.0/bits\stl_construct.h ****     _Destroy(_Tp* __pointer)
 136:D:/msys64/mingw64/include/c++/10.1.0/bits\stl_construct.h ****     {
 137:D:/msys64/mingw64/include/c++/10.1.0/bits\stl_construct.h **** #if __cplusplus > 201703L
 138:D:/msys64/mingw64/include/c++/10.1.0/bits\stl_construct.h ****       std::destroy_at(__pointer);
 139:D:/msys64/mingw64/include/c++/10.1.0/bits\stl_construct.h **** #else
 140:D:/msys64/mingw64/include/c++/10.1.0/bits\stl_construct.h ****       __pointer->~_Tp();
 141:D:/msys64/mingw64/include/c++/10.1.0/bits\stl_construct.h **** #endif
 142:D:/msys64/mingw64/include/c++/10.1.0/bits\stl_construct.h ****     }
 143:D:/msys64/mingw64/include/c++/10.1.0/bits\stl_construct.h **** 
 144:D:/msys64/mingw64/include/c++/10.1.0/bits\stl_construct.h ****   template<bool>
 145:D:/msys64/mingw64/include/c++/10.1.0/bits\stl_construct.h ****     struct _Destroy_aux
 146:D:/msys64/mingw64/include/c++/10.1.0/bits\stl_construct.h ****     {
 147:D:/msys64/mingw64/include/c++/10.1.0/bits\stl_construct.h ****       template<typename _ForwardIterator>
 148:D:/msys64/mingw64/include/c++/10.1.0/bits\stl_construct.h **** 	static _GLIBCXX20_CONSTEXPR void
 149:D:/msys64/mingw64/include/c++/10.1.0/bits\stl_construct.h **** 	__destroy(_ForwardIterator __first, _ForwardIterator __last)
 150:D:/msys64/mingw64/include/c++/10.1.0/bits\stl_construct.h **** 	{
GAS LISTING C:\Users\Ilya\AppData\Local\Temp\ccxaKDG8.s 			page 44


 151:D:/msys64/mingw64/include/c++/10.1.0/bits\stl_construct.h **** 	  for (; __first != __last; ++__first)
 152:D:/msys64/mingw64/include/c++/10.1.0/bits\stl_construct.h **** 	    std::_Destroy(std::__addressof(*__first));
 153:D:/msys64/mingw64/include/c++/10.1.0/bits\stl_construct.h **** 	}
 154:D:/msys64/mingw64/include/c++/10.1.0/bits\stl_construct.h ****     };
 155:D:/msys64/mingw64/include/c++/10.1.0/bits\stl_construct.h **** 
 156:D:/msys64/mingw64/include/c++/10.1.0/bits\stl_construct.h ****   template<>
 157:D:/msys64/mingw64/include/c++/10.1.0/bits\stl_construct.h ****     struct _Destroy_aux<true>
 158:D:/msys64/mingw64/include/c++/10.1.0/bits\stl_construct.h ****     {
 159:D:/msys64/mingw64/include/c++/10.1.0/bits\stl_construct.h ****       template<typename _ForwardIterator>
 160:D:/msys64/mingw64/include/c++/10.1.0/bits\stl_construct.h ****         static void
 161:D:/msys64/mingw64/include/c++/10.1.0/bits\stl_construct.h ****         __destroy(_ForwardIterator, _ForwardIterator) { }
 162:D:/msys64/mingw64/include/c++/10.1.0/bits\stl_construct.h ****     };
 163:D:/msys64/mingw64/include/c++/10.1.0/bits\stl_construct.h **** 
 164:D:/msys64/mingw64/include/c++/10.1.0/bits\stl_construct.h ****   /**
 165:D:/msys64/mingw64/include/c++/10.1.0/bits\stl_construct.h ****    * Destroy a range of objects.  If the value_type of the object has
 166:D:/msys64/mingw64/include/c++/10.1.0/bits\stl_construct.h ****    * a trivial destructor, the compiler should optimize all of this
 167:D:/msys64/mingw64/include/c++/10.1.0/bits\stl_construct.h ****    * away, otherwise the objects' destructors must be invoked.
 168:D:/msys64/mingw64/include/c++/10.1.0/bits\stl_construct.h ****    */
 169:D:/msys64/mingw64/include/c++/10.1.0/bits\stl_construct.h ****   template<typename _ForwardIterator>
 170:D:/msys64/mingw64/include/c++/10.1.0/bits\stl_construct.h ****     _GLIBCXX20_CONSTEXPR inline void
 171:D:/msys64/mingw64/include/c++/10.1.0/bits\stl_construct.h ****     _Destroy(_ForwardIterator __first, _ForwardIterator __last)
 586              		.loc 6 171 5
 587              		.cfi_startproc
 588 0000 55       		pushq	%rbp
 589              		.seh_pushreg	%rbp
 590              		.cfi_def_cfa_offset 16
 591              		.cfi_offset 6, -16
 592 0001 4889E5   		movq	%rsp, %rbp
 593              		.seh_setframe	%rbp, 0
 594              		.cfi_def_cfa_register 6
 595 0004 4883EC20 		subq	$32, %rsp
 596              		.seh_stackalloc	32
 597              		.seh_endprologue
 598 0008 48894D10 		movq	%rcx, 16(%rbp)
 599 000c 48895518 		movq	%rdx, 24(%rbp)
 172:D:/msys64/mingw64/include/c++/10.1.0/bits\stl_construct.h ****     {
 173:D:/msys64/mingw64/include/c++/10.1.0/bits\stl_construct.h ****       typedef typename iterator_traits<_ForwardIterator>::value_type
 174:D:/msys64/mingw64/include/c++/10.1.0/bits\stl_construct.h ****                        _Value_type;
 175:D:/msys64/mingw64/include/c++/10.1.0/bits\stl_construct.h **** #if __cplusplus >= 201103L
 176:D:/msys64/mingw64/include/c++/10.1.0/bits\stl_construct.h ****       // A deleted destructor is trivial, this ensures we reject such types:
 177:D:/msys64/mingw64/include/c++/10.1.0/bits\stl_construct.h ****       static_assert(is_destructible<_Value_type>::value,
 178:D:/msys64/mingw64/include/c++/10.1.0/bits\stl_construct.h **** 		    "value type is destructible");
 179:D:/msys64/mingw64/include/c++/10.1.0/bits\stl_construct.h **** #endif
 180:D:/msys64/mingw64/include/c++/10.1.0/bits\stl_construct.h **** #if __cplusplus > 201703L && defined __cpp_lib_is_constant_evaluated
 181:D:/msys64/mingw64/include/c++/10.1.0/bits\stl_construct.h ****       if (std::is_constant_evaluated())
 182:D:/msys64/mingw64/include/c++/10.1.0/bits\stl_construct.h **** 	return _Destroy_aux<false>::__destroy(__first, __last);
 183:D:/msys64/mingw64/include/c++/10.1.0/bits\stl_construct.h **** #endif
 184:D:/msys64/mingw64/include/c++/10.1.0/bits\stl_construct.h ****       std::_Destroy_aux<__has_trivial_destructor(_Value_type)>::
 185:D:/msys64/mingw64/include/c++/10.1.0/bits\stl_construct.h **** 	__destroy(__first, __last);
 600              		.loc 6 185 11
 601 0010 488B4518 		movq	24(%rbp), %rax
 602 0014 4889C2   		movq	%rax, %rdx
 603 0017 488B4D10 		movq	16(%rbp), %rcx
 604 001b E8000000 		call	_ZNSt12_Destroy_auxILb1EE9__destroyIPSt4pairIclEEEvT_S5_
 604      00
 186:D:/msys64/mingw64/include/c++/10.1.0/bits\stl_construct.h ****     }
 605              		.loc 6 186 5
GAS LISTING C:\Users\Ilya\AppData\Local\Temp\ccxaKDG8.s 			page 45


 606 0020 90       		nop
 607 0021 4883C420 		addq	$32, %rsp
 608 0025 5D       		popq	%rbp
 609              		.cfi_restore 6
 610              		.cfi_def_cfa 7, 8
 611 0026 C3       		ret
 612              		.cfi_endproc
 613              	.LFE2422:
 614              		.seh_endproc
 615 0027 90909090 		.section	.text$_ZN9__gnu_cxx13new_allocatorISt4pairIclEED2Ev,"x"
 615      90909090 
 615      90
 616              		.linkonce discard
 617              		.align 2
 618              		.globl	_ZN9__gnu_cxx13new_allocatorISt4pairIclEED2Ev
 620              		.seh_proc	_ZN9__gnu_cxx13new_allocatorISt4pairIclEED2Ev
 621              	_ZN9__gnu_cxx13new_allocatorISt4pairIclEED2Ev:
 622              	.LFB2461:
 623              		.file 7 "D:/msys64/mingw64/include/c++/10.1.0/ext/new_allocator.h"
   1:D:/msys64/mingw64/include/c++/10.1.0/ext\new_allocator.h **** // Allocator that wraps operator new -*- C++ -*-
   2:D:/msys64/mingw64/include/c++/10.1.0/ext\new_allocator.h **** 
   3:D:/msys64/mingw64/include/c++/10.1.0/ext\new_allocator.h **** // Copyright (C) 2001-2020 Free Software Foundation, Inc.
   4:D:/msys64/mingw64/include/c++/10.1.0/ext\new_allocator.h **** //
   5:D:/msys64/mingw64/include/c++/10.1.0/ext\new_allocator.h **** // This file is part of the GNU ISO C++ Library.  This library is free
   6:D:/msys64/mingw64/include/c++/10.1.0/ext\new_allocator.h **** // software; you can redistribute it and/or modify it under the
   7:D:/msys64/mingw64/include/c++/10.1.0/ext\new_allocator.h **** // terms of the GNU General Public License as published by the
   8:D:/msys64/mingw64/include/c++/10.1.0/ext\new_allocator.h **** // Free Software Foundation; either version 3, or (at your option)
   9:D:/msys64/mingw64/include/c++/10.1.0/ext\new_allocator.h **** // any later version.
  10:D:/msys64/mingw64/include/c++/10.1.0/ext\new_allocator.h **** 
  11:D:/msys64/mingw64/include/c++/10.1.0/ext\new_allocator.h **** // This library is distributed in the hope that it will be useful,
  12:D:/msys64/mingw64/include/c++/10.1.0/ext\new_allocator.h **** // but WITHOUT ANY WARRANTY; without even the implied warranty of
  13:D:/msys64/mingw64/include/c++/10.1.0/ext\new_allocator.h **** // MERCHANTABILITY or FITNESS FOR A PARTICULAR PURPOSE.  See the
  14:D:/msys64/mingw64/include/c++/10.1.0/ext\new_allocator.h **** // GNU General Public License for more details.
  15:D:/msys64/mingw64/include/c++/10.1.0/ext\new_allocator.h **** 
  16:D:/msys64/mingw64/include/c++/10.1.0/ext\new_allocator.h **** // Under Section 7 of GPL version 3, you are granted additional
  17:D:/msys64/mingw64/include/c++/10.1.0/ext\new_allocator.h **** // permissions described in the GCC Runtime Library Exception, version
  18:D:/msys64/mingw64/include/c++/10.1.0/ext\new_allocator.h **** // 3.1, as published by the Free Software Foundation.
  19:D:/msys64/mingw64/include/c++/10.1.0/ext\new_allocator.h **** 
  20:D:/msys64/mingw64/include/c++/10.1.0/ext\new_allocator.h **** // You should have received a copy of the GNU General Public License and
  21:D:/msys64/mingw64/include/c++/10.1.0/ext\new_allocator.h **** // a copy of the GCC Runtime Library Exception along with this program;
  22:D:/msys64/mingw64/include/c++/10.1.0/ext\new_allocator.h **** // see the files COPYING3 and COPYING.RUNTIME respectively.  If not, see
  23:D:/msys64/mingw64/include/c++/10.1.0/ext\new_allocator.h **** // <http://www.gnu.org/licenses/>.
  24:D:/msys64/mingw64/include/c++/10.1.0/ext\new_allocator.h **** 
  25:D:/msys64/mingw64/include/c++/10.1.0/ext\new_allocator.h **** /** @file ext/new_allocator.h
  26:D:/msys64/mingw64/include/c++/10.1.0/ext\new_allocator.h ****  *  This file is a GNU extension to the Standard C++ Library.
  27:D:/msys64/mingw64/include/c++/10.1.0/ext\new_allocator.h ****  */
  28:D:/msys64/mingw64/include/c++/10.1.0/ext\new_allocator.h **** 
  29:D:/msys64/mingw64/include/c++/10.1.0/ext\new_allocator.h **** #ifndef _NEW_ALLOCATOR_H
  30:D:/msys64/mingw64/include/c++/10.1.0/ext\new_allocator.h **** #define _NEW_ALLOCATOR_H 1
  31:D:/msys64/mingw64/include/c++/10.1.0/ext\new_allocator.h **** 
  32:D:/msys64/mingw64/include/c++/10.1.0/ext\new_allocator.h **** #include <bits/c++config.h>
  33:D:/msys64/mingw64/include/c++/10.1.0/ext\new_allocator.h **** #include <new>
  34:D:/msys64/mingw64/include/c++/10.1.0/ext\new_allocator.h **** #include <bits/functexcept.h>
  35:D:/msys64/mingw64/include/c++/10.1.0/ext\new_allocator.h **** #include <bits/move.h>
  36:D:/msys64/mingw64/include/c++/10.1.0/ext\new_allocator.h **** #if __cplusplus >= 201103L
  37:D:/msys64/mingw64/include/c++/10.1.0/ext\new_allocator.h **** #include <type_traits>
  38:D:/msys64/mingw64/include/c++/10.1.0/ext\new_allocator.h **** #endif
GAS LISTING C:\Users\Ilya\AppData\Local\Temp\ccxaKDG8.s 			page 46


  39:D:/msys64/mingw64/include/c++/10.1.0/ext\new_allocator.h **** 
  40:D:/msys64/mingw64/include/c++/10.1.0/ext\new_allocator.h **** namespace __gnu_cxx _GLIBCXX_VISIBILITY(default)
  41:D:/msys64/mingw64/include/c++/10.1.0/ext\new_allocator.h **** {
  42:D:/msys64/mingw64/include/c++/10.1.0/ext\new_allocator.h **** _GLIBCXX_BEGIN_NAMESPACE_VERSION
  43:D:/msys64/mingw64/include/c++/10.1.0/ext\new_allocator.h **** 
  44:D:/msys64/mingw64/include/c++/10.1.0/ext\new_allocator.h ****   /**
  45:D:/msys64/mingw64/include/c++/10.1.0/ext\new_allocator.h ****    *  @brief  An allocator that uses global new, as per [20.4].
  46:D:/msys64/mingw64/include/c++/10.1.0/ext\new_allocator.h ****    *  @ingroup allocators
  47:D:/msys64/mingw64/include/c++/10.1.0/ext\new_allocator.h ****    *
  48:D:/msys64/mingw64/include/c++/10.1.0/ext\new_allocator.h ****    *  This is precisely the allocator defined in the C++ Standard.
  49:D:/msys64/mingw64/include/c++/10.1.0/ext\new_allocator.h ****    *    - all allocation calls operator new
  50:D:/msys64/mingw64/include/c++/10.1.0/ext\new_allocator.h ****    *    - all deallocation calls operator delete
  51:D:/msys64/mingw64/include/c++/10.1.0/ext\new_allocator.h ****    *
  52:D:/msys64/mingw64/include/c++/10.1.0/ext\new_allocator.h ****    *  @tparam  _Tp  Type of allocated object.
  53:D:/msys64/mingw64/include/c++/10.1.0/ext\new_allocator.h ****    */
  54:D:/msys64/mingw64/include/c++/10.1.0/ext\new_allocator.h ****   template<typename _Tp>
  55:D:/msys64/mingw64/include/c++/10.1.0/ext\new_allocator.h ****     class new_allocator
  56:D:/msys64/mingw64/include/c++/10.1.0/ext\new_allocator.h ****     {
  57:D:/msys64/mingw64/include/c++/10.1.0/ext\new_allocator.h ****     public:
  58:D:/msys64/mingw64/include/c++/10.1.0/ext\new_allocator.h ****       typedef _Tp        value_type;
  59:D:/msys64/mingw64/include/c++/10.1.0/ext\new_allocator.h ****       typedef std::size_t     size_type;
  60:D:/msys64/mingw64/include/c++/10.1.0/ext\new_allocator.h ****       typedef std::ptrdiff_t  difference_type;
  61:D:/msys64/mingw64/include/c++/10.1.0/ext\new_allocator.h **** #if __cplusplus <= 201703L
  62:D:/msys64/mingw64/include/c++/10.1.0/ext\new_allocator.h ****       typedef _Tp*       pointer;
  63:D:/msys64/mingw64/include/c++/10.1.0/ext\new_allocator.h ****       typedef const _Tp* const_pointer;
  64:D:/msys64/mingw64/include/c++/10.1.0/ext\new_allocator.h ****       typedef _Tp&       reference;
  65:D:/msys64/mingw64/include/c++/10.1.0/ext\new_allocator.h ****       typedef const _Tp& const_reference;
  66:D:/msys64/mingw64/include/c++/10.1.0/ext\new_allocator.h **** 
  67:D:/msys64/mingw64/include/c++/10.1.0/ext\new_allocator.h ****       template<typename _Tp1>
  68:D:/msys64/mingw64/include/c++/10.1.0/ext\new_allocator.h **** 	struct rebind
  69:D:/msys64/mingw64/include/c++/10.1.0/ext\new_allocator.h **** 	{ typedef new_allocator<_Tp1> other; };
  70:D:/msys64/mingw64/include/c++/10.1.0/ext\new_allocator.h **** #endif
  71:D:/msys64/mingw64/include/c++/10.1.0/ext\new_allocator.h **** 
  72:D:/msys64/mingw64/include/c++/10.1.0/ext\new_allocator.h **** #if __cplusplus >= 201103L
  73:D:/msys64/mingw64/include/c++/10.1.0/ext\new_allocator.h ****       // _GLIBCXX_RESOLVE_LIB_DEFECTS
  74:D:/msys64/mingw64/include/c++/10.1.0/ext\new_allocator.h ****       // 2103. propagate_on_container_move_assignment
  75:D:/msys64/mingw64/include/c++/10.1.0/ext\new_allocator.h ****       typedef std::true_type propagate_on_container_move_assignment;
  76:D:/msys64/mingw64/include/c++/10.1.0/ext\new_allocator.h **** #endif
  77:D:/msys64/mingw64/include/c++/10.1.0/ext\new_allocator.h **** 
  78:D:/msys64/mingw64/include/c++/10.1.0/ext\new_allocator.h ****       _GLIBCXX20_CONSTEXPR
  79:D:/msys64/mingw64/include/c++/10.1.0/ext\new_allocator.h ****       new_allocator() _GLIBCXX_USE_NOEXCEPT { }
  80:D:/msys64/mingw64/include/c++/10.1.0/ext\new_allocator.h **** 
  81:D:/msys64/mingw64/include/c++/10.1.0/ext\new_allocator.h ****       _GLIBCXX20_CONSTEXPR
  82:D:/msys64/mingw64/include/c++/10.1.0/ext\new_allocator.h ****       new_allocator(const new_allocator&) _GLIBCXX_USE_NOEXCEPT { }
  83:D:/msys64/mingw64/include/c++/10.1.0/ext\new_allocator.h **** 
  84:D:/msys64/mingw64/include/c++/10.1.0/ext\new_allocator.h ****       template<typename _Tp1>
  85:D:/msys64/mingw64/include/c++/10.1.0/ext\new_allocator.h **** 	_GLIBCXX20_CONSTEXPR
  86:D:/msys64/mingw64/include/c++/10.1.0/ext\new_allocator.h **** 	new_allocator(const new_allocator<_Tp1>&) _GLIBCXX_USE_NOEXCEPT { }
  87:D:/msys64/mingw64/include/c++/10.1.0/ext\new_allocator.h **** 
  88:D:/msys64/mingw64/include/c++/10.1.0/ext\new_allocator.h **** #if __cplusplus <= 201703L
  89:D:/msys64/mingw64/include/c++/10.1.0/ext\new_allocator.h ****       ~new_allocator() _GLIBCXX_USE_NOEXCEPT { }
 624              		.loc 7 89 7
 625              		.cfi_startproc
 626 0000 55       		pushq	%rbp
 627              		.seh_pushreg	%rbp
 628              		.cfi_def_cfa_offset 16
 629              		.cfi_offset 6, -16
GAS LISTING C:\Users\Ilya\AppData\Local\Temp\ccxaKDG8.s 			page 47


 630 0001 4889E5   		movq	%rsp, %rbp
 631              		.seh_setframe	%rbp, 0
 632              		.cfi_def_cfa_register 6
 633              		.seh_endprologue
 634 0004 48894D10 		movq	%rcx, 16(%rbp)
 635              		.loc 7 89 48
 636 0008 90       		nop
 637 0009 5D       		popq	%rbp
 638              		.cfi_restore 6
 639              		.cfi_def_cfa 7, 8
 640 000a C3       		ret
 641              		.cfi_endproc
 642              	.LFE2461:
 643              		.seh_endproc
 644 000b 90909090 		.section	.text$_ZNSt16allocator_traitsISaISt4pairIclEEE10deallocateERS2_PS1_y,"x"
 644      90
 645              		.linkonce discard
 646              		.globl	_ZNSt16allocator_traitsISaISt4pairIclEEE10deallocateERS2_PS1_y
 648              		.seh_proc	_ZNSt16allocator_traitsISaISt4pairIclEEE10deallocateERS2_PS1_y
 649              	_ZNSt16allocator_traitsISaISt4pairIclEEE10deallocateERS2_PS1_y:
 650              	.LFB2463:
 491:D:/msys64/mingw64/include/c++/10.1.0/bits\alloc_traits.h ****       { __a.deallocate(__p, __n); }
 651              		.loc 4 491 7
 652              		.cfi_startproc
 653 0000 55       		pushq	%rbp
 654              		.seh_pushreg	%rbp
 655              		.cfi_def_cfa_offset 16
 656              		.cfi_offset 6, -16
 657 0001 4889E5   		movq	%rsp, %rbp
 658              		.seh_setframe	%rbp, 0
 659              		.cfi_def_cfa_register 6
 660 0004 4883EC20 		subq	$32, %rsp
 661              		.seh_stackalloc	32
 662              		.seh_endprologue
 663 0008 48894D10 		movq	%rcx, 16(%rbp)
 664 000c 48895518 		movq	%rdx, 24(%rbp)
 665 0010 4C894520 		movq	%r8, 32(%rbp)
 492:D:/msys64/mingw64/include/c++/10.1.0/bits\alloc_traits.h **** 
 666              		.loc 4 492 23
 667 0014 488B5520 		movq	32(%rbp), %rdx
 668 0018 488B4518 		movq	24(%rbp), %rax
 669 001c 4989D0   		movq	%rdx, %r8
 670 001f 4889C2   		movq	%rax, %rdx
 671 0022 488B4D10 		movq	16(%rbp), %rcx
 672 0026 E8000000 		call	_ZN9__gnu_cxx13new_allocatorISt4pairIclEE10deallocateEPS2_y
 672      00
 492:D:/msys64/mingw64/include/c++/10.1.0/bits\alloc_traits.h **** 
 673              		.loc 4 492 35
 674 002b 90       		nop
 675 002c 4883C420 		addq	$32, %rsp
 676 0030 5D       		popq	%rbp
 677              		.cfi_restore 6
 678              		.cfi_def_cfa 7, 8
 679 0031 C3       		ret
 680              		.cfi_endproc
 681              	.LFE2463:
 682              		.seh_endproc
GAS LISTING C:\Users\Ilya\AppData\Local\Temp\ccxaKDG8.s 			page 48


 683 0032 90909090 		.section	.text$_ZNSt12_Destroy_auxILb1EE9__destroyIPSt4pairIclEEEvT_S5_,"x"
 683      90909090 
 683      90909090 
 683      9090
 684              		.linkonce discard
 685              		.globl	_ZNSt12_Destroy_auxILb1EE9__destroyIPSt4pairIclEEEvT_S5_
 687              		.seh_proc	_ZNSt12_Destroy_auxILb1EE9__destroyIPSt4pairIclEEEvT_S5_
 688              	_ZNSt12_Destroy_auxILb1EE9__destroyIPSt4pairIclEEEvT_S5_:
 689              	.LFB2464:
 161:D:/msys64/mingw64/include/c++/10.1.0/bits\stl_construct.h ****     };
 690              		.loc 6 161 9
 691              		.cfi_startproc
 692 0000 55       		pushq	%rbp
 693              		.seh_pushreg	%rbp
 694              		.cfi_def_cfa_offset 16
 695              		.cfi_offset 6, -16
 696 0001 4889E5   		movq	%rsp, %rbp
 697              		.seh_setframe	%rbp, 0
 698              		.cfi_def_cfa_register 6
 699              		.seh_endprologue
 700 0004 48894D10 		movq	%rcx, 16(%rbp)
 701 0008 48895518 		movq	%rdx, 24(%rbp)
 161:D:/msys64/mingw64/include/c++/10.1.0/bits\stl_construct.h ****     };
 702              		.loc 6 161 57
 703 000c 90       		nop
 704 000d 5D       		popq	%rbp
 705              		.cfi_restore 6
 706              		.cfi_def_cfa 7, 8
 707 000e C3       		ret
 708              		.cfi_endproc
 709              	.LFE2464:
 710              		.seh_endproc
 711 000f 90       		.section	.text$_ZN9__gnu_cxx13new_allocatorISt4pairIclEE10deallocateEPS2_y,"x"
 712              		.linkonce discard
 713              		.align 2
 714              		.globl	_ZN9__gnu_cxx13new_allocatorISt4pairIclEE10deallocateEPS2_y
 716              		.seh_proc	_ZN9__gnu_cxx13new_allocatorISt4pairIclEE10deallocateEPS2_y
 717              	_ZN9__gnu_cxx13new_allocatorISt4pairIclEE10deallocateEPS2_y:
 718              	.LFB2494:
  90:D:/msys64/mingw64/include/c++/10.1.0/ext\new_allocator.h **** 
  91:D:/msys64/mingw64/include/c++/10.1.0/ext\new_allocator.h ****       pointer
  92:D:/msys64/mingw64/include/c++/10.1.0/ext\new_allocator.h ****       address(reference __x) const _GLIBCXX_NOEXCEPT
  93:D:/msys64/mingw64/include/c++/10.1.0/ext\new_allocator.h ****       { return std::__addressof(__x); }
  94:D:/msys64/mingw64/include/c++/10.1.0/ext\new_allocator.h **** 
  95:D:/msys64/mingw64/include/c++/10.1.0/ext\new_allocator.h ****       const_pointer
  96:D:/msys64/mingw64/include/c++/10.1.0/ext\new_allocator.h ****       address(const_reference __x) const _GLIBCXX_NOEXCEPT
  97:D:/msys64/mingw64/include/c++/10.1.0/ext\new_allocator.h ****       { return std::__addressof(__x); }
  98:D:/msys64/mingw64/include/c++/10.1.0/ext\new_allocator.h **** #endif
  99:D:/msys64/mingw64/include/c++/10.1.0/ext\new_allocator.h **** 
 100:D:/msys64/mingw64/include/c++/10.1.0/ext\new_allocator.h ****       // NB: __n is permitted to be 0.  The C++ standard says nothing
 101:D:/msys64/mingw64/include/c++/10.1.0/ext\new_allocator.h ****       // about what the return value is when __n == 0.
 102:D:/msys64/mingw64/include/c++/10.1.0/ext\new_allocator.h ****       _GLIBCXX_NODISCARD _Tp*
 103:D:/msys64/mingw64/include/c++/10.1.0/ext\new_allocator.h ****       allocate(size_type __n, const void* = static_cast<const void*>(0))
 104:D:/msys64/mingw64/include/c++/10.1.0/ext\new_allocator.h ****       {
 105:D:/msys64/mingw64/include/c++/10.1.0/ext\new_allocator.h **** 	if (__n > this->_M_max_size())
 106:D:/msys64/mingw64/include/c++/10.1.0/ext\new_allocator.h **** 	  std::__throw_bad_alloc();
 107:D:/msys64/mingw64/include/c++/10.1.0/ext\new_allocator.h **** 
GAS LISTING C:\Users\Ilya\AppData\Local\Temp\ccxaKDG8.s 			page 49


 108:D:/msys64/mingw64/include/c++/10.1.0/ext\new_allocator.h **** #if __cpp_aligned_new
 109:D:/msys64/mingw64/include/c++/10.1.0/ext\new_allocator.h **** 	if (alignof(_Tp) > __STDCPP_DEFAULT_NEW_ALIGNMENT__)
 110:D:/msys64/mingw64/include/c++/10.1.0/ext\new_allocator.h **** 	  {
 111:D:/msys64/mingw64/include/c++/10.1.0/ext\new_allocator.h **** 	    std::align_val_t __al = std::align_val_t(alignof(_Tp));
 112:D:/msys64/mingw64/include/c++/10.1.0/ext\new_allocator.h **** 	    return static_cast<_Tp*>(::operator new(__n * sizeof(_Tp), __al));
 113:D:/msys64/mingw64/include/c++/10.1.0/ext\new_allocator.h **** 	  }
 114:D:/msys64/mingw64/include/c++/10.1.0/ext\new_allocator.h **** #endif
 115:D:/msys64/mingw64/include/c++/10.1.0/ext\new_allocator.h **** 	return static_cast<_Tp*>(::operator new(__n * sizeof(_Tp)));
 116:D:/msys64/mingw64/include/c++/10.1.0/ext\new_allocator.h ****       }
 117:D:/msys64/mingw64/include/c++/10.1.0/ext\new_allocator.h **** 
 118:D:/msys64/mingw64/include/c++/10.1.0/ext\new_allocator.h ****       // __p is not permitted to be a null pointer.
 119:D:/msys64/mingw64/include/c++/10.1.0/ext\new_allocator.h ****       void
 120:D:/msys64/mingw64/include/c++/10.1.0/ext\new_allocator.h ****       deallocate(_Tp* __p, size_type __t)
 719              		.loc 7 120 7
 720              		.cfi_startproc
 721 0000 55       		pushq	%rbp
 722              		.seh_pushreg	%rbp
 723              		.cfi_def_cfa_offset 16
 724              		.cfi_offset 6, -16
 725 0001 4889E5   		movq	%rsp, %rbp
 726              		.seh_setframe	%rbp, 0
 727              		.cfi_def_cfa_register 6
 728 0004 4883EC20 		subq	$32, %rsp
 729              		.seh_stackalloc	32
 730              		.seh_endprologue
 731 0008 48894D10 		movq	%rcx, 16(%rbp)
 732 000c 48895518 		movq	%rdx, 24(%rbp)
 733 0010 4C894520 		movq	%r8, 32(%rbp)
 121:D:/msys64/mingw64/include/c++/10.1.0/ext\new_allocator.h ****       {
 122:D:/msys64/mingw64/include/c++/10.1.0/ext\new_allocator.h **** #if __cpp_aligned_new
 123:D:/msys64/mingw64/include/c++/10.1.0/ext\new_allocator.h **** 	if (alignof(_Tp) > __STDCPP_DEFAULT_NEW_ALIGNMENT__)
 124:D:/msys64/mingw64/include/c++/10.1.0/ext\new_allocator.h **** 	  {
 125:D:/msys64/mingw64/include/c++/10.1.0/ext\new_allocator.h **** 	    ::operator delete(__p,
 126:D:/msys64/mingw64/include/c++/10.1.0/ext\new_allocator.h **** # if __cpp_sized_deallocation
 127:D:/msys64/mingw64/include/c++/10.1.0/ext\new_allocator.h **** 			      __t * sizeof(_Tp),
 128:D:/msys64/mingw64/include/c++/10.1.0/ext\new_allocator.h **** # endif
 129:D:/msys64/mingw64/include/c++/10.1.0/ext\new_allocator.h **** 			      std::align_val_t(alignof(_Tp)));
 130:D:/msys64/mingw64/include/c++/10.1.0/ext\new_allocator.h **** 	    return;
 131:D:/msys64/mingw64/include/c++/10.1.0/ext\new_allocator.h **** 	  }
 132:D:/msys64/mingw64/include/c++/10.1.0/ext\new_allocator.h **** #endif
 133:D:/msys64/mingw64/include/c++/10.1.0/ext\new_allocator.h **** 	::operator delete(__p
 734              		.loc 7 133 19
 735 0014 488B4520 		movq	32(%rbp), %rax
 736 0018 488D14C5 		leaq	0(,%rax,8), %rdx
 736      00000000 
 737 0020 488B4518 		movq	24(%rbp), %rax
 738 0024 4889C1   		movq	%rax, %rcx
 739 0027 E8000000 		call	_ZdlPvy
 739      00
 134:D:/msys64/mingw64/include/c++/10.1.0/ext\new_allocator.h **** #if __cpp_sized_deallocation
 135:D:/msys64/mingw64/include/c++/10.1.0/ext\new_allocator.h **** 			  , __t * sizeof(_Tp)
 136:D:/msys64/mingw64/include/c++/10.1.0/ext\new_allocator.h **** #endif
 137:D:/msys64/mingw64/include/c++/10.1.0/ext\new_allocator.h **** 			 );
 138:D:/msys64/mingw64/include/c++/10.1.0/ext\new_allocator.h ****       }
 740              		.loc 7 138 7
 741 002c 90       		nop
 742 002d 4883C420 		addq	$32, %rsp
GAS LISTING C:\Users\Ilya\AppData\Local\Temp\ccxaKDG8.s 			page 50


 743 0031 5D       		popq	%rbp
 744              		.cfi_restore 6
 745              		.cfi_def_cfa 7, 8
 746 0032 C3       		ret
 747              		.cfi_endproc
 748              	.LFE2494:
 749              		.seh_endproc
 750              		.globl	_ZTIN13BFInterpreter20InterpreterExceptionE
 751 0033 90909090 		.section	.rdata$_ZTIN13BFInterpreter20InterpreterExceptionE,"dr"
 751      90909090 
 751      90909090 
 751      90
 752              		.linkonce same_size
 753              		.align 8
 754              	_ZTIN13BFInterpreter20InterpreterExceptionE:
 755 0000 10000000 		.quad	_ZTVN10__cxxabiv120__si_class_type_infoE+16
 755      00000000 
 756 0008 00000000 		.quad	_ZTSN13BFInterpreter20InterpreterExceptionE
 756      00000000 
 757 0010 00000000 		.quad	_ZTISt9exception
 757      00000000 
 758              		.globl	_ZTSN13BFInterpreter20InterpreterExceptionE
 759 0018 00000000 		.section	.rdata$_ZTSN13BFInterpreter20InterpreterExceptionE,"dr"
 759      00000000 
 760              		.linkonce same_size
 761              		.align 32
 762              	_ZTSN13BFInterpreter20InterpreterExceptionE:
 763 0000 4E313342 		.ascii "N13BFInterpreter20InterpreterExceptionE\0"
 763      46496E74 
 763      65727072 
 763      65746572 
 763      3230496E 
 764              		.globl	_ZTISt9exception
 765 0028 00000000 		.section	.rdata$_ZTISt9exception,"dr"
 765      00000000 
 765      00000000 
 765      00000000 
 765      00000000 
 766              		.linkonce same_size
 767              		.align 8
 768              	_ZTISt9exception:
 769 0000 10000000 		.quad	_ZTVN10__cxxabiv117__class_type_infoE+16
 769      00000000 
 770 0008 00000000 		.quad	_ZTSSt9exception
 770      00000000 
 771              		.globl	_ZTSSt9exception
 772              		.section	.rdata$_ZTSSt9exception,"dr"
 773              		.linkonce same_size
 774              		.align 8
 775              	_ZTSSt9exception:
 776 0000 53743965 		.ascii "St9exception\0"
 776      78636570 
 776      74696F6E 
 776      00
 777 000d 000000   		.text
 779              		.seh_proc	__tcf_0
 780              	__tcf_0:
GAS LISTING C:\Users\Ilya\AppData\Local\Temp\ccxaKDG8.s 			page 51


 781              	.LFB2538:
 782              		.file 8 "D:/msys64/mingw64/include/c++/10.1.0/iostream"
   1:D:/msys64/mingw64/include/c++/10.1.0\iostream **** // Standard iostream objects -*- C++ -*-
   2:D:/msys64/mingw64/include/c++/10.1.0\iostream **** 
   3:D:/msys64/mingw64/include/c++/10.1.0\iostream **** // Copyright (C) 1997-2020 Free Software Foundation, Inc.
   4:D:/msys64/mingw64/include/c++/10.1.0\iostream **** //
   5:D:/msys64/mingw64/include/c++/10.1.0\iostream **** // This file is part of the GNU ISO C++ Library.  This library is free
   6:D:/msys64/mingw64/include/c++/10.1.0\iostream **** // software; you can redistribute it and/or modify it under the
   7:D:/msys64/mingw64/include/c++/10.1.0\iostream **** // terms of the GNU General Public License as published by the
   8:D:/msys64/mingw64/include/c++/10.1.0\iostream **** // Free Software Foundation; either version 3, or (at your option)
   9:D:/msys64/mingw64/include/c++/10.1.0\iostream **** // any later version.
  10:D:/msys64/mingw64/include/c++/10.1.0\iostream **** 
  11:D:/msys64/mingw64/include/c++/10.1.0\iostream **** // This library is distributed in the hope that it will be useful,
  12:D:/msys64/mingw64/include/c++/10.1.0\iostream **** // but WITHOUT ANY WARRANTY; without even the implied warranty of
  13:D:/msys64/mingw64/include/c++/10.1.0\iostream **** // MERCHANTABILITY or FITNESS FOR A PARTICULAR PURPOSE.  See the
  14:D:/msys64/mingw64/include/c++/10.1.0\iostream **** // GNU General Public License for more details.
  15:D:/msys64/mingw64/include/c++/10.1.0\iostream **** 
  16:D:/msys64/mingw64/include/c++/10.1.0\iostream **** // Under Section 7 of GPL version 3, you are granted additional
  17:D:/msys64/mingw64/include/c++/10.1.0\iostream **** // permissions described in the GCC Runtime Library Exception, version
  18:D:/msys64/mingw64/include/c++/10.1.0\iostream **** // 3.1, as published by the Free Software Foundation.
  19:D:/msys64/mingw64/include/c++/10.1.0\iostream **** 
  20:D:/msys64/mingw64/include/c++/10.1.0\iostream **** // You should have received a copy of the GNU General Public License and
  21:D:/msys64/mingw64/include/c++/10.1.0\iostream **** // a copy of the GCC Runtime Library Exception along with this program;
  22:D:/msys64/mingw64/include/c++/10.1.0\iostream **** // see the files COPYING3 and COPYING.RUNTIME respectively.  If not, see
  23:D:/msys64/mingw64/include/c++/10.1.0\iostream **** // <http://www.gnu.org/licenses/>.
  24:D:/msys64/mingw64/include/c++/10.1.0\iostream **** 
  25:D:/msys64/mingw64/include/c++/10.1.0\iostream **** /** @file include/iostream
  26:D:/msys64/mingw64/include/c++/10.1.0\iostream ****  *  This is a Standard C++ Library header.
  27:D:/msys64/mingw64/include/c++/10.1.0\iostream ****  */
  28:D:/msys64/mingw64/include/c++/10.1.0\iostream **** 
  29:D:/msys64/mingw64/include/c++/10.1.0\iostream **** //
  30:D:/msys64/mingw64/include/c++/10.1.0\iostream **** // ISO C++ 14882: 27.3  Standard iostream objects
  31:D:/msys64/mingw64/include/c++/10.1.0\iostream **** //
  32:D:/msys64/mingw64/include/c++/10.1.0\iostream **** 
  33:D:/msys64/mingw64/include/c++/10.1.0\iostream **** #ifndef _GLIBCXX_IOSTREAM
  34:D:/msys64/mingw64/include/c++/10.1.0\iostream **** #define _GLIBCXX_IOSTREAM 1
  35:D:/msys64/mingw64/include/c++/10.1.0\iostream **** 
  36:D:/msys64/mingw64/include/c++/10.1.0\iostream **** #pragma GCC system_header
  37:D:/msys64/mingw64/include/c++/10.1.0\iostream **** 
  38:D:/msys64/mingw64/include/c++/10.1.0\iostream **** #include <bits/c++config.h>
  39:D:/msys64/mingw64/include/c++/10.1.0\iostream **** #include <ostream>
  40:D:/msys64/mingw64/include/c++/10.1.0\iostream **** #include <istream>
  41:D:/msys64/mingw64/include/c++/10.1.0\iostream **** 
  42:D:/msys64/mingw64/include/c++/10.1.0\iostream **** namespace std _GLIBCXX_VISIBILITY(default)
  43:D:/msys64/mingw64/include/c++/10.1.0\iostream **** {
  44:D:/msys64/mingw64/include/c++/10.1.0\iostream **** _GLIBCXX_BEGIN_NAMESPACE_VERSION
  45:D:/msys64/mingw64/include/c++/10.1.0\iostream **** 
  46:D:/msys64/mingw64/include/c++/10.1.0\iostream ****   /**
  47:D:/msys64/mingw64/include/c++/10.1.0\iostream ****    *  @name Standard Stream Objects
  48:D:/msys64/mingw64/include/c++/10.1.0\iostream ****    *
  49:D:/msys64/mingw64/include/c++/10.1.0\iostream ****    *  The &lt;iostream&gt; header declares the eight <em>standard stream
  50:D:/msys64/mingw64/include/c++/10.1.0\iostream ****    *  objects</em>.  For other declarations, see
  51:D:/msys64/mingw64/include/c++/10.1.0\iostream ****    *  http://gcc.gnu.org/onlinedocs/libstdc++/manual/io.html
  52:D:/msys64/mingw64/include/c++/10.1.0\iostream ****    *  and the @link iosfwd I/O forward declarations @endlink
  53:D:/msys64/mingw64/include/c++/10.1.0\iostream ****    *
  54:D:/msys64/mingw64/include/c++/10.1.0\iostream ****    *  They are required by default to cooperate with the global C
  55:D:/msys64/mingw64/include/c++/10.1.0\iostream ****    *  library's @c FILE streams, and to be available during program
GAS LISTING C:\Users\Ilya\AppData\Local\Temp\ccxaKDG8.s 			page 52


  56:D:/msys64/mingw64/include/c++/10.1.0\iostream ****    *  startup and termination. For more information, see the section of the
  57:D:/msys64/mingw64/include/c++/10.1.0\iostream ****    *  manual linked to above.
  58:D:/msys64/mingw64/include/c++/10.1.0\iostream ****   */
  59:D:/msys64/mingw64/include/c++/10.1.0\iostream ****   //@{
  60:D:/msys64/mingw64/include/c++/10.1.0\iostream ****   extern istream cin;		/// Linked to standard input
  61:D:/msys64/mingw64/include/c++/10.1.0\iostream ****   extern ostream cout;		/// Linked to standard output
  62:D:/msys64/mingw64/include/c++/10.1.0\iostream ****   extern ostream cerr;		/// Linked to standard error (unbuffered)
  63:D:/msys64/mingw64/include/c++/10.1.0\iostream ****   extern ostream clog;		/// Linked to standard error (buffered)
  64:D:/msys64/mingw64/include/c++/10.1.0\iostream **** 
  65:D:/msys64/mingw64/include/c++/10.1.0\iostream **** #ifdef _GLIBCXX_USE_WCHAR_T
  66:D:/msys64/mingw64/include/c++/10.1.0\iostream ****   extern wistream wcin;		/// Linked to standard input
  67:D:/msys64/mingw64/include/c++/10.1.0\iostream ****   extern wostream wcout;	/// Linked to standard output
  68:D:/msys64/mingw64/include/c++/10.1.0\iostream ****   extern wostream wcerr;	/// Linked to standard error (unbuffered)
  69:D:/msys64/mingw64/include/c++/10.1.0\iostream ****   extern wostream wclog;	/// Linked to standard error (buffered)
  70:D:/msys64/mingw64/include/c++/10.1.0\iostream **** #endif
  71:D:/msys64/mingw64/include/c++/10.1.0\iostream ****   //@}
  72:D:/msys64/mingw64/include/c++/10.1.0\iostream **** 
  73:D:/msys64/mingw64/include/c++/10.1.0\iostream ****   // For construction of filebuffers for cout, cin, cerr, clog et. al.
  74:D:/msys64/mingw64/include/c++/10.1.0\iostream ****   static ios_base::Init __ioinit;
 783              		.loc 8 74 25
 784              		.cfi_startproc
 785 0143 55       		pushq	%rbp
 786              		.seh_pushreg	%rbp
 787              		.cfi_def_cfa_offset 16
 788              		.cfi_offset 6, -16
 789 0144 4889E5   		movq	%rsp, %rbp
 790              		.seh_setframe	%rbp, 0
 791              		.cfi_def_cfa_register 6
 792 0147 4883EC20 		subq	$32, %rsp
 793              		.seh_stackalloc	32
 794              		.seh_endprologue
 795              		.loc 8 74 25
 796 014b 488D0D00 		leaq	_ZStL8__ioinit(%rip), %rcx
 796      000000
 797 0152 E8000000 		call	_ZNSt8ios_base4InitD1Ev
 797      00
 798 0157 90       		nop
 799 0158 4883C420 		addq	$32, %rsp
 800 015c 5D       		popq	%rbp
 801              		.cfi_restore 6
 802              		.cfi_def_cfa 7, 8
 803 015d C3       		ret
 804              		.cfi_endproc
 805              	.LFE2538:
 806              		.seh_endproc
 808              		.seh_proc	_Z41__static_initialization_and_destruction_0ii
 809              	_Z41__static_initialization_and_destruction_0ii:
 810              	.LFB2537:
 811              		.loc 2 22 1
 812              		.cfi_startproc
 813 015e 55       		pushq	%rbp
 814              		.seh_pushreg	%rbp
 815              		.cfi_def_cfa_offset 16
 816              		.cfi_offset 6, -16
 817 015f 4889E5   		movq	%rsp, %rbp
 818              		.seh_setframe	%rbp, 0
 819              		.cfi_def_cfa_register 6
GAS LISTING C:\Users\Ilya\AppData\Local\Temp\ccxaKDG8.s 			page 53


 820 0162 4883EC20 		subq	$32, %rsp
 821              		.seh_stackalloc	32
 822              		.seh_endprologue
 823 0166 894D10   		movl	%ecx, 16(%rbp)
 824 0169 895518   		movl	%edx, 24(%rbp)
 825              		.loc 2 22 1
 826 016c 837D1001 		cmpl	$1, 16(%rbp)
 827 0170 7521     		jne	.L33
 828              		.loc 2 22 1 is_stmt 0 discriminator 1
 829 0172 817D18FF 		cmpl	$65535, 24(%rbp)
 829      FF0000
 830 0179 7518     		jne	.L33
 831              		.loc 8 74 25 is_stmt 1
 832 017b 488D0D00 		leaq	_ZStL8__ioinit(%rip), %rcx
 832      000000
 833 0182 E8000000 		call	_ZNSt8ios_base4InitC1Ev
 833      00
 834 0187 488D0DB5 		leaq	__tcf_0(%rip), %rcx
 834      FFFFFF
 835 018e E8000000 		call	atexit
 835      00
 836              	.L33:
 837              		.loc 2 22 1
 838 0193 90       		nop
 839 0194 4883C420 		addq	$32, %rsp
 840 0198 5D       		popq	%rbp
 841              		.cfi_restore 6
 842              		.cfi_def_cfa 7, 8
 843 0199 C3       		ret
 844              		.cfi_endproc
 845              	.LFE2537:
 846              		.seh_endproc
 848              		.seh_proc	_GLOBAL__sub_I_main
 849              	_GLOBAL__sub_I_main:
 850              	.LFB2539:
 851              		.loc 2 22 1
 852              		.cfi_startproc
 853 019a 55       		pushq	%rbp
 854              		.seh_pushreg	%rbp
 855              		.cfi_def_cfa_offset 16
 856              		.cfi_offset 6, -16
 857 019b 4889E5   		movq	%rsp, %rbp
 858              		.seh_setframe	%rbp, 0
 859              		.cfi_def_cfa_register 6
 860 019e 4883EC20 		subq	$32, %rsp
 861              		.seh_stackalloc	32
 862              		.seh_endprologue
 863              		.loc 2 22 1
 864 01a2 BAFFFF00 		movl	$65535, %edx
 864      00
 865 01a7 B9010000 		movl	$1, %ecx
 865      00
 866 01ac E8ADFFFF 		call	_Z41__static_initialization_and_destruction_0ii
 866      FF
 867 01b1 90       		nop
 868 01b2 4883C420 		addq	$32, %rsp
 869 01b6 5D       		popq	%rbp
GAS LISTING C:\Users\Ilya\AppData\Local\Temp\ccxaKDG8.s 			page 54


 870              		.cfi_restore 6
 871              		.cfi_def_cfa 7, 8
 872 01b7 C3       		ret
 873              		.cfi_endproc
 874              	.LFE2539:
 875              		.seh_endproc
 876              		.section	.ctors,"w"
 877              		.align 8
 878 0000 9A010000 		.quad	_GLOBAL__sub_I_main
 878      00000000 
 879              		.text
 880              	.Letext0:
 881              		.file 9 "D:/msys64/mingw64/include/c++/10.1.0/bits/basic_string.h"
 882              		.file 10 "D:/msys64/mingw64/include/c++/10.1.0/cwchar"
 883              		.file 11 "D:/msys64/mingw64/include/c++/10.1.0/bits/exception_ptr.h"
 884              		.file 12 "D:/msys64/mingw64/include/c++/10.1.0/x86_64-w64-mingw32/bits/c++config.h"
 885              		.file 13 "D:/msys64/mingw64/include/c++/10.1.0/type_traits"
 886              		.file 14 "D:/msys64/mingw64/include/c++/10.1.0/bits/cpp_type_traits.h"
 887              		.file 15 "D:/msys64/mingw64/include/c++/10.1.0/bits/stl_pair.h"
 888              		.file 16 "D:/msys64/mingw64/include/c++/10.1.0/debug/debug.h"
 889              		.file 17 "D:/msys64/mingw64/include/c++/10.1.0/bits/char_traits.h"
 890              		.file 18 "D:/msys64/mingw64/include/c++/10.1.0/cstdint"
 891              		.file 19 "D:/msys64/mingw64/include/c++/10.1.0/clocale"
 892              		.file 20 "D:/msys64/mingw64/include/c++/10.1.0/cstdlib"
 893              		.file 21 "D:/msys64/mingw64/include/c++/10.1.0/cstdio"
 894              		.file 22 "D:/msys64/mingw64/include/c++/10.1.0/initializer_list"
 895              		.file 23 "D:/msys64/mingw64/include/c++/10.1.0/bits/stringfwd.h"
 896              		.file 24 "D:/msys64/mingw64/include/c++/10.1.0/system_error"
 897              		.file 25 "D:/msys64/mingw64/include/c++/10.1.0/bits/ios_base.h"
 898              		.file 26 "D:/msys64/mingw64/include/c++/10.1.0/cwctype"
 899              		.file 27 "D:/msys64/mingw64/include/c++/10.1.0/iosfwd"
 900              		.file 28 "D:/msys64/mingw64/include/c++/10.1.0/bits/vector.tcc"
 901              		.file 29 "D:/msys64/mingw64/include/c++/10.1.0/bits/stl_iterator_base_types.h"
 902              		.file 30 "D:/msys64/mingw64/include/c++/10.1.0/bits/predefined_ops.h"
 903              		.file 31 "D:/msys64/mingw64/include/c++/10.1.0/ext/alloc_traits.h"
 904              		.file 32 "D:/msys64/mingw64/include/c++/10.1.0/bits/stl_iterator.h"
 905              		.file 33 "D:/msys64/mingw64/x86_64-w64-mingw32/include/corecrt.h"
 906              		.file 34 "D:/msys64/mingw64/x86_64-w64-mingw32/include/locale.h"
 907              		.file 35 "D:/msys64/mingw64/x86_64-w64-mingw32/include/wchar.h"
 908              		.file 36 "D:/msys64/mingw64/x86_64-w64-mingw32/include/swprintf.inl"
 909              		.file 37 "D:/msys64/mingw64/x86_64-w64-mingw32/include/stdint.h"
 910              		.file 38 "D:/msys64/mingw64/x86_64-w64-mingw32/include/stdio.h"
 911              		.file 39 "D:/msys64/mingw64/include/c++/10.1.0/x86_64-w64-mingw32/bits/atomic_word.h"
 912              		.file 40 "D:/msys64/mingw64/x86_64-w64-mingw32/include/stdlib.h"
 913              		.file 41 "D:/msys64/mingw64/x86_64-w64-mingw32/include/process.h"
 914              		.file 42 "D:/msys64/mingw64/x86_64-w64-mingw32/include/wctype.h"
 915              		.file 43 "D:/coding/BFInterpreter/interpreter_status.hpp"
 916              		.file 44 "D:/coding/BFInterpreter/process.hpp"
 917              		.file 45 "<built-in>"
 918 01b8 90909090 		.section	.debug_info,"dr"
 918      90909090 
 919              	.Ldebug_info0:
 920 0000 CCDB0000 		.long	0xdbcc
 921 0004 0400     		.word	0x4
 922 0006 00000000 		.secrel32	.Ldebug_abbrev0
 923 000a 08       		.byte	0x8
 924 000b 67       		.uleb128 0x67
GAS LISTING C:\Users\Ilya\AppData\Local\Temp\ccxaKDG8.s 			page 55


 925 000c 474E5520 		.ascii "GNU C++14 10.1.0 -mtune=generic -march=x86-64 -g -fexceptions\0"
 925      432B2B31 
 925      34203130 
 925      2E312E30 
 925      202D6D74 
 926 004a 04       		.byte	0x4
 927 004b 443A5C63 		.ascii "D:\\coding\\BFInterpreter\\main.cpp\0"
 927      6F64696E 
 927      675C4246 
 927      496E7465 
 927      72707265 
 928 006c 443A5C63 		.ascii "D:\\coding\\BFInterpreter\0"
 928      6F64696E 
 928      675C4246 
 928      496E7465 
 928      72707265 
 929 0084 30000000 		.secrel32	.Ldebug_ranges0+0x30
 930 0088 00000000 		.quad	0
 930      00000000 
 931 0090 00000000 		.secrel32	.Ldebug_line0
 932 0094 68       		.uleb128 0x68
 933 0095 73746400 		.ascii "std\0"
 934 0099 2D       		.byte	0x2d
 935 009a 00       		.byte	0
 936 009b D9930000 		.long	0x93d9
 937 009f 4D       		.uleb128 0x4d
 938 00a0 5F5F6378 		.ascii "__cxx11\0"
 938      78313100 
 939 00a8 0C       		.byte	0xc
 940 00a9 1A01     		.word	0x11a
 941 00ab 41       		.byte	0x41
 942 00ac F2470000 		.long	0x47f2
 943 00b0 28       		.uleb128 0x28
 944 00b1 62617369 		.ascii "basic_string<char, std::char_traits<char>, std::allocator<char> >\0"
 944      635F7374 
 944      72696E67 
 944      3C636861 
 944      722C2073 
 945 00f3 20       		.byte	0x20
 946 00f4 09       		.byte	0x9
 947 00f5 4D       		.byte	0x4d
 948 00f6 0B       		.byte	0xb
 949 00f7 EC470000 		.long	0x47ec
 950 00fb 39       		.uleb128 0x39
 951 00fc 7B030000 		.secrel32	.LASF0
 952 0100 08       		.byte	0x8
 953 0101 09       		.byte	0x9
 954 0102 96       		.byte	0x96
 955 0103 0E       		.byte	0xe
 956 0104 F8010000 		.long	0x1f8
 957 0108 33       		.uleb128 0x33
 958 0109 FD570000 		.long	0x57fd
 959 010d 00       		.byte	0
 960 010e 21       		.uleb128 0x21
 961 010f 7B030000 		.secrel32	.LASF0
 962 0113 09       		.byte	0x9
 963 0114 9C       		.byte	0x9c
GAS LISTING C:\Users\Ilya\AppData\Local\Temp\ccxaKDG8.s 			page 56


 964 0115 02       		.byte	0x2
 965 0116 5F5A4E53 		.ascii "_ZNSt7__cxx1112basic_stringIcSt11char_traitsIcESaIcEE12_Alloc_hiderC4EPcRKS3_\0"
 965      74375F5F 
 965      63787831 
 965      31313262 
 965      61736963 
 966 0164 6C010000 		.long	0x16c
 967 0168 7C010000 		.long	0x17c
 968 016c 02       		.uleb128 0x2
 969 016d B1CA0000 		.long	0xcab1
 970 0171 01       		.uleb128 0x1
 971 0172 F8010000 		.long	0x1f8
 972 0176 01       		.uleb128 0x1
 973 0177 F0C10000 		.long	0xc1f0
 974 017b 00       		.byte	0
 975 017c 21       		.uleb128 0x21
 976 017d 7B030000 		.secrel32	.LASF0
 977 0181 09       		.byte	0x9
 978 0182 9F       		.byte	0x9f
 979 0183 02       		.byte	0x2
 980 0184 5F5A4E53 		.ascii "_ZNSt7__cxx1112basic_stringIcSt11char_traitsIcESaIcEE12_Alloc_hiderC4EPcOS3_\0"
 980      74375F5F 
 980      63787831 
 980      31313262 
 980      61736963 
 981 01d1 D9010000 		.long	0x1d9
 982 01d5 E9010000 		.long	0x1e9
 983 01d9 02       		.uleb128 0x2
 984 01da B1CA0000 		.long	0xcab1
 985 01de 01       		.uleb128 0x1
 986 01df F8010000 		.long	0x1f8
 987 01e3 01       		.uleb128 0x1
 988 01e4 B7CA0000 		.long	0xcab7
 989 01e8 00       		.byte	0
 990 01e9 09       		.uleb128 0x9
 991 01ea 5F4D5F70 		.ascii "_M_p\0"
 991      00
 992 01ef 09       		.byte	0x9
 993 01f0 A3       		.byte	0xa3
 994 01f1 0A       		.byte	0xa
 995 01f2 F8010000 		.long	0x1f8
 996 01f6 00       		.byte	0
 997 01f7 00       		.byte	0
 998 01f8 0E       		.uleb128 0xe
 999 01f9 AB000000 		.secrel32	.LASF1
 1000 01fd 09       		.byte	0x9
 1001 01fe 5C       		.byte	0x5c
 1002 01ff 30       		.byte	0x30
 1003 0200 389A0000 		.long	0x9a38
 1004 0204 01       		.byte	0x1
 1005 0205 69       		.uleb128 0x69
 1006 0206 10       		.byte	0x10
 1007 0207 09       		.byte	0x9
 1008 0208 AC       		.byte	0xac
 1009 0209 07       		.byte	0x7
 1010 020a 42020000 		.long	0x242
 1011 020e 4E       		.uleb128 0x4e
GAS LISTING C:\Users\Ilya\AppData\Local\Temp\ccxaKDG8.s 			page 57


 1012 020f 5F4D5F6C 		.ascii "_M_local_buf\0"
 1012      6F63616C 
 1012      5F627566 
 1012      00
 1013 021c 09       		.byte	0x9
 1014 021d AD       		.byte	0xad
 1015 021e 13       		.byte	0x13
 1016 021f BDCA0000 		.long	0xcabd
 1017 0223 4E       		.uleb128 0x4e
 1018 0224 5F4D5F61 		.ascii "_M_allocated_capacity\0"
 1018      6C6C6F63 
 1018      61746564 
 1018      5F636170 
 1018      61636974 
 1019 023a 09       		.byte	0x9
 1020 023b AE       		.byte	0xae
 1021 023c 13       		.byte	0x13
 1022 023d 42020000 		.long	0x242
 1023 0241 00       		.byte	0
 1024 0242 0E       		.uleb128 0xe
 1025 0243 B3000000 		.secrel32	.LASF2
 1026 0247 09       		.byte	0x9
 1027 0248 58       		.byte	0x58
 1028 0249 32       		.byte	0x32
 1029 024a 509A0000 		.long	0x9a50
 1030 024e 01       		.byte	0x1
 1031 024f 07       		.uleb128 0x7
 1032 0250 42020000 		.long	0x242
 1033 0254 6A       		.uleb128 0x6a
 1034 0255 6E706F73 		.ascii "npos\0"
 1034      00
 1035 025a 09       		.byte	0x9
 1036 025b 65       		.byte	0x65
 1037 025c 1E       		.byte	0x1e
 1038 025d 4F020000 		.long	0x24f
 1039 0261 01       		.byte	0x1
 1040 0262 09       		.uleb128 0x9
 1041 0263 5F4D5F64 		.ascii "_M_dataplus\0"
 1041      61746170 
 1041      6C757300 
 1042 026f 09       		.byte	0x9
 1043 0270 A6       		.byte	0xa6
 1044 0271 14       		.byte	0x14
 1045 0272 FB000000 		.long	0xfb
 1046 0276 00       		.byte	0
 1047 0277 09       		.uleb128 0x9
 1048 0278 5F4D5F73 		.ascii "_M_string_length\0"
 1048      7472696E 
 1048      675F6C65 
 1048      6E677468 
 1048      00
 1049 0289 09       		.byte	0x9
 1050 028a A7       		.byte	0xa7
 1051 028b 12       		.byte	0x12
 1052 028c 42020000 		.long	0x242
 1053 0290 08       		.byte	0x8
 1054 0291 6B       		.uleb128 0x6b
GAS LISTING C:\Users\Ilya\AppData\Local\Temp\ccxaKDG8.s 			page 58


 1055 0292 05020000 		.long	0x205
 1056 0296 10       		.byte	0x10
 1057 0297 23       		.uleb128 0x23
 1058 0298 5F4D5F64 		.ascii "_M_data\0"
 1058      61746100 
 1059 02a0 09       		.byte	0x9
 1060 02a1 B2       		.byte	0xb2
 1061 02a2 07       		.byte	0x7
 1062 02a3 5F5A4E53 		.ascii "_ZNSt7__cxx1112basic_stringIcSt11char_traitsIcESaIcEE7_M_dataEPc\0"
 1062      74375F5F 
 1062      63787831 
 1062      31313262 
 1062      61736963 
 1063 02e4 EC020000 		.long	0x2ec
 1064 02e8 F7020000 		.long	0x2f7
 1065 02ec 02       		.uleb128 0x2
 1066 02ed CFCA0000 		.long	0xcacf
 1067 02f1 01       		.uleb128 0x1
 1068 02f2 F8010000 		.long	0x1f8
 1069 02f6 00       		.byte	0
 1070 02f7 23       		.uleb128 0x23
 1071 02f8 5F4D5F6C 		.ascii "_M_length\0"
 1071      656E6774 
 1071      6800
 1072 0302 09       		.byte	0x9
 1073 0303 B6       		.byte	0xb6
 1074 0304 07       		.byte	0x7
 1075 0305 5F5A4E53 		.ascii "_ZNSt7__cxx1112basic_stringIcSt11char_traitsIcESaIcEE9_M_lengthEy\0"
 1075      74375F5F 
 1075      63787831 
 1075      31313262 
 1075      61736963 
 1076 0347 4F030000 		.long	0x34f
 1077 034b 5A030000 		.long	0x35a
 1078 034f 02       		.uleb128 0x2
 1079 0350 CFCA0000 		.long	0xcacf
 1080 0354 01       		.uleb128 0x1
 1081 0355 42020000 		.long	0x242
 1082 0359 00       		.byte	0
 1083 035a 26       		.uleb128 0x26
 1084 035b 5F4D5F64 		.ascii "_M_data\0"
 1084      61746100 
 1085 0363 09       		.byte	0x9
 1086 0364 BA       		.byte	0xba
 1087 0365 07       		.byte	0x7
 1088 0366 5F5A4E4B 		.ascii "_ZNKSt7__cxx1112basic_stringIcSt11char_traitsIcESaIcEE7_M_dataEv\0"
 1088      5374375F 
 1088      5F637878 
 1088      31313132 
 1088      62617369 
 1089 03a7 F8010000 		.long	0x1f8
 1090 03ab B3030000 		.long	0x3b3
 1091 03af B9030000 		.long	0x3b9
 1092 03b3 02       		.uleb128 0x2
 1093 03b4 D5CA0000 		.long	0xcad5
 1094 03b8 00       		.byte	0
 1095 03b9 2D       		.uleb128 0x2d
GAS LISTING C:\Users\Ilya\AppData\Local\Temp\ccxaKDG8.s 			page 59


 1096 03ba 4C000000 		.secrel32	.LASF3
 1097 03be 09       		.byte	0x9
 1098 03bf BE       		.byte	0xbe
 1099 03c0 07       		.byte	0x7
 1100 03c1 5F5A4E53 		.ascii "_ZNSt7__cxx1112basic_stringIcSt11char_traitsIcESaIcEE13_M_local_dataEv\0"
 1100      74375F5F 
 1100      63787831 
 1100      31313262 
 1100      61736963 
 1101 0408 F8010000 		.long	0x1f8
 1102 040c 14040000 		.long	0x414
 1103 0410 1A040000 		.long	0x41a
 1104 0414 02       		.uleb128 0x2
 1105 0415 CFCA0000 		.long	0xcacf
 1106 0419 00       		.byte	0
 1107 041a 0E       		.uleb128 0xe
 1108 041b 6B000000 		.secrel32	.LASF4
 1109 041f 09       		.byte	0x9
 1110 0420 5D       		.byte	0x5d
 1111 0421 35       		.byte	0x35
 1112 0422 449A0000 		.long	0x9a44
 1113 0426 01       		.byte	0x1
 1114 0427 2D       		.uleb128 0x2d
 1115 0428 4C000000 		.secrel32	.LASF3
 1116 042c 09       		.byte	0x9
 1117 042d C8       		.byte	0xc8
 1118 042e 07       		.byte	0x7
 1119 042f 5F5A4E4B 		.ascii "_ZNKSt7__cxx1112basic_stringIcSt11char_traitsIcESaIcEE13_M_local_dataEv\0"
 1119      5374375F 
 1119      5F637878 
 1119      31313132 
 1119      62617369 
 1120 0477 1A040000 		.long	0x41a
 1121 047b 83040000 		.long	0x483
 1122 047f 89040000 		.long	0x489
 1123 0483 02       		.uleb128 0x2
 1124 0484 D5CA0000 		.long	0xcad5
 1125 0488 00       		.byte	0
 1126 0489 23       		.uleb128 0x23
 1127 048a 5F4D5F63 		.ascii "_M_capacity\0"
 1127      61706163 
 1127      69747900 
 1128 0496 09       		.byte	0x9
 1129 0497 D2       		.byte	0xd2
 1130 0498 07       		.byte	0x7
 1131 0499 5F5A4E53 		.ascii "_ZNSt7__cxx1112basic_stringIcSt11char_traitsIcESaIcEE11_M_capacityEy\0"
 1131      74375F5F 
 1131      63787831 
 1131      31313262 
 1131      61736963 
 1132 04de E6040000 		.long	0x4e6
 1133 04e2 F1040000 		.long	0x4f1
 1134 04e6 02       		.uleb128 0x2
 1135 04e7 CFCA0000 		.long	0xcacf
 1136 04eb 01       		.uleb128 0x1
 1137 04ec 42020000 		.long	0x242
 1138 04f0 00       		.byte	0
GAS LISTING C:\Users\Ilya\AppData\Local\Temp\ccxaKDG8.s 			page 60


 1139 04f1 23       		.uleb128 0x23
 1140 04f2 5F4D5F73 		.ascii "_M_set_length\0"
 1140      65745F6C 
 1140      656E6774 
 1140      6800
 1141 0500 09       		.byte	0x9
 1142 0501 D6       		.byte	0xd6
 1143 0502 07       		.byte	0x7
 1144 0503 5F5A4E53 		.ascii "_ZNSt7__cxx1112basic_stringIcSt11char_traitsIcESaIcEE13_M_set_lengthEy\0"
 1144      74375F5F 
 1144      63787831 
 1144      31313262 
 1144      61736963 
 1145 054a 52050000 		.long	0x552
 1146 054e 5D050000 		.long	0x55d
 1147 0552 02       		.uleb128 0x2
 1148 0553 CFCA0000 		.long	0xcacf
 1149 0557 01       		.uleb128 0x1
 1150 0558 42020000 		.long	0x242
 1151 055c 00       		.byte	0
 1152 055d 26       		.uleb128 0x26
 1153 055e 5F4D5F69 		.ascii "_M_is_local\0"
 1153      735F6C6F 
 1153      63616C00 
 1154 056a 09       		.byte	0x9
 1155 056b DD       		.byte	0xdd
 1156 056c 07       		.byte	0x7
 1157 056d 5F5A4E4B 		.ascii "_ZNKSt7__cxx1112basic_stringIcSt11char_traitsIcESaIcEE11_M_is_localEv\0"
 1157      5374375F 
 1157      5F637878 
 1157      31313132 
 1157      62617369 
 1158 05b3 B0BE0000 		.long	0xbeb0
 1159 05b7 BF050000 		.long	0x5bf
 1160 05bb C5050000 		.long	0x5c5
 1161 05bf 02       		.uleb128 0x2
 1162 05c0 D5CA0000 		.long	0xcad5
 1163 05c4 00       		.byte	0
 1164 05c5 26       		.uleb128 0x26
 1165 05c6 5F4D5F63 		.ascii "_M_create\0"
 1165      72656174 
 1165      6500
 1166 05d0 09       		.byte	0x9
 1167 05d1 E2       		.byte	0xe2
 1168 05d2 07       		.byte	0x7
 1169 05d3 5F5A4E53 		.ascii "_ZNSt7__cxx1112basic_stringIcSt11char_traitsIcESaIcEE9_M_createERyy\0"
 1169      74375F5F 
 1169      63787831 
 1169      31313262 
 1169      61736963 
 1170 0617 F8010000 		.long	0x1f8
 1171 061b 23060000 		.long	0x623
 1172 061f 33060000 		.long	0x633
 1173 0623 02       		.uleb128 0x2
 1174 0624 CFCA0000 		.long	0xcacf
 1175 0628 01       		.uleb128 0x1
 1176 0629 DBCA0000 		.long	0xcadb
GAS LISTING C:\Users\Ilya\AppData\Local\Temp\ccxaKDG8.s 			page 61


 1177 062d 01       		.uleb128 0x1
 1178 062e 42020000 		.long	0x242
 1179 0632 00       		.byte	0
 1180 0633 23       		.uleb128 0x23
 1181 0634 5F4D5F64 		.ascii "_M_dispose\0"
 1181      6973706F 
 1181      736500
 1182 063f 09       		.byte	0x9
 1183 0640 E5       		.byte	0xe5
 1184 0641 07       		.byte	0x7
 1185 0642 5F5A4E53 		.ascii "_ZNSt7__cxx1112basic_stringIcSt11char_traitsIcESaIcEE10_M_disposeEv\0"
 1185      74375F5F 
 1185      63787831 
 1185      31313262 
 1185      61736963 
 1186 0686 8E060000 		.long	0x68e
 1187 068a 94060000 		.long	0x694
 1188 068e 02       		.uleb128 0x2
 1189 068f CFCA0000 		.long	0xcacf
 1190 0693 00       		.byte	0
 1191 0694 23       		.uleb128 0x23
 1192 0695 5F4D5F64 		.ascii "_M_destroy\0"
 1192      65737472 
 1192      6F7900
 1193 06a0 09       		.byte	0x9
 1194 06a1 EC       		.byte	0xec
 1195 06a2 07       		.byte	0x7
 1196 06a3 5F5A4E53 		.ascii "_ZNSt7__cxx1112basic_stringIcSt11char_traitsIcESaIcEE10_M_destroyEy\0"
 1196      74375F5F 
 1196      63787831 
 1196      31313262 
 1196      61736963 
 1197 06e7 EF060000 		.long	0x6ef
 1198 06eb FA060000 		.long	0x6fa
 1199 06ef 02       		.uleb128 0x2
 1200 06f0 CFCA0000 		.long	0xcacf
 1201 06f4 01       		.uleb128 0x1
 1202 06f5 42020000 		.long	0x242
 1203 06f9 00       		.byte	0
 1204 06fa 27       		.uleb128 0x27
 1205 06fb 5F4D5F63 		.ascii "_M_construct_aux_2\0"
 1205      6F6E7374 
 1205      72756374 
 1205      5F617578 
 1205      5F3200
 1206 070e 09       		.byte	0x9
 1207 070f 0201     		.word	0x102
 1208 0711 07       		.byte	0x7
 1209 0712 5F5A4E53 		.ascii "_ZNSt7__cxx1112basic_stringIcSt11char_traitsIcESaIcEE18_M_construct_aux_2Eyc\0"
 1209      74375F5F 
 1209      63787831 
 1209      31313262 
 1209      61736963 
 1210 075f 67070000 		.long	0x767
 1211 0763 77070000 		.long	0x777
 1212 0767 02       		.uleb128 0x2
 1213 0768 CFCA0000 		.long	0xcacf
GAS LISTING C:\Users\Ilya\AppData\Local\Temp\ccxaKDG8.s 			page 62


 1214 076c 01       		.uleb128 0x1
 1215 076d 42020000 		.long	0x242
 1216 0771 01       		.uleb128 0x1
 1217 0772 F7B10000 		.long	0xb1f7
 1218 0776 00       		.byte	0
 1219 0777 27       		.uleb128 0x27
 1220 0778 5F4D5F63 		.ascii "_M_construct\0"
 1220      6F6E7374 
 1220      72756374 
 1220      00
 1221 0785 09       		.byte	0x9
 1222 0786 1B01     		.word	0x11b
 1223 0788 07       		.byte	0x7
 1224 0789 5F5A4E53 		.ascii "_ZNSt7__cxx1112basic_stringIcSt11char_traitsIcESaIcEE12_M_constructEyc\0"
 1224      74375F5F 
 1224      63787831 
 1224      31313262 
 1224      61736963 
 1225 07d0 D8070000 		.long	0x7d8
 1226 07d4 E8070000 		.long	0x7e8
 1227 07d8 02       		.uleb128 0x2
 1228 07d9 CFCA0000 		.long	0xcacf
 1229 07dd 01       		.uleb128 0x1
 1230 07de 42020000 		.long	0x242
 1231 07e2 01       		.uleb128 0x1
 1232 07e3 F7B10000 		.long	0xb1f7
 1233 07e7 00       		.byte	0
 1234 07e8 0E       		.uleb128 0xe
 1235 07e9 41040000 		.secrel32	.LASF5
 1236 07ed 09       		.byte	0x9
 1237 07ee 57       		.byte	0x57
 1238 07ef 23       		.byte	0x23
 1239 07f0 FA070000 		.long	0x7fa
 1240 07f4 01       		.byte	0x1
 1241 07f5 07       		.uleb128 0x7
 1242 07f6 E8070000 		.long	0x7e8
 1243 07fa 0A       		.uleb128 0xa
 1244 07fb 5F436861 		.ascii "_Char_alloc_type\0"
 1244      725F616C 
 1244      6C6F635F 
 1244      74797065 
 1244      00
 1245 080c 09       		.byte	0x9
 1246 080d 50       		.byte	0x50
 1247 080e 18       		.byte	0x18
 1248 080f 8A9A0000 		.long	0x9a8a
 1249 0813 29       		.uleb128 0x29
 1250 0814 04010000 		.secrel32	.LASF6
 1251 0818 09       		.byte	0x9
 1252 0819 1E01     		.word	0x11e
 1253 081b 07       		.byte	0x7
 1254 081c 5F5A4E53 		.ascii "_ZNSt7__cxx1112basic_stringIcSt11char_traitsIcESaIcEE16_M_get_allocatorEv\0"
 1254      74375F5F 
 1254      63787831 
 1254      31313262 
 1254      61736963 
 1255 0866 E1CA0000 		.long	0xcae1
GAS LISTING C:\Users\Ilya\AppData\Local\Temp\ccxaKDG8.s 			page 63


 1256 086a 72080000 		.long	0x872
 1257 086e 78080000 		.long	0x878
 1258 0872 02       		.uleb128 0x2
 1259 0873 CFCA0000 		.long	0xcacf
 1260 0877 00       		.byte	0
 1261 0878 29       		.uleb128 0x29
 1262 0879 04010000 		.secrel32	.LASF6
 1263 087d 09       		.byte	0x9
 1264 087e 2201     		.word	0x122
 1265 0880 07       		.byte	0x7
 1266 0881 5F5A4E4B 		.ascii "_ZNKSt7__cxx1112basic_stringIcSt11char_traitsIcESaIcEE16_M_get_allocatorEv\0"
 1266      5374375F 
 1266      5F637878 
 1266      31313132 
 1266      62617369 
 1267 08cc E7CA0000 		.long	0xcae7
 1268 08d0 D8080000 		.long	0x8d8
 1269 08d4 DE080000 		.long	0x8de
 1270 08d8 02       		.uleb128 0x2
 1271 08d9 D5CA0000 		.long	0xcad5
 1272 08dd 00       		.byte	0
 1273 08de 2A       		.uleb128 0x2a
 1274 08df 5F4D5F63 		.ascii "_M_check\0"
 1274      6865636B 
 1274      00
 1275 08e8 09       		.byte	0x9
 1276 08e9 3601     		.word	0x136
 1277 08eb 07       		.byte	0x7
 1278 08ec 5F5A4E4B 		.ascii "_ZNKSt7__cxx1112basic_stringIcSt11char_traitsIcESaIcEE8_M_checkEyPKc\0"
 1278      5374375F 
 1278      5F637878 
 1278      31313132 
 1278      62617369 
 1279 0931 42020000 		.long	0x242
 1280 0935 3D090000 		.long	0x93d
 1281 0939 4D090000 		.long	0x94d
 1282 093d 02       		.uleb128 0x2
 1283 093e D5CA0000 		.long	0xcad5
 1284 0942 01       		.uleb128 0x1
 1285 0943 42020000 		.long	0x242
 1286 0947 01       		.uleb128 0x1
 1287 0948 89B70000 		.long	0xb789
 1288 094c 00       		.byte	0
 1289 094d 27       		.uleb128 0x27
 1290 094e 5F4D5F63 		.ascii "_M_check_length\0"
 1290      6865636B 
 1290      5F6C656E 
 1290      67746800 
 1291 095e 09       		.byte	0x9
 1292 095f 4001     		.word	0x140
 1293 0961 07       		.byte	0x7
 1294 0962 5F5A4E4B 		.ascii "_ZNKSt7__cxx1112basic_stringIcSt11char_traitsIcESaIcEE15_M_check_lengthEyyPKc\0"
 1294      5374375F 
 1294      5F637878 
 1294      31313132 
 1294      62617369 
 1295 09b0 B8090000 		.long	0x9b8
GAS LISTING C:\Users\Ilya\AppData\Local\Temp\ccxaKDG8.s 			page 64


 1296 09b4 CD090000 		.long	0x9cd
 1297 09b8 02       		.uleb128 0x2
 1298 09b9 D5CA0000 		.long	0xcad5
 1299 09bd 01       		.uleb128 0x1
 1300 09be 42020000 		.long	0x242
 1301 09c2 01       		.uleb128 0x1
 1302 09c3 42020000 		.long	0x242
 1303 09c7 01       		.uleb128 0x1
 1304 09c8 89B70000 		.long	0xb789
 1305 09cc 00       		.byte	0
 1306 09cd 2A       		.uleb128 0x2a
 1307 09ce 5F4D5F6C 		.ascii "_M_limit\0"
 1307      696D6974 
 1307      00
 1308 09d7 09       		.byte	0x9
 1309 09d8 4901     		.word	0x149
 1310 09da 07       		.byte	0x7
 1311 09db 5F5A4E4B 		.ascii "_ZNKSt7__cxx1112basic_stringIcSt11char_traitsIcESaIcEE8_M_limitEyy\0"
 1311      5374375F 
 1311      5F637878 
 1311      31313132 
 1311      62617369 
 1312 0a1e 42020000 		.long	0x242
 1313 0a22 2A0A0000 		.long	0xa2a
 1314 0a26 3A0A0000 		.long	0xa3a
 1315 0a2a 02       		.uleb128 0x2
 1316 0a2b D5CA0000 		.long	0xcad5
 1317 0a2f 01       		.uleb128 0x1
 1318 0a30 42020000 		.long	0x242
 1319 0a34 01       		.uleb128 0x1
 1320 0a35 42020000 		.long	0x242
 1321 0a39 00       		.byte	0
 1322 0a3a 2A       		.uleb128 0x2a
 1323 0a3b 5F4D5F64 		.ascii "_M_disjunct\0"
 1323      69736A75 
 1323      6E637400 
 1324 0a47 09       		.byte	0x9
 1325 0a48 5101     		.word	0x151
 1326 0a4a 07       		.byte	0x7
 1327 0a4b 5F5A4E4B 		.ascii "_ZNKSt7__cxx1112basic_stringIcSt11char_traitsIcESaIcEE11_M_disjunctEPKc\0"
 1327      5374375F 
 1327      5F637878 
 1327      31313132 
 1327      62617369 
 1328 0a93 B0BE0000 		.long	0xbeb0
 1329 0a97 9F0A0000 		.long	0xa9f
 1330 0a9b AA0A0000 		.long	0xaaa
 1331 0a9f 02       		.uleb128 0x2
 1332 0aa0 D5CA0000 		.long	0xcad5
 1333 0aa4 01       		.uleb128 0x1
 1334 0aa5 89B70000 		.long	0xb789
 1335 0aa9 00       		.byte	0
 1336 0aaa 40       		.uleb128 0x40
 1337 0aab 5F535F63 		.ascii "_S_copy\0"
 1337      6F707900 
 1338 0ab3 09       		.byte	0x9
 1339 0ab4 5A01     		.word	0x15a
GAS LISTING C:\Users\Ilya\AppData\Local\Temp\ccxaKDG8.s 			page 65


 1340 0ab6 07       		.byte	0x7
 1341 0ab7 5F5A4E53 		.ascii "_ZNSt7__cxx1112basic_stringIcSt11char_traitsIcESaIcEE7_S_copyEPcPKcy\0"
 1341      74375F5F 
 1341      63787831 
 1341      31313262 
 1341      61736963 
 1342 0afc 100B0000 		.long	0xb10
 1343 0b00 01       		.uleb128 0x1
 1344 0b01 B4B20000 		.long	0xb2b4
 1345 0b05 01       		.uleb128 0x1
 1346 0b06 89B70000 		.long	0xb789
 1347 0b0a 01       		.uleb128 0x1
 1348 0b0b 42020000 		.long	0x242
 1349 0b0f 00       		.byte	0
 1350 0b10 40       		.uleb128 0x40
 1351 0b11 5F535F6D 		.ascii "_S_move\0"
 1351      6F766500 
 1352 0b19 09       		.byte	0x9
 1353 0b1a 6301     		.word	0x163
 1354 0b1c 07       		.byte	0x7
 1355 0b1d 5F5A4E53 		.ascii "_ZNSt7__cxx1112basic_stringIcSt11char_traitsIcESaIcEE7_S_moveEPcPKcy\0"
 1355      74375F5F 
 1355      63787831 
 1355      31313262 
 1355      61736963 
 1356 0b62 760B0000 		.long	0xb76
 1357 0b66 01       		.uleb128 0x1
 1358 0b67 B4B20000 		.long	0xb2b4
 1359 0b6b 01       		.uleb128 0x1
 1360 0b6c 89B70000 		.long	0xb789
 1361 0b70 01       		.uleb128 0x1
 1362 0b71 42020000 		.long	0x242
 1363 0b75 00       		.byte	0
 1364 0b76 40       		.uleb128 0x40
 1365 0b77 5F535F61 		.ascii "_S_assign\0"
 1365      73736967 
 1365      6E00
 1366 0b81 09       		.byte	0x9
 1367 0b82 6C01     		.word	0x16c
 1368 0b84 07       		.byte	0x7
 1369 0b85 5F5A4E53 		.ascii "_ZNSt7__cxx1112basic_stringIcSt11char_traitsIcESaIcEE9_S_assignEPcyc\0"
 1369      74375F5F 
 1369      63787831 
 1369      31313262 
 1369      61736963 
 1370 0bca DE0B0000 		.long	0xbde
 1371 0bce 01       		.uleb128 0x1
 1372 0bcf B4B20000 		.long	0xb2b4
 1373 0bd3 01       		.uleb128 0x1
 1374 0bd4 42020000 		.long	0x242
 1375 0bd8 01       		.uleb128 0x1
 1376 0bd9 F7B10000 		.long	0xb1f7
 1377 0bdd 00       		.byte	0
 1378 0bde 2B       		.uleb128 0x2b
 1379 0bdf 78010000 		.secrel32	.LASF7
 1380 0be3 09       		.byte	0x9
 1381 0be4 7F01     		.word	0x17f
GAS LISTING C:\Users\Ilya\AppData\Local\Temp\ccxaKDG8.s 			page 66


 1382 0be6 07       		.byte	0x7
 1383 0be7 5F5A4E53 		.ascii "_ZNSt7__cxx1112basic_stringIcSt11char_traitsIcESaIcEE13_S_copy_charsEPcN9__gnu_cxx17__norm
 1383      74375F5F 
 1383      63787831 
 1383      31313262 
 1383      61736963 
 1384 0c59 6D0C0000 		.long	0xc6d
 1385 0c5d 01       		.uleb128 0x1
 1386 0c5e B4B20000 		.long	0xb2b4
 1387 0c62 01       		.uleb128 0x1
 1388 0c63 6D0C0000 		.long	0xc6d
 1389 0c67 01       		.uleb128 0x1
 1390 0c68 6D0C0000 		.long	0xc6d
 1391 0c6c 00       		.byte	0
 1392 0c6d 0E       		.uleb128 0xe
 1393 0c6e CE020000 		.secrel32	.LASF8
 1394 0c72 09       		.byte	0x9
 1395 0c73 5E       		.byte	0x5e
 1396 0c74 44       		.byte	0x44
 1397 0c75 AC9A0000 		.long	0x9aac
 1398 0c79 01       		.byte	0x1
 1399 0c7a 2B       		.uleb128 0x2b
 1400 0c7b 78010000 		.secrel32	.LASF7
 1401 0c7f 09       		.byte	0x9
 1402 0c80 8301     		.word	0x183
 1403 0c82 07       		.byte	0x7
 1404 0c83 5F5A4E53 		.ascii "_ZNSt7__cxx1112basic_stringIcSt11char_traitsIcESaIcEE13_S_copy_charsEPcN9__gnu_cxx17__norm
 1404      74375F5F 
 1404      63787831 
 1404      31313262 
 1404      61736963 
 1405 0cf5 090D0000 		.long	0xd09
 1406 0cf9 01       		.uleb128 0x1
 1407 0cfa B4B20000 		.long	0xb2b4
 1408 0cfe 01       		.uleb128 0x1
 1409 0cff 090D0000 		.long	0xd09
 1410 0d03 01       		.uleb128 0x1
 1411 0d04 090D0000 		.long	0xd09
 1412 0d08 00       		.byte	0
 1413 0d09 0E       		.uleb128 0xe
 1414 0d0a 4E010000 		.secrel32	.LASF9
 1415 0d0e 09       		.byte	0x9
 1416 0d0f 60       		.byte	0x60
 1417 0d10 08       		.byte	0x8
 1418 0d11 3EA20000 		.long	0xa23e
 1419 0d15 01       		.byte	0x1
 1420 0d16 2B       		.uleb128 0x2b
 1421 0d17 78010000 		.secrel32	.LASF7
 1422 0d1b 09       		.byte	0x9
 1423 0d1c 8801     		.word	0x188
 1424 0d1e 07       		.byte	0x7
 1425 0d1f 5F5A4E53 		.ascii "_ZNSt7__cxx1112basic_stringIcSt11char_traitsIcESaIcEE13_S_copy_charsEPcS5_S5_\0"
 1425      74375F5F 
 1425      63787831 
 1425      31313262 
 1425      61736963 
 1426 0d6d 810D0000 		.long	0xd81
GAS LISTING C:\Users\Ilya\AppData\Local\Temp\ccxaKDG8.s 			page 67


 1427 0d71 01       		.uleb128 0x1
 1428 0d72 B4B20000 		.long	0xb2b4
 1429 0d76 01       		.uleb128 0x1
 1430 0d77 B4B20000 		.long	0xb2b4
 1431 0d7b 01       		.uleb128 0x1
 1432 0d7c B4B20000 		.long	0xb2b4
 1433 0d80 00       		.byte	0
 1434 0d81 2B       		.uleb128 0x2b
 1435 0d82 78010000 		.secrel32	.LASF7
 1436 0d86 09       		.byte	0x9
 1437 0d87 8C01     		.word	0x18c
 1438 0d89 07       		.byte	0x7
 1439 0d8a 5F5A4E53 		.ascii "_ZNSt7__cxx1112basic_stringIcSt11char_traitsIcESaIcEE13_S_copy_charsEPcPKcS7_\0"
 1439      74375F5F 
 1439      63787831 
 1439      31313262 
 1439      61736963 
 1440 0dd8 EC0D0000 		.long	0xdec
 1441 0ddc 01       		.uleb128 0x1
 1442 0ddd B4B20000 		.long	0xb2b4
 1443 0de1 01       		.uleb128 0x1
 1444 0de2 89B70000 		.long	0xb789
 1445 0de6 01       		.uleb128 0x1
 1446 0de7 89B70000 		.long	0xb789
 1447 0deb 00       		.byte	0
 1448 0dec 1C       		.uleb128 0x1c
 1449 0ded 5F535F63 		.ascii "_S_compare\0"
 1449      6F6D7061 
 1449      726500
 1450 0df8 09       		.byte	0x9
 1451 0df9 9101     		.word	0x191
 1452 0dfb 07       		.byte	0x7
 1453 0dfc 5F5A4E53 		.ascii "_ZNSt7__cxx1112basic_stringIcSt11char_traitsIcESaIcEE10_S_compareEyy\0"
 1453      74375F5F 
 1453      63787831 
 1453      31313262 
 1453      61736963 
 1454 0e41 9CB20000 		.long	0xb29c
 1455 0e45 540E0000 		.long	0xe54
 1456 0e49 01       		.uleb128 0x1
 1457 0e4a 42020000 		.long	0x242
 1458 0e4e 01       		.uleb128 0x1
 1459 0e4f 42020000 		.long	0x242
 1460 0e53 00       		.byte	0
 1461 0e54 27       		.uleb128 0x27
 1462 0e55 5F4D5F61 		.ascii "_M_assign\0"
 1462      73736967 
 1462      6E00
 1463 0e5f 09       		.byte	0x9
 1464 0e60 9E01     		.word	0x19e
 1465 0e62 07       		.byte	0x7
 1466 0e63 5F5A4E53 		.ascii "_ZNSt7__cxx1112basic_stringIcSt11char_traitsIcESaIcEE9_M_assignERKS4_\0"
 1466      74375F5F 
 1466      63787831 
 1466      31313262 
 1466      61736963 
 1467 0ea9 B10E0000 		.long	0xeb1
GAS LISTING C:\Users\Ilya\AppData\Local\Temp\ccxaKDG8.s 			page 68


 1468 0ead BC0E0000 		.long	0xebc
 1469 0eb1 02       		.uleb128 0x2
 1470 0eb2 CFCA0000 		.long	0xcacf
 1471 0eb6 01       		.uleb128 0x1
 1472 0eb7 EDCA0000 		.long	0xcaed
 1473 0ebb 00       		.byte	0
 1474 0ebc 27       		.uleb128 0x27
 1475 0ebd 5F4D5F6D 		.ascii "_M_mutate\0"
 1475      75746174 
 1475      6500
 1476 0ec7 09       		.byte	0x9
 1477 0ec8 A101     		.word	0x1a1
 1478 0eca 07       		.byte	0x7
 1479 0ecb 5F5A4E53 		.ascii "_ZNSt7__cxx1112basic_stringIcSt11char_traitsIcESaIcEE9_M_mutateEyyPKcy\0"
 1479      74375F5F 
 1479      63787831 
 1479      31313262 
 1479      61736963 
 1480 0f12 1A0F0000 		.long	0xf1a
 1481 0f16 340F0000 		.long	0xf34
 1482 0f1a 02       		.uleb128 0x2
 1483 0f1b CFCA0000 		.long	0xcacf
 1484 0f1f 01       		.uleb128 0x1
 1485 0f20 42020000 		.long	0x242
 1486 0f24 01       		.uleb128 0x1
 1487 0f25 42020000 		.long	0x242
 1488 0f29 01       		.uleb128 0x1
 1489 0f2a 89B70000 		.long	0xb789
 1490 0f2e 01       		.uleb128 0x1
 1491 0f2f 42020000 		.long	0x242
 1492 0f33 00       		.byte	0
 1493 0f34 20       		.uleb128 0x20
 1494 0f35 10040000 		.secrel32	.LASF10
 1495 0f39 09       		.byte	0x9
 1496 0f3a A501     		.word	0x1a5
 1497 0f3c 07       		.byte	0x7
 1498 0f3d 5F5A4E53 		.ascii "_ZNSt7__cxx1112basic_stringIcSt11char_traitsIcESaIcEE8_M_eraseEyy\0"
 1498      74375F5F 
 1498      63787831 
 1498      31313262 
 1498      61736963 
 1499 0f7f 870F0000 		.long	0xf87
 1500 0f83 970F0000 		.long	0xf97
 1501 0f87 02       		.uleb128 0x2
 1502 0f88 CFCA0000 		.long	0xcacf
 1503 0f8c 01       		.uleb128 0x1
 1504 0f8d 42020000 		.long	0x242
 1505 0f91 01       		.uleb128 0x1
 1506 0f92 42020000 		.long	0x242
 1507 0f96 00       		.byte	0
 1508 0f97 0C       		.uleb128 0xc
 1509 0f98 6E030000 		.secrel32	.LASF11
 1510 0f9c 09       		.byte	0x9
 1511 0f9d AF01     		.word	0x1af
 1512 0f9f 07       		.byte	0x7
 1513 0fa0 5F5A4E53 		.ascii "_ZNSt7__cxx1112basic_stringIcSt11char_traitsIcESaIcEEC4Ev\0"
 1513      74375F5F 
GAS LISTING C:\Users\Ilya\AppData\Local\Temp\ccxaKDG8.s 			page 69


 1513      63787831 
 1513      31313262 
 1513      61736963 
 1514 0fda 01       		.byte	0x1
 1515 0fdb E30F0000 		.long	0xfe3
 1516 0fdf E90F0000 		.long	0xfe9
 1517 0fe3 02       		.uleb128 0x2
 1518 0fe4 CFCA0000 		.long	0xcacf
 1519 0fe8 00       		.byte	0
 1520 0fe9 34       		.uleb128 0x34
 1521 0fea 6E030000 		.secrel32	.LASF11
 1522 0fee 09       		.byte	0x9
 1523 0fef B801     		.word	0x1b8
 1524 0ff1 07       		.byte	0x7
 1525 0ff2 5F5A4E53 		.ascii "_ZNSt7__cxx1112basic_stringIcSt11char_traitsIcESaIcEEC4ERKS3_\0"
 1525      74375F5F 
 1525      63787831 
 1525      31313262 
 1525      61736963 
 1526 1030 01       		.byte	0x1
 1527 1031 39100000 		.long	0x1039
 1528 1035 44100000 		.long	0x1044
 1529 1039 02       		.uleb128 0x2
 1530 103a CFCA0000 		.long	0xcacf
 1531 103e 01       		.uleb128 0x1
 1532 103f F0C10000 		.long	0xc1f0
 1533 1043 00       		.byte	0
 1534 1044 0C       		.uleb128 0xc
 1535 1045 6E030000 		.secrel32	.LASF11
 1536 1049 09       		.byte	0x9
 1537 104a C001     		.word	0x1c0
 1538 104c 07       		.byte	0x7
 1539 104d 5F5A4E53 		.ascii "_ZNSt7__cxx1112basic_stringIcSt11char_traitsIcESaIcEEC4ERKS4_\0"
 1539      74375F5F 
 1539      63787831 
 1539      31313262 
 1539      61736963 
 1540 108b 01       		.byte	0x1
 1541 108c 94100000 		.long	0x1094
 1542 1090 9F100000 		.long	0x109f
 1543 1094 02       		.uleb128 0x2
 1544 1095 CFCA0000 		.long	0xcacf
 1545 1099 01       		.uleb128 0x1
 1546 109a EDCA0000 		.long	0xcaed
 1547 109e 00       		.byte	0
 1548 109f 0C       		.uleb128 0xc
 1549 10a0 6E030000 		.secrel32	.LASF11
 1550 10a4 09       		.byte	0x9
 1551 10a5 CD01     		.word	0x1cd
 1552 10a7 07       		.byte	0x7
 1553 10a8 5F5A4E53 		.ascii "_ZNSt7__cxx1112basic_stringIcSt11char_traitsIcESaIcEEC4ERKS4_yRKS3_\0"
 1553      74375F5F 
 1553      63787831 
 1553      31313262 
 1553      61736963 
 1554 10ec 01       		.byte	0x1
 1555 10ed F5100000 		.long	0x10f5
GAS LISTING C:\Users\Ilya\AppData\Local\Temp\ccxaKDG8.s 			page 70


 1556 10f1 0A110000 		.long	0x110a
 1557 10f5 02       		.uleb128 0x2
 1558 10f6 CFCA0000 		.long	0xcacf
 1559 10fa 01       		.uleb128 0x1
 1560 10fb EDCA0000 		.long	0xcaed
 1561 10ff 01       		.uleb128 0x1
 1562 1100 42020000 		.long	0x242
 1563 1104 01       		.uleb128 0x1
 1564 1105 F0C10000 		.long	0xc1f0
 1565 1109 00       		.byte	0
 1566 110a 0C       		.uleb128 0xc
 1567 110b 6E030000 		.secrel32	.LASF11
 1568 110f 09       		.byte	0x9
 1569 1110 DC01     		.word	0x1dc
 1570 1112 07       		.byte	0x7
 1571 1113 5F5A4E53 		.ascii "_ZNSt7__cxx1112basic_stringIcSt11char_traitsIcESaIcEEC4ERKS4_yy\0"
 1571      74375F5F 
 1571      63787831 
 1571      31313262 
 1571      61736963 
 1572 1153 01       		.byte	0x1
 1573 1154 5C110000 		.long	0x115c
 1574 1158 71110000 		.long	0x1171
 1575 115c 02       		.uleb128 0x2
 1576 115d CFCA0000 		.long	0xcacf
 1577 1161 01       		.uleb128 0x1
 1578 1162 EDCA0000 		.long	0xcaed
 1579 1166 01       		.uleb128 0x1
 1580 1167 42020000 		.long	0x242
 1581 116b 01       		.uleb128 0x1
 1582 116c 42020000 		.long	0x242
 1583 1170 00       		.byte	0
 1584 1171 0C       		.uleb128 0xc
 1585 1172 6E030000 		.secrel32	.LASF11
 1586 1176 09       		.byte	0x9
 1587 1177 EC01     		.word	0x1ec
 1588 1179 07       		.byte	0x7
 1589 117a 5F5A4E53 		.ascii "_ZNSt7__cxx1112basic_stringIcSt11char_traitsIcESaIcEEC4ERKS4_yyRKS3_\0"
 1589      74375F5F 
 1589      63787831 
 1589      31313262 
 1589      61736963 
 1590 11bf 01       		.byte	0x1
 1591 11c0 C8110000 		.long	0x11c8
 1592 11c4 E2110000 		.long	0x11e2
 1593 11c8 02       		.uleb128 0x2
 1594 11c9 CFCA0000 		.long	0xcacf
 1595 11cd 01       		.uleb128 0x1
 1596 11ce EDCA0000 		.long	0xcaed
 1597 11d2 01       		.uleb128 0x1
 1598 11d3 42020000 		.long	0x242
 1599 11d7 01       		.uleb128 0x1
 1600 11d8 42020000 		.long	0x242
 1601 11dc 01       		.uleb128 0x1
 1602 11dd F0C10000 		.long	0xc1f0
 1603 11e1 00       		.byte	0
 1604 11e2 0C       		.uleb128 0xc
GAS LISTING C:\Users\Ilya\AppData\Local\Temp\ccxaKDG8.s 			page 71


 1605 11e3 6E030000 		.secrel32	.LASF11
 1606 11e7 09       		.byte	0x9
 1607 11e8 FE01     		.word	0x1fe
 1608 11ea 07       		.byte	0x7
 1609 11eb 5F5A4E53 		.ascii "_ZNSt7__cxx1112basic_stringIcSt11char_traitsIcESaIcEEC4EPKcyRKS3_\0"
 1609      74375F5F 
 1609      63787831 
 1609      31313262 
 1609      61736963 
 1610 122d 01       		.byte	0x1
 1611 122e 36120000 		.long	0x1236
 1612 1232 4B120000 		.long	0x124b
 1613 1236 02       		.uleb128 0x2
 1614 1237 CFCA0000 		.long	0xcacf
 1615 123b 01       		.uleb128 0x1
 1616 123c 89B70000 		.long	0xb789
 1617 1240 01       		.uleb128 0x1
 1618 1241 42020000 		.long	0x242
 1619 1245 01       		.uleb128 0x1
 1620 1246 F0C10000 		.long	0xc1f0
 1621 124a 00       		.byte	0
 1622 124b 0C       		.uleb128 0xc
 1623 124c 6E030000 		.secrel32	.LASF11
 1624 1250 09       		.byte	0x9
 1625 1251 0D02     		.word	0x20d
 1626 1253 07       		.byte	0x7
 1627 1254 5F5A4E53 		.ascii "_ZNSt7__cxx1112basic_stringIcSt11char_traitsIcESaIcEEC4EPKcRKS3_\0"
 1627      74375F5F 
 1627      63787831 
 1627      31313262 
 1627      61736963 
 1628 1295 01       		.byte	0x1
 1629 1296 9E120000 		.long	0x129e
 1630 129a AE120000 		.long	0x12ae
 1631 129e 02       		.uleb128 0x2
 1632 129f CFCA0000 		.long	0xcacf
 1633 12a3 01       		.uleb128 0x1
 1634 12a4 89B70000 		.long	0xb789
 1635 12a8 01       		.uleb128 0x1
 1636 12a9 F0C10000 		.long	0xc1f0
 1637 12ad 00       		.byte	0
 1638 12ae 0C       		.uleb128 0xc
 1639 12af 6E030000 		.secrel32	.LASF11
 1640 12b3 09       		.byte	0x9
 1641 12b4 1C02     		.word	0x21c
 1642 12b6 07       		.byte	0x7
 1643 12b7 5F5A4E53 		.ascii "_ZNSt7__cxx1112basic_stringIcSt11char_traitsIcESaIcEEC4EycRKS3_\0"
 1643      74375F5F 
 1643      63787831 
 1643      31313262 
 1643      61736963 
 1644 12f7 01       		.byte	0x1
 1645 12f8 00130000 		.long	0x1300
 1646 12fc 15130000 		.long	0x1315
 1647 1300 02       		.uleb128 0x2
 1648 1301 CFCA0000 		.long	0xcacf
 1649 1305 01       		.uleb128 0x1
GAS LISTING C:\Users\Ilya\AppData\Local\Temp\ccxaKDG8.s 			page 72


 1650 1306 42020000 		.long	0x242
 1651 130a 01       		.uleb128 0x1
 1652 130b F7B10000 		.long	0xb1f7
 1653 130f 01       		.uleb128 0x1
 1654 1310 F0C10000 		.long	0xc1f0
 1655 1314 00       		.byte	0
 1656 1315 0C       		.uleb128 0xc
 1657 1316 6E030000 		.secrel32	.LASF11
 1658 131a 09       		.byte	0x9
 1659 131b 2802     		.word	0x228
 1660 131d 07       		.byte	0x7
 1661 131e 5F5A4E53 		.ascii "_ZNSt7__cxx1112basic_stringIcSt11char_traitsIcESaIcEEC4EOS4_\0"
 1661      74375F5F 
 1661      63787831 
 1661      31313262 
 1661      61736963 
 1662 135b 01       		.byte	0x1
 1663 135c 64130000 		.long	0x1364
 1664 1360 6F130000 		.long	0x136f
 1665 1364 02       		.uleb128 0x2
 1666 1365 CFCA0000 		.long	0xcacf
 1667 1369 01       		.uleb128 0x1
 1668 136a F3CA0000 		.long	0xcaf3
 1669 136e 00       		.byte	0
 1670 136f 0C       		.uleb128 0xc
 1671 1370 6E030000 		.secrel32	.LASF11
 1672 1374 09       		.byte	0x9
 1673 1375 4302     		.word	0x243
 1674 1377 07       		.byte	0x7
 1675 1378 5F5A4E53 		.ascii "_ZNSt7__cxx1112basic_stringIcSt11char_traitsIcESaIcEEC4ESt16initializer_listIcERKS3_\0"
 1675      74375F5F 
 1675      63787831 
 1675      31313262 
 1675      61736963 
 1676 13cd 01       		.byte	0x1
 1677 13ce D6130000 		.long	0x13d6
 1678 13d2 E6130000 		.long	0x13e6
 1679 13d6 02       		.uleb128 0x2
 1680 13d7 CFCA0000 		.long	0xcacf
 1681 13db 01       		.uleb128 0x1
 1682 13dc C55D0000 		.long	0x5dc5
 1683 13e0 01       		.uleb128 0x1
 1684 13e1 F0C10000 		.long	0xc1f0
 1685 13e5 00       		.byte	0
 1686 13e6 0C       		.uleb128 0xc
 1687 13e7 6E030000 		.secrel32	.LASF11
 1688 13eb 09       		.byte	0x9
 1689 13ec 4702     		.word	0x247
 1690 13ee 07       		.byte	0x7
 1691 13ef 5F5A4E53 		.ascii "_ZNSt7__cxx1112basic_stringIcSt11char_traitsIcESaIcEEC4ERKS4_RKS3_\0"
 1691      74375F5F 
 1691      63787831 
 1691      31313262 
 1691      61736963 
 1692 1432 01       		.byte	0x1
 1693 1433 3B140000 		.long	0x143b
 1694 1437 4B140000 		.long	0x144b
GAS LISTING C:\Users\Ilya\AppData\Local\Temp\ccxaKDG8.s 			page 73


 1695 143b 02       		.uleb128 0x2
 1696 143c CFCA0000 		.long	0xcacf
 1697 1440 01       		.uleb128 0x1
 1698 1441 EDCA0000 		.long	0xcaed
 1699 1445 01       		.uleb128 0x1
 1700 1446 F0C10000 		.long	0xc1f0
 1701 144a 00       		.byte	0
 1702 144b 0C       		.uleb128 0xc
 1703 144c 6E030000 		.secrel32	.LASF11
 1704 1450 09       		.byte	0x9
 1705 1451 4B02     		.word	0x24b
 1706 1453 07       		.byte	0x7
 1707 1454 5F5A4E53 		.ascii "_ZNSt7__cxx1112basic_stringIcSt11char_traitsIcESaIcEEC4EOS4_RKS3_\0"
 1707      74375F5F 
 1707      63787831 
 1707      31313262 
 1707      61736963 
 1708 1496 01       		.byte	0x1
 1709 1497 9F140000 		.long	0x149f
 1710 149b AF140000 		.long	0x14af
 1711 149f 02       		.uleb128 0x2
 1712 14a0 CFCA0000 		.long	0xcacf
 1713 14a4 01       		.uleb128 0x1
 1714 14a5 F3CA0000 		.long	0xcaf3
 1715 14a9 01       		.uleb128 0x1
 1716 14aa F0C10000 		.long	0xc1f0
 1717 14ae 00       		.byte	0
 1718 14af 17       		.uleb128 0x17
 1719 14b0 7E626173 		.ascii "~basic_string\0"
 1719      69635F73 
 1719      7472696E 
 1719      6700
 1720 14be 09       		.byte	0x9
 1721 14bf 9102     		.word	0x291
 1722 14c1 07       		.byte	0x7
 1723 14c2 5F5A4E53 		.ascii "_ZNSt7__cxx1112basic_stringIcSt11char_traitsIcESaIcEED4Ei\0"
 1723      74375F5F 
 1723      63787831 
 1723      31313262 
 1723      61736963 
 1724 14fc 01       		.byte	0x1
 1725 14fd 05150000 		.long	0x1505
 1726 1501 10150000 		.long	0x1510
 1727 1505 02       		.uleb128 0x2
 1728 1506 CFCA0000 		.long	0xcacf
 1729 150a 02       		.uleb128 0x2
 1730 150b 9CB20000 		.long	0xb29c
 1731 150f 00       		.byte	0
 1732 1510 04       		.uleb128 0x4
 1733 1511 D8000000 		.secrel32	.LASF12
 1734 1515 09       		.byte	0x9
 1735 1516 9902     		.word	0x299
 1736 1518 07       		.byte	0x7
 1737 1519 5F5A4E53 		.ascii "_ZNSt7__cxx1112basic_stringIcSt11char_traitsIcESaIcEEaSERKS4_\0"
 1737      74375F5F 
 1737      63787831 
 1737      31313262 
GAS LISTING C:\Users\Ilya\AppData\Local\Temp\ccxaKDG8.s 			page 74


 1737      61736963 
 1738 1557 F9CA0000 		.long	0xcaf9
 1739 155b 01       		.byte	0x1
 1740 155c 64150000 		.long	0x1564
 1741 1560 6F150000 		.long	0x156f
 1742 1564 02       		.uleb128 0x2
 1743 1565 CFCA0000 		.long	0xcacf
 1744 1569 01       		.uleb128 0x1
 1745 156a EDCA0000 		.long	0xcaed
 1746 156e 00       		.byte	0
 1747 156f 04       		.uleb128 0x4
 1748 1570 D8000000 		.secrel32	.LASF12
 1749 1574 09       		.byte	0x9
 1750 1575 A302     		.word	0x2a3
 1751 1577 07       		.byte	0x7
 1752 1578 5F5A4E53 		.ascii "_ZNSt7__cxx1112basic_stringIcSt11char_traitsIcESaIcEEaSEPKc\0"
 1752      74375F5F 
 1752      63787831 
 1752      31313262 
 1752      61736963 
 1753 15b4 F9CA0000 		.long	0xcaf9
 1754 15b8 01       		.byte	0x1
 1755 15b9 C1150000 		.long	0x15c1
 1756 15bd CC150000 		.long	0x15cc
 1757 15c1 02       		.uleb128 0x2
 1758 15c2 CFCA0000 		.long	0xcacf
 1759 15c6 01       		.uleb128 0x1
 1760 15c7 89B70000 		.long	0xb789
 1761 15cb 00       		.byte	0
 1762 15cc 04       		.uleb128 0x4
 1763 15cd D8000000 		.secrel32	.LASF12
 1764 15d1 09       		.byte	0x9
 1765 15d2 AE02     		.word	0x2ae
 1766 15d4 07       		.byte	0x7
 1767 15d5 5F5A4E53 		.ascii "_ZNSt7__cxx1112basic_stringIcSt11char_traitsIcESaIcEEaSEc\0"
 1767      74375F5F 
 1767      63787831 
 1767      31313262 
 1767      61736963 
 1768 160f F9CA0000 		.long	0xcaf9
 1769 1613 01       		.byte	0x1
 1770 1614 1C160000 		.long	0x161c
 1771 1618 27160000 		.long	0x1627
 1772 161c 02       		.uleb128 0x2
 1773 161d CFCA0000 		.long	0xcacf
 1774 1621 01       		.uleb128 0x1
 1775 1622 F7B10000 		.long	0xb1f7
 1776 1626 00       		.byte	0
 1777 1627 04       		.uleb128 0x4
 1778 1628 D8000000 		.secrel32	.LASF12
 1779 162c 09       		.byte	0x9
 1780 162d BF02     		.word	0x2bf
 1781 162f 07       		.byte	0x7
 1782 1630 5F5A4E53 		.ascii "_ZNSt7__cxx1112basic_stringIcSt11char_traitsIcESaIcEEaSEOS4_\0"
 1782      74375F5F 
 1782      63787831 
 1782      31313262 
GAS LISTING C:\Users\Ilya\AppData\Local\Temp\ccxaKDG8.s 			page 75


 1782      61736963 
 1783 166d F9CA0000 		.long	0xcaf9
 1784 1671 01       		.byte	0x1
 1785 1672 7A160000 		.long	0x167a
 1786 1676 85160000 		.long	0x1685
 1787 167a 02       		.uleb128 0x2
 1788 167b CFCA0000 		.long	0xcacf
 1789 167f 01       		.uleb128 0x1
 1790 1680 F3CA0000 		.long	0xcaf3
 1791 1684 00       		.byte	0
 1792 1685 04       		.uleb128 0x4
 1793 1686 D8000000 		.secrel32	.LASF12
 1794 168a 09       		.byte	0x9
 1795 168b FE02     		.word	0x2fe
 1796 168d 07       		.byte	0x7
 1797 168e 5F5A4E53 		.ascii "_ZNSt7__cxx1112basic_stringIcSt11char_traitsIcESaIcEEaSESt16initializer_listIcE\0"
 1797      74375F5F 
 1797      63787831 
 1797      31313262 
 1797      61736963 
 1798 16de F9CA0000 		.long	0xcaf9
 1799 16e2 01       		.byte	0x1
 1800 16e3 EB160000 		.long	0x16eb
 1801 16e7 F6160000 		.long	0x16f6
 1802 16eb 02       		.uleb128 0x2
 1803 16ec CFCA0000 		.long	0xcacf
 1804 16f0 01       		.uleb128 0x1
 1805 16f1 C55D0000 		.long	0x5dc5
 1806 16f5 00       		.byte	0
 1807 16f6 04       		.uleb128 0x4
 1808 16f7 B8010000 		.secrel32	.LASF13
 1809 16fb 09       		.byte	0x9
 1810 16fc 1D03     		.word	0x31d
 1811 16fe 07       		.byte	0x7
 1812 16ff 5F5A4E53 		.ascii "_ZNSt7__cxx1112basic_stringIcSt11char_traitsIcESaIcEE5beginEv\0"
 1812      74375F5F 
 1812      63787831 
 1812      31313262 
 1812      61736963 
 1813 173d 6D0C0000 		.long	0xc6d
 1814 1741 01       		.byte	0x1
 1815 1742 4A170000 		.long	0x174a
 1816 1746 50170000 		.long	0x1750
 1817 174a 02       		.uleb128 0x2
 1818 174b CFCA0000 		.long	0xcacf
 1819 174f 00       		.byte	0
 1820 1750 04       		.uleb128 0x4
 1821 1751 B8010000 		.secrel32	.LASF13
 1822 1755 09       		.byte	0x9
 1823 1756 2503     		.word	0x325
 1824 1758 07       		.byte	0x7
 1825 1759 5F5A4E4B 		.ascii "_ZNKSt7__cxx1112basic_stringIcSt11char_traitsIcESaIcEE5beginEv\0"
 1825      5374375F 
 1825      5F637878 
 1825      31313132 
 1825      62617369 
 1826 1798 090D0000 		.long	0xd09
GAS LISTING C:\Users\Ilya\AppData\Local\Temp\ccxaKDG8.s 			page 76


 1827 179c 01       		.byte	0x1
 1828 179d A5170000 		.long	0x17a5
 1829 17a1 AB170000 		.long	0x17ab
 1830 17a5 02       		.uleb128 0x2
 1831 17a6 D5CA0000 		.long	0xcad5
 1832 17aa 00       		.byte	0
 1833 17ab 0B       		.uleb128 0xb
 1834 17ac 656E6400 		.ascii "end\0"
 1835 17b0 09       		.byte	0x9
 1836 17b1 2D03     		.word	0x32d
 1837 17b3 07       		.byte	0x7
 1838 17b4 5F5A4E53 		.ascii "_ZNSt7__cxx1112basic_stringIcSt11char_traitsIcESaIcEE3endEv\0"
 1838      74375F5F 
 1838      63787831 
 1838      31313262 
 1838      61736963 
 1839 17f0 6D0C0000 		.long	0xc6d
 1840 17f4 01       		.byte	0x1
 1841 17f5 FD170000 		.long	0x17fd
 1842 17f9 03180000 		.long	0x1803
 1843 17fd 02       		.uleb128 0x2
 1844 17fe CFCA0000 		.long	0xcacf
 1845 1802 00       		.byte	0
 1846 1803 0B       		.uleb128 0xb
 1847 1804 656E6400 		.ascii "end\0"
 1848 1808 09       		.byte	0x9
 1849 1809 3503     		.word	0x335
 1850 180b 07       		.byte	0x7
 1851 180c 5F5A4E4B 		.ascii "_ZNKSt7__cxx1112basic_stringIcSt11char_traitsIcESaIcEE3endEv\0"
 1851      5374375F 
 1851      5F637878 
 1851      31313132 
 1851      62617369 
 1852 1849 090D0000 		.long	0xd09
 1853 184d 01       		.byte	0x1
 1854 184e 56180000 		.long	0x1856
 1855 1852 5C180000 		.long	0x185c
 1856 1856 02       		.uleb128 0x2
 1857 1857 D5CA0000 		.long	0xcad5
 1858 185b 00       		.byte	0
 1859 185c 0E       		.uleb128 0xe
 1860 185d 0D020000 		.secrel32	.LASF14
 1861 1861 09       		.byte	0x9
 1862 1862 62       		.byte	0x62
 1863 1863 30       		.byte	0x30
 1864 1864 6F5F0000 		.long	0x5f6f
 1865 1868 01       		.byte	0x1
 1866 1869 04       		.uleb128 0x4
 1867 186a A8030000 		.secrel32	.LASF15
 1868 186e 09       		.byte	0x9
 1869 186f 3E03     		.word	0x33e
 1870 1871 07       		.byte	0x7
 1871 1872 5F5A4E53 		.ascii "_ZNSt7__cxx1112basic_stringIcSt11char_traitsIcESaIcEE6rbeginEv\0"
 1871      74375F5F 
 1871      63787831 
 1871      31313262 
 1871      61736963 
GAS LISTING C:\Users\Ilya\AppData\Local\Temp\ccxaKDG8.s 			page 77


 1872 18b1 5C180000 		.long	0x185c
 1873 18b5 01       		.byte	0x1
 1874 18b6 BE180000 		.long	0x18be
 1875 18ba C4180000 		.long	0x18c4
 1876 18be 02       		.uleb128 0x2
 1877 18bf CFCA0000 		.long	0xcacf
 1878 18c3 00       		.byte	0
 1879 18c4 0E       		.uleb128 0xe
 1880 18c5 D7020000 		.secrel32	.LASF16
 1881 18c9 09       		.byte	0x9
 1882 18ca 61       		.byte	0x61
 1883 18cb 35       		.byte	0x35
 1884 18cc F95F0000 		.long	0x5ff9
 1885 18d0 01       		.byte	0x1
 1886 18d1 04       		.uleb128 0x4
 1887 18d2 A8030000 		.secrel32	.LASF15
 1888 18d6 09       		.byte	0x9
 1889 18d7 4703     		.word	0x347
 1890 18d9 07       		.byte	0x7
 1891 18da 5F5A4E4B 		.ascii "_ZNKSt7__cxx1112basic_stringIcSt11char_traitsIcESaIcEE6rbeginEv\0"
 1891      5374375F 
 1891      5F637878 
 1891      31313132 
 1891      62617369 
 1892 191a C4180000 		.long	0x18c4
 1893 191e 01       		.byte	0x1
 1894 191f 27190000 		.long	0x1927
 1895 1923 2D190000 		.long	0x192d
 1896 1927 02       		.uleb128 0x2
 1897 1928 D5CA0000 		.long	0xcad5
 1898 192c 00       		.byte	0
 1899 192d 0B       		.uleb128 0xb
 1900 192e 72656E64 		.ascii "rend\0"
 1900      00
 1901 1933 09       		.byte	0x9
 1902 1934 5003     		.word	0x350
 1903 1936 07       		.byte	0x7
 1904 1937 5F5A4E53 		.ascii "_ZNSt7__cxx1112basic_stringIcSt11char_traitsIcESaIcEE4rendEv\0"
 1904      74375F5F 
 1904      63787831 
 1904      31313262 
 1904      61736963 
 1905 1974 5C180000 		.long	0x185c
 1906 1978 01       		.byte	0x1
 1907 1979 81190000 		.long	0x1981
 1908 197d 87190000 		.long	0x1987
 1909 1981 02       		.uleb128 0x2
 1910 1982 CFCA0000 		.long	0xcacf
 1911 1986 00       		.byte	0
 1912 1987 0B       		.uleb128 0xb
 1913 1988 72656E64 		.ascii "rend\0"
 1913      00
 1914 198d 09       		.byte	0x9
 1915 198e 5903     		.word	0x359
 1916 1990 07       		.byte	0x7
 1917 1991 5F5A4E4B 		.ascii "_ZNKSt7__cxx1112basic_stringIcSt11char_traitsIcESaIcEE4rendEv\0"
 1917      5374375F 
GAS LISTING C:\Users\Ilya\AppData\Local\Temp\ccxaKDG8.s 			page 78


 1917      5F637878 
 1917      31313132 
 1917      62617369 
 1918 19cf C4180000 		.long	0x18c4
 1919 19d3 01       		.byte	0x1
 1920 19d4 DC190000 		.long	0x19dc
 1921 19d8 E2190000 		.long	0x19e2
 1922 19dc 02       		.uleb128 0x2
 1923 19dd D5CA0000 		.long	0xcad5
 1924 19e1 00       		.byte	0
 1925 19e2 0B       		.uleb128 0xb
 1926 19e3 63626567 		.ascii "cbegin\0"
 1926      696E00
 1927 19ea 09       		.byte	0x9
 1928 19eb 6203     		.word	0x362
 1929 19ed 07       		.byte	0x7
 1930 19ee 5F5A4E4B 		.ascii "_ZNKSt7__cxx1112basic_stringIcSt11char_traitsIcESaIcEE6cbeginEv\0"
 1930      5374375F 
 1930      5F637878 
 1930      31313132 
 1930      62617369 
 1931 1a2e 090D0000 		.long	0xd09
 1932 1a32 01       		.byte	0x1
 1933 1a33 3B1A0000 		.long	0x1a3b
 1934 1a37 411A0000 		.long	0x1a41
 1935 1a3b 02       		.uleb128 0x2
 1936 1a3c D5CA0000 		.long	0xcad5
 1937 1a40 00       		.byte	0
 1938 1a41 0B       		.uleb128 0xb
 1939 1a42 63656E64 		.ascii "cend\0"
 1939      00
 1940 1a47 09       		.byte	0x9
 1941 1a48 6A03     		.word	0x36a
 1942 1a4a 07       		.byte	0x7
 1943 1a4b 5F5A4E4B 		.ascii "_ZNKSt7__cxx1112basic_stringIcSt11char_traitsIcESaIcEE4cendEv\0"
 1943      5374375F 
 1943      5F637878 
 1943      31313132 
 1943      62617369 
 1944 1a89 090D0000 		.long	0xd09
 1945 1a8d 01       		.byte	0x1
 1946 1a8e 961A0000 		.long	0x1a96
 1947 1a92 9C1A0000 		.long	0x1a9c
 1948 1a96 02       		.uleb128 0x2
 1949 1a97 D5CA0000 		.long	0xcad5
 1950 1a9b 00       		.byte	0
 1951 1a9c 0B       		.uleb128 0xb
 1952 1a9d 63726265 		.ascii "crbegin\0"
 1952      67696E00 
 1953 1aa5 09       		.byte	0x9
 1954 1aa6 7303     		.word	0x373
 1955 1aa8 07       		.byte	0x7
 1956 1aa9 5F5A4E4B 		.ascii "_ZNKSt7__cxx1112basic_stringIcSt11char_traitsIcESaIcEE7crbeginEv\0"
 1956      5374375F 
 1956      5F637878 
 1956      31313132 
 1956      62617369 
GAS LISTING C:\Users\Ilya\AppData\Local\Temp\ccxaKDG8.s 			page 79


 1957 1aea C4180000 		.long	0x18c4
 1958 1aee 01       		.byte	0x1
 1959 1aef F71A0000 		.long	0x1af7
 1960 1af3 FD1A0000 		.long	0x1afd
 1961 1af7 02       		.uleb128 0x2
 1962 1af8 D5CA0000 		.long	0xcad5
 1963 1afc 00       		.byte	0
 1964 1afd 0B       		.uleb128 0xb
 1965 1afe 6372656E 		.ascii "crend\0"
 1965      6400
 1966 1b04 09       		.byte	0x9
 1967 1b05 7C03     		.word	0x37c
 1968 1b07 07       		.byte	0x7
 1969 1b08 5F5A4E4B 		.ascii "_ZNKSt7__cxx1112basic_stringIcSt11char_traitsIcESaIcEE5crendEv\0"
 1969      5374375F 
 1969      5F637878 
 1969      31313132 
 1969      62617369 
 1970 1b47 C4180000 		.long	0x18c4
 1971 1b4b 01       		.byte	0x1
 1972 1b4c 541B0000 		.long	0x1b54
 1973 1b50 5A1B0000 		.long	0x1b5a
 1974 1b54 02       		.uleb128 0x2
 1975 1b55 D5CA0000 		.long	0xcad5
 1976 1b59 00       		.byte	0
 1977 1b5a 0B       		.uleb128 0xb
 1978 1b5b 73697A65 		.ascii "size\0"
 1978      00
 1979 1b60 09       		.byte	0x9
 1980 1b61 8503     		.word	0x385
 1981 1b63 07       		.byte	0x7
 1982 1b64 5F5A4E4B 		.ascii "_ZNKSt7__cxx1112basic_stringIcSt11char_traitsIcESaIcEE4sizeEv\0"
 1982      5374375F 
 1982      5F637878 
 1982      31313132 
 1982      62617369 
 1983 1ba2 42020000 		.long	0x242
 1984 1ba6 01       		.byte	0x1
 1985 1ba7 AF1B0000 		.long	0x1baf
 1986 1bab B51B0000 		.long	0x1bb5
 1987 1baf 02       		.uleb128 0x2
 1988 1bb0 D5CA0000 		.long	0xcad5
 1989 1bb4 00       		.byte	0
 1990 1bb5 0B       		.uleb128 0xb
 1991 1bb6 6C656E67 		.ascii "length\0"
 1991      746800
 1992 1bbd 09       		.byte	0x9
 1993 1bbe 8B03     		.word	0x38b
 1994 1bc0 07       		.byte	0x7
 1995 1bc1 5F5A4E4B 		.ascii "_ZNKSt7__cxx1112basic_stringIcSt11char_traitsIcESaIcEE6lengthEv\0"
 1995      5374375F 
 1995      5F637878 
 1995      31313132 
 1995      62617369 
 1996 1c01 42020000 		.long	0x242
 1997 1c05 01       		.byte	0x1
 1998 1c06 0E1C0000 		.long	0x1c0e
GAS LISTING C:\Users\Ilya\AppData\Local\Temp\ccxaKDG8.s 			page 80


 1999 1c0a 141C0000 		.long	0x1c14
 2000 1c0e 02       		.uleb128 0x2
 2001 1c0f D5CA0000 		.long	0xcad5
 2002 1c13 00       		.byte	0
 2003 1c14 04       		.uleb128 0x4
 2004 1c15 50040000 		.secrel32	.LASF17
 2005 1c19 09       		.byte	0x9
 2006 1c1a 9003     		.word	0x390
 2007 1c1c 07       		.byte	0x7
 2008 1c1d 5F5A4E4B 		.ascii "_ZNKSt7__cxx1112basic_stringIcSt11char_traitsIcESaIcEE8max_sizeEv\0"
 2008      5374375F 
 2008      5F637878 
 2008      31313132 
 2008      62617369 
 2009 1c5f 42020000 		.long	0x242
 2010 1c63 01       		.byte	0x1
 2011 1c64 6C1C0000 		.long	0x1c6c
 2012 1c68 721C0000 		.long	0x1c72
 2013 1c6c 02       		.uleb128 0x2
 2014 1c6d D5CA0000 		.long	0xcad5
 2015 1c71 00       		.byte	0
 2016 1c72 0C       		.uleb128 0xc
 2017 1c73 94040000 		.secrel32	.LASF18
 2018 1c77 09       		.byte	0x9
 2019 1c78 9E03     		.word	0x39e
 2020 1c7a 07       		.byte	0x7
 2021 1c7b 5F5A4E53 		.ascii "_ZNSt7__cxx1112basic_stringIcSt11char_traitsIcESaIcEE6resizeEyc\0"
 2021      74375F5F 
 2021      63787831 
 2021      31313262 
 2021      61736963 
 2022 1cbb 01       		.byte	0x1
 2023 1cbc C41C0000 		.long	0x1cc4
 2024 1cc0 D41C0000 		.long	0x1cd4
 2025 1cc4 02       		.uleb128 0x2
 2026 1cc5 CFCA0000 		.long	0xcacf
 2027 1cc9 01       		.uleb128 0x1
 2028 1cca 42020000 		.long	0x242
 2029 1cce 01       		.uleb128 0x1
 2030 1ccf F7B10000 		.long	0xb1f7
 2031 1cd3 00       		.byte	0
 2032 1cd4 0C       		.uleb128 0xc
 2033 1cd5 94040000 		.secrel32	.LASF18
 2034 1cd9 09       		.byte	0x9
 2035 1cda AB03     		.word	0x3ab
 2036 1cdc 07       		.byte	0x7
 2037 1cdd 5F5A4E53 		.ascii "_ZNSt7__cxx1112basic_stringIcSt11char_traitsIcESaIcEE6resizeEy\0"
 2037      74375F5F 
 2037      63787831 
 2037      31313262 
 2037      61736963 
 2038 1d1c 01       		.byte	0x1
 2039 1d1d 251D0000 		.long	0x1d25
 2040 1d21 301D0000 		.long	0x1d30
 2041 1d25 02       		.uleb128 0x2
 2042 1d26 CFCA0000 		.long	0xcacf
 2043 1d2a 01       		.uleb128 0x1
GAS LISTING C:\Users\Ilya\AppData\Local\Temp\ccxaKDG8.s 			page 81


 2044 1d2b 42020000 		.long	0x242
 2045 1d2f 00       		.byte	0
 2046 1d30 0C       		.uleb128 0xc
 2047 1d31 BE010000 		.secrel32	.LASF19
 2048 1d35 09       		.byte	0x9
 2049 1d36 B103     		.word	0x3b1
 2050 1d38 07       		.byte	0x7
 2051 1d39 5F5A4E53 		.ascii "_ZNSt7__cxx1112basic_stringIcSt11char_traitsIcESaIcEE13shrink_to_fitEv\0"
 2051      74375F5F 
 2051      63787831 
 2051      31313262 
 2051      61736963 
 2052 1d80 01       		.byte	0x1
 2053 1d81 891D0000 		.long	0x1d89
 2054 1d85 8F1D0000 		.long	0x1d8f
 2055 1d89 02       		.uleb128 0x2
 2056 1d8a CFCA0000 		.long	0xcacf
 2057 1d8e 00       		.byte	0
 2058 1d8f 04       		.uleb128 0x4
 2059 1d90 00000000 		.secrel32	.LASF20
 2060 1d94 09       		.byte	0x9
 2061 1d95 C403     		.word	0x3c4
 2062 1d97 07       		.byte	0x7
 2063 1d98 5F5A4E4B 		.ascii "_ZNKSt7__cxx1112basic_stringIcSt11char_traitsIcESaIcEE8capacityEv\0"
 2063      5374375F 
 2063      5F637878 
 2063      31313132 
 2063      62617369 
 2064 1dda 42020000 		.long	0x242
 2065 1dde 01       		.byte	0x1
 2066 1ddf E71D0000 		.long	0x1de7
 2067 1de3 ED1D0000 		.long	0x1ded
 2068 1de7 02       		.uleb128 0x2
 2069 1de8 D5CA0000 		.long	0xcad5
 2070 1dec 00       		.byte	0
 2071 1ded 17       		.uleb128 0x17
 2072 1dee 72657365 		.ascii "reserve\0"
 2072      72766500 
 2073 1df6 09       		.byte	0x9
 2074 1df7 DC03     		.word	0x3dc
 2075 1df9 07       		.byte	0x7
 2076 1dfa 5F5A4E53 		.ascii "_ZNSt7__cxx1112basic_stringIcSt11char_traitsIcESaIcEE7reserveEy\0"
 2076      74375F5F 
 2076      63787831 
 2076      31313262 
 2076      61736963 
 2077 1e3a 01       		.byte	0x1
 2078 1e3b 431E0000 		.long	0x1e43
 2079 1e3f 4E1E0000 		.long	0x1e4e
 2080 1e43 02       		.uleb128 0x2
 2081 1e44 CFCA0000 		.long	0xcacf
 2082 1e48 01       		.uleb128 0x1
 2083 1e49 42020000 		.long	0x242
 2084 1e4d 00       		.byte	0
 2085 1e4e 17       		.uleb128 0x17
 2086 1e4f 636C6561 		.ascii "clear\0"
 2086      7200
GAS LISTING C:\Users\Ilya\AppData\Local\Temp\ccxaKDG8.s 			page 82


 2087 1e55 09       		.byte	0x9
 2088 1e56 E203     		.word	0x3e2
 2089 1e58 07       		.byte	0x7
 2090 1e59 5F5A4E53 		.ascii "_ZNSt7__cxx1112basic_stringIcSt11char_traitsIcESaIcEE5clearEv\0"
 2090      74375F5F 
 2090      63787831 
 2090      31313262 
 2090      61736963 
 2091 1e97 01       		.byte	0x1
 2092 1e98 A01E0000 		.long	0x1ea0
 2093 1e9c A61E0000 		.long	0x1ea6
 2094 1ea0 02       		.uleb128 0x2
 2095 1ea1 CFCA0000 		.long	0xcacf
 2096 1ea5 00       		.byte	0
 2097 1ea6 0B       		.uleb128 0xb
 2098 1ea7 656D7074 		.ascii "empty\0"
 2098      7900
 2099 1ead 09       		.byte	0x9
 2100 1eae EA03     		.word	0x3ea
 2101 1eb0 07       		.byte	0x7
 2102 1eb1 5F5A4E4B 		.ascii "_ZNKSt7__cxx1112basic_stringIcSt11char_traitsIcESaIcEE5emptyEv\0"
 2102      5374375F 
 2102      5F637878 
 2102      31313132 
 2102      62617369 
 2103 1ef0 B0BE0000 		.long	0xbeb0
 2104 1ef4 01       		.byte	0x1
 2105 1ef5 FD1E0000 		.long	0x1efd
 2106 1ef9 031F0000 		.long	0x1f03
 2107 1efd 02       		.uleb128 0x2
 2108 1efe D5CA0000 		.long	0xcad5
 2109 1f02 00       		.byte	0
 2110 1f03 0E       		.uleb128 0xe
 2111 1f04 B0020000 		.secrel32	.LASF21
 2112 1f08 09       		.byte	0x9
 2113 1f09 5B       		.byte	0x5b
 2114 1f0a 37       		.byte	0x37
 2115 1f0b 689A0000 		.long	0x9a68
 2116 1f0f 01       		.byte	0x1
 2117 1f10 04       		.uleb128 0x4
 2118 1f11 65040000 		.secrel32	.LASF22
 2119 1f15 09       		.byte	0x9
 2120 1f16 F903     		.word	0x3f9
 2121 1f18 07       		.byte	0x7
 2122 1f19 5F5A4E4B 		.ascii "_ZNKSt7__cxx1112basic_stringIcSt11char_traitsIcESaIcEEixEy\0"
 2122      5374375F 
 2122      5F637878 
 2122      31313132 
 2122      62617369 
 2123 1f54 031F0000 		.long	0x1f03
 2124 1f58 01       		.byte	0x1
 2125 1f59 611F0000 		.long	0x1f61
 2126 1f5d 6C1F0000 		.long	0x1f6c
 2127 1f61 02       		.uleb128 0x2
 2128 1f62 D5CA0000 		.long	0xcad5
 2129 1f66 01       		.uleb128 0x1
 2130 1f67 42020000 		.long	0x242
GAS LISTING C:\Users\Ilya\AppData\Local\Temp\ccxaKDG8.s 			page 83


 2131 1f6b 00       		.byte	0
 2132 1f6c 0E       		.uleb128 0xe
 2133 1f6d 45020000 		.secrel32	.LASF23
 2134 1f71 09       		.byte	0x9
 2135 1f72 5A       		.byte	0x5a
 2136 1f73 32       		.byte	0x32
 2137 1f74 5C9A0000 		.long	0x9a5c
 2138 1f78 01       		.byte	0x1
 2139 1f79 04       		.uleb128 0x4
 2140 1f7a 65040000 		.secrel32	.LASF22
 2141 1f7e 09       		.byte	0x9
 2142 1f7f 0A04     		.word	0x40a
 2143 1f81 07       		.byte	0x7
 2144 1f82 5F5A4E53 		.ascii "_ZNSt7__cxx1112basic_stringIcSt11char_traitsIcESaIcEEixEy\0"
 2144      74375F5F 
 2144      63787831 
 2144      31313262 
 2144      61736963 
 2145 1fbc 6C1F0000 		.long	0x1f6c
 2146 1fc0 01       		.byte	0x1
 2147 1fc1 C91F0000 		.long	0x1fc9
 2148 1fc5 D41F0000 		.long	0x1fd4
 2149 1fc9 02       		.uleb128 0x2
 2150 1fca CFCA0000 		.long	0xcacf
 2151 1fce 01       		.uleb128 0x1
 2152 1fcf 42020000 		.long	0x242
 2153 1fd3 00       		.byte	0
 2154 1fd4 0B       		.uleb128 0xb
 2155 1fd5 617400   		.ascii "at\0"
 2156 1fd8 09       		.byte	0x9
 2157 1fd9 1F04     		.word	0x41f
 2158 1fdb 07       		.byte	0x7
 2159 1fdc 5F5A4E4B 		.ascii "_ZNKSt7__cxx1112basic_stringIcSt11char_traitsIcESaIcEE2atEy\0"
 2159      5374375F 
 2159      5F637878 
 2159      31313132 
 2159      62617369 
 2160 2018 031F0000 		.long	0x1f03
 2161 201c 01       		.byte	0x1
 2162 201d 25200000 		.long	0x2025
 2163 2021 30200000 		.long	0x2030
 2164 2025 02       		.uleb128 0x2
 2165 2026 D5CA0000 		.long	0xcad5
 2166 202a 01       		.uleb128 0x1
 2167 202b 42020000 		.long	0x242
 2168 202f 00       		.byte	0
 2169 2030 0B       		.uleb128 0xb
 2170 2031 617400   		.ascii "at\0"
 2171 2034 09       		.byte	0x9
 2172 2035 3404     		.word	0x434
 2173 2037 07       		.byte	0x7
 2174 2038 5F5A4E53 		.ascii "_ZNSt7__cxx1112basic_stringIcSt11char_traitsIcESaIcEE2atEy\0"
 2174      74375F5F 
 2174      63787831 
 2174      31313262 
 2174      61736963 
 2175 2073 6C1F0000 		.long	0x1f6c
GAS LISTING C:\Users\Ilya\AppData\Local\Temp\ccxaKDG8.s 			page 84


 2176 2077 01       		.byte	0x1
 2177 2078 80200000 		.long	0x2080
 2178 207c 8B200000 		.long	0x208b
 2179 2080 02       		.uleb128 0x2
 2180 2081 CFCA0000 		.long	0xcacf
 2181 2085 01       		.uleb128 0x1
 2182 2086 42020000 		.long	0x242
 2183 208a 00       		.byte	0
 2184 208b 04       		.uleb128 0x4
 2185 208c 2C030000 		.secrel32	.LASF24
 2186 2090 09       		.byte	0x9
 2187 2091 4404     		.word	0x444
 2188 2093 07       		.byte	0x7
 2189 2094 5F5A4E53 		.ascii "_ZNSt7__cxx1112basic_stringIcSt11char_traitsIcESaIcEE5frontEv\0"
 2189      74375F5F 
 2189      63787831 
 2189      31313262 
 2189      61736963 
 2190 20d2 6C1F0000 		.long	0x1f6c
 2191 20d6 01       		.byte	0x1
 2192 20d7 DF200000 		.long	0x20df
 2193 20db E5200000 		.long	0x20e5
 2194 20df 02       		.uleb128 0x2
 2195 20e0 CFCA0000 		.long	0xcacf
 2196 20e4 00       		.byte	0
 2197 20e5 04       		.uleb128 0x4
 2198 20e6 2C030000 		.secrel32	.LASF24
 2199 20ea 09       		.byte	0x9
 2200 20eb 4F04     		.word	0x44f
 2201 20ed 07       		.byte	0x7
 2202 20ee 5F5A4E4B 		.ascii "_ZNKSt7__cxx1112basic_stringIcSt11char_traitsIcESaIcEE5frontEv\0"
 2202      5374375F 
 2202      5F637878 
 2202      31313132 
 2202      62617369 
 2203 212d 031F0000 		.long	0x1f03
 2204 2131 01       		.byte	0x1
 2205 2132 3A210000 		.long	0x213a
 2206 2136 40210000 		.long	0x2140
 2207 213a 02       		.uleb128 0x2
 2208 213b D5CA0000 		.long	0xcad5
 2209 213f 00       		.byte	0
 2210 2140 0B       		.uleb128 0xb
 2211 2141 6261636B 		.ascii "back\0"
 2211      00
 2212 2146 09       		.byte	0x9
 2213 2147 5A04     		.word	0x45a
 2214 2149 07       		.byte	0x7
 2215 214a 5F5A4E53 		.ascii "_ZNSt7__cxx1112basic_stringIcSt11char_traitsIcESaIcEE4backEv\0"
 2215      74375F5F 
 2215      63787831 
 2215      31313262 
 2215      61736963 
 2216 2187 6C1F0000 		.long	0x1f6c
 2217 218b 01       		.byte	0x1
 2218 218c 94210000 		.long	0x2194
 2219 2190 9A210000 		.long	0x219a
GAS LISTING C:\Users\Ilya\AppData\Local\Temp\ccxaKDG8.s 			page 85


 2220 2194 02       		.uleb128 0x2
 2221 2195 CFCA0000 		.long	0xcacf
 2222 2199 00       		.byte	0
 2223 219a 0B       		.uleb128 0xb
 2224 219b 6261636B 		.ascii "back\0"
 2224      00
 2225 21a0 09       		.byte	0x9
 2226 21a1 6504     		.word	0x465
 2227 21a3 07       		.byte	0x7
 2228 21a4 5F5A4E4B 		.ascii "_ZNKSt7__cxx1112basic_stringIcSt11char_traitsIcESaIcEE4backEv\0"
 2228      5374375F 
 2228      5F637878 
 2228      31313132 
 2228      62617369 
 2229 21e2 031F0000 		.long	0x1f03
 2230 21e6 01       		.byte	0x1
 2231 21e7 EF210000 		.long	0x21ef
 2232 21eb F5210000 		.long	0x21f5
 2233 21ef 02       		.uleb128 0x2
 2234 21f0 D5CA0000 		.long	0xcad5
 2235 21f4 00       		.byte	0
 2236 21f5 04       		.uleb128 0x4
 2237 21f6 88030000 		.secrel32	.LASF25
 2238 21fa 09       		.byte	0x9
 2239 21fb 7304     		.word	0x473
 2240 21fd 07       		.byte	0x7
 2241 21fe 5F5A4E53 		.ascii "_ZNSt7__cxx1112basic_stringIcSt11char_traitsIcESaIcEEpLERKS4_\0"
 2241      74375F5F 
 2241      63787831 
 2241      31313262 
 2241      61736963 
 2242 223c F9CA0000 		.long	0xcaf9
 2243 2240 01       		.byte	0x1
 2244 2241 49220000 		.long	0x2249
 2245 2245 54220000 		.long	0x2254
 2246 2249 02       		.uleb128 0x2
 2247 224a CFCA0000 		.long	0xcacf
 2248 224e 01       		.uleb128 0x1
 2249 224f EDCA0000 		.long	0xcaed
 2250 2253 00       		.byte	0
 2251 2254 04       		.uleb128 0x4
 2252 2255 88030000 		.secrel32	.LASF25
 2253 2259 09       		.byte	0x9
 2254 225a 7C04     		.word	0x47c
 2255 225c 07       		.byte	0x7
 2256 225d 5F5A4E53 		.ascii "_ZNSt7__cxx1112basic_stringIcSt11char_traitsIcESaIcEEpLEPKc\0"
 2256      74375F5F 
 2256      63787831 
 2256      31313262 
 2256      61736963 
 2257 2299 F9CA0000 		.long	0xcaf9
 2258 229d 01       		.byte	0x1
 2259 229e A6220000 		.long	0x22a6
 2260 22a2 B1220000 		.long	0x22b1
 2261 22a6 02       		.uleb128 0x2
 2262 22a7 CFCA0000 		.long	0xcacf
 2263 22ab 01       		.uleb128 0x1
GAS LISTING C:\Users\Ilya\AppData\Local\Temp\ccxaKDG8.s 			page 86


 2264 22ac 89B70000 		.long	0xb789
 2265 22b0 00       		.byte	0
 2266 22b1 04       		.uleb128 0x4
 2267 22b2 88030000 		.secrel32	.LASF25
 2268 22b6 09       		.byte	0x9
 2269 22b7 8504     		.word	0x485
 2270 22b9 07       		.byte	0x7
 2271 22ba 5F5A4E53 		.ascii "_ZNSt7__cxx1112basic_stringIcSt11char_traitsIcESaIcEEpLEc\0"
 2271      74375F5F 
 2271      63787831 
 2271      31313262 
 2271      61736963 
 2272 22f4 F9CA0000 		.long	0xcaf9
 2273 22f8 01       		.byte	0x1
 2274 22f9 01230000 		.long	0x2301
 2275 22fd 0C230000 		.long	0x230c
 2276 2301 02       		.uleb128 0x2
 2277 2302 CFCA0000 		.long	0xcacf
 2278 2306 01       		.uleb128 0x1
 2279 2307 F7B10000 		.long	0xb1f7
 2280 230b 00       		.byte	0
 2281 230c 04       		.uleb128 0x4
 2282 230d 88030000 		.secrel32	.LASF25
 2283 2311 09       		.byte	0x9
 2284 2312 9204     		.word	0x492
 2285 2314 07       		.byte	0x7
 2286 2315 5F5A4E53 		.ascii "_ZNSt7__cxx1112basic_stringIcSt11char_traitsIcESaIcEEpLESt16initializer_listIcE\0"
 2286      74375F5F 
 2286      63787831 
 2286      31313262 
 2286      61736963 
 2287 2365 F9CA0000 		.long	0xcaf9
 2288 2369 01       		.byte	0x1
 2289 236a 72230000 		.long	0x2372
 2290 236e 7D230000 		.long	0x237d
 2291 2372 02       		.uleb128 0x2
 2292 2373 CFCA0000 		.long	0xcacf
 2293 2377 01       		.uleb128 0x1
 2294 2378 C55D0000 		.long	0x5dc5
 2295 237c 00       		.byte	0
 2296 237d 04       		.uleb128 0x4
 2297 237e 58030000 		.secrel32	.LASF26
 2298 2382 09       		.byte	0x9
 2299 2383 A804     		.word	0x4a8
 2300 2385 07       		.byte	0x7
 2301 2386 5F5A4E53 		.ascii "_ZNSt7__cxx1112basic_stringIcSt11char_traitsIcESaIcEE6appendERKS4_\0"
 2301      74375F5F 
 2301      63787831 
 2301      31313262 
 2301      61736963 
 2302 23c9 F9CA0000 		.long	0xcaf9
 2303 23cd 01       		.byte	0x1
 2304 23ce D6230000 		.long	0x23d6
 2305 23d2 E1230000 		.long	0x23e1
 2306 23d6 02       		.uleb128 0x2
 2307 23d7 CFCA0000 		.long	0xcacf
 2308 23db 01       		.uleb128 0x1
GAS LISTING C:\Users\Ilya\AppData\Local\Temp\ccxaKDG8.s 			page 87


 2309 23dc EDCA0000 		.long	0xcaed
 2310 23e0 00       		.byte	0
 2311 23e1 04       		.uleb128 0x4
 2312 23e2 58030000 		.secrel32	.LASF26
 2313 23e6 09       		.byte	0x9
 2314 23e7 B904     		.word	0x4b9
 2315 23e9 07       		.byte	0x7
 2316 23ea 5F5A4E53 		.ascii "_ZNSt7__cxx1112basic_stringIcSt11char_traitsIcESaIcEE6appendERKS4_yy\0"
 2316      74375F5F 
 2316      63787831 
 2316      31313262 
 2316      61736963 
 2317 242f F9CA0000 		.long	0xcaf9
 2318 2433 01       		.byte	0x1
 2319 2434 3C240000 		.long	0x243c
 2320 2438 51240000 		.long	0x2451
 2321 243c 02       		.uleb128 0x2
 2322 243d CFCA0000 		.long	0xcacf
 2323 2441 01       		.uleb128 0x1
 2324 2442 EDCA0000 		.long	0xcaed
 2325 2446 01       		.uleb128 0x1
 2326 2447 42020000 		.long	0x242
 2327 244b 01       		.uleb128 0x1
 2328 244c 42020000 		.long	0x242
 2329 2450 00       		.byte	0
 2330 2451 04       		.uleb128 0x4
 2331 2452 58030000 		.secrel32	.LASF26
 2332 2456 09       		.byte	0x9
 2333 2457 C504     		.word	0x4c5
 2334 2459 07       		.byte	0x7
 2335 245a 5F5A4E53 		.ascii "_ZNSt7__cxx1112basic_stringIcSt11char_traitsIcESaIcEE6appendEPKcy\0"
 2335      74375F5F 
 2335      63787831 
 2335      31313262 
 2335      61736963 
 2336 249c F9CA0000 		.long	0xcaf9
 2337 24a0 01       		.byte	0x1
 2338 24a1 A9240000 		.long	0x24a9
 2339 24a5 B9240000 		.long	0x24b9
 2340 24a9 02       		.uleb128 0x2
 2341 24aa CFCA0000 		.long	0xcacf
 2342 24ae 01       		.uleb128 0x1
 2343 24af 89B70000 		.long	0xb789
 2344 24b3 01       		.uleb128 0x1
 2345 24b4 42020000 		.long	0x242
 2346 24b8 00       		.byte	0
 2347 24b9 04       		.uleb128 0x4
 2348 24ba 58030000 		.secrel32	.LASF26
 2349 24be 09       		.byte	0x9
 2350 24bf D204     		.word	0x4d2
 2351 24c1 07       		.byte	0x7
 2352 24c2 5F5A4E53 		.ascii "_ZNSt7__cxx1112basic_stringIcSt11char_traitsIcESaIcEE6appendEPKc\0"
 2352      74375F5F 
 2352      63787831 
 2352      31313262 
 2352      61736963 
 2353 2503 F9CA0000 		.long	0xcaf9
GAS LISTING C:\Users\Ilya\AppData\Local\Temp\ccxaKDG8.s 			page 88


 2354 2507 01       		.byte	0x1
 2355 2508 10250000 		.long	0x2510
 2356 250c 1B250000 		.long	0x251b
 2357 2510 02       		.uleb128 0x2
 2358 2511 CFCA0000 		.long	0xcacf
 2359 2515 01       		.uleb128 0x1
 2360 2516 89B70000 		.long	0xb789
 2361 251a 00       		.byte	0
 2362 251b 04       		.uleb128 0x4
 2363 251c 58030000 		.secrel32	.LASF26
 2364 2520 09       		.byte	0x9
 2365 2521 E304     		.word	0x4e3
 2366 2523 07       		.byte	0x7
 2367 2524 5F5A4E53 		.ascii "_ZNSt7__cxx1112basic_stringIcSt11char_traitsIcESaIcEE6appendEyc\0"
 2367      74375F5F 
 2367      63787831 
 2367      31313262 
 2367      61736963 
 2368 2564 F9CA0000 		.long	0xcaf9
 2369 2568 01       		.byte	0x1
 2370 2569 71250000 		.long	0x2571
 2371 256d 81250000 		.long	0x2581
 2372 2571 02       		.uleb128 0x2
 2373 2572 CFCA0000 		.long	0xcacf
 2374 2576 01       		.uleb128 0x1
 2375 2577 42020000 		.long	0x242
 2376 257b 01       		.uleb128 0x1
 2377 257c F7B10000 		.long	0xb1f7
 2378 2580 00       		.byte	0
 2379 2581 04       		.uleb128 0x4
 2380 2582 58030000 		.secrel32	.LASF26
 2381 2586 09       		.byte	0x9
 2382 2587 ED04     		.word	0x4ed
 2383 2589 07       		.byte	0x7
 2384 258a 5F5A4E53 		.ascii "_ZNSt7__cxx1112basic_stringIcSt11char_traitsIcESaIcEE6appendESt16initializer_listIcE\0"
 2384      74375F5F 
 2384      63787831 
 2384      31313262 
 2384      61736963 
 2385 25df F9CA0000 		.long	0xcaf9
 2386 25e3 01       		.byte	0x1
 2387 25e4 EC250000 		.long	0x25ec
 2388 25e8 F7250000 		.long	0x25f7
 2389 25ec 02       		.uleb128 0x2
 2390 25ed CFCA0000 		.long	0xcacf
 2391 25f1 01       		.uleb128 0x1
 2392 25f2 C55D0000 		.long	0x5dc5
 2393 25f6 00       		.byte	0
 2394 25f7 0C       		.uleb128 0xc
 2395 25f8 37040000 		.secrel32	.LASF27
 2396 25fc 09       		.byte	0x9
 2397 25fd 2805     		.word	0x528
 2398 25ff 07       		.byte	0x7
 2399 2600 5F5A4E53 		.ascii "_ZNSt7__cxx1112basic_stringIcSt11char_traitsIcESaIcEE9push_backEc\0"
 2399      74375F5F 
 2399      63787831 
 2399      31313262 
GAS LISTING C:\Users\Ilya\AppData\Local\Temp\ccxaKDG8.s 			page 89


 2399      61736963 
 2400 2642 01       		.byte	0x1
 2401 2643 4B260000 		.long	0x264b
 2402 2647 56260000 		.long	0x2656
 2403 264b 02       		.uleb128 0x2
 2404 264c CFCA0000 		.long	0xcacf
 2405 2650 01       		.uleb128 0x1
 2406 2651 F7B10000 		.long	0xb1f7
 2407 2655 00       		.byte	0
 2408 2656 04       		.uleb128 0x4
 2409 2657 E0010000 		.secrel32	.LASF28
 2410 265b 09       		.byte	0x9
 2411 265c 3705     		.word	0x537
 2412 265e 07       		.byte	0x7
 2413 265f 5F5A4E53 		.ascii "_ZNSt7__cxx1112basic_stringIcSt11char_traitsIcESaIcEE6assignERKS4_\0"
 2413      74375F5F 
 2413      63787831 
 2413      31313262 
 2413      61736963 
 2414 26a2 F9CA0000 		.long	0xcaf9
 2415 26a6 01       		.byte	0x1
 2416 26a7 AF260000 		.long	0x26af
 2417 26ab BA260000 		.long	0x26ba
 2418 26af 02       		.uleb128 0x2
 2419 26b0 CFCA0000 		.long	0xcacf
 2420 26b4 01       		.uleb128 0x1
 2421 26b5 EDCA0000 		.long	0xcaed
 2422 26b9 00       		.byte	0
 2423 26ba 04       		.uleb128 0x4
 2424 26bb E0010000 		.secrel32	.LASF28
 2425 26bf 09       		.byte	0x9
 2426 26c0 6405     		.word	0x564
 2427 26c2 07       		.byte	0x7
 2428 26c3 5F5A4E53 		.ascii "_ZNSt7__cxx1112basic_stringIcSt11char_traitsIcESaIcEE6assignEOS4_\0"
 2428      74375F5F 
 2428      63787831 
 2428      31313262 
 2428      61736963 
 2429 2705 F9CA0000 		.long	0xcaf9
 2430 2709 01       		.byte	0x1
 2431 270a 12270000 		.long	0x2712
 2432 270e 1D270000 		.long	0x271d
 2433 2712 02       		.uleb128 0x2
 2434 2713 CFCA0000 		.long	0xcacf
 2435 2717 01       		.uleb128 0x1
 2436 2718 F3CA0000 		.long	0xcaf3
 2437 271c 00       		.byte	0
 2438 271d 04       		.uleb128 0x4
 2439 271e E0010000 		.secrel32	.LASF28
 2440 2722 09       		.byte	0x9
 2441 2723 7B05     		.word	0x57b
 2442 2725 07       		.byte	0x7
 2443 2726 5F5A4E53 		.ascii "_ZNSt7__cxx1112basic_stringIcSt11char_traitsIcESaIcEE6assignERKS4_yy\0"
 2443      74375F5F 
 2443      63787831 
 2443      31313262 
 2443      61736963 
GAS LISTING C:\Users\Ilya\AppData\Local\Temp\ccxaKDG8.s 			page 90


 2444 276b F9CA0000 		.long	0xcaf9
 2445 276f 01       		.byte	0x1
 2446 2770 78270000 		.long	0x2778
 2447 2774 8D270000 		.long	0x278d
 2448 2778 02       		.uleb128 0x2
 2449 2779 CFCA0000 		.long	0xcacf
 2450 277d 01       		.uleb128 0x1
 2451 277e EDCA0000 		.long	0xcaed
 2452 2782 01       		.uleb128 0x1
 2453 2783 42020000 		.long	0x242
 2454 2787 01       		.uleb128 0x1
 2455 2788 42020000 		.long	0x242
 2456 278c 00       		.byte	0
 2457 278d 04       		.uleb128 0x4
 2458 278e E0010000 		.secrel32	.LASF28
 2459 2792 09       		.byte	0x9
 2460 2793 8B05     		.word	0x58b
 2461 2795 07       		.byte	0x7
 2462 2796 5F5A4E53 		.ascii "_ZNSt7__cxx1112basic_stringIcSt11char_traitsIcESaIcEE6assignEPKcy\0"
 2462      74375F5F 
 2462      63787831 
 2462      31313262 
 2462      61736963 
 2463 27d8 F9CA0000 		.long	0xcaf9
 2464 27dc 01       		.byte	0x1
 2465 27dd E5270000 		.long	0x27e5
 2466 27e1 F5270000 		.long	0x27f5
 2467 27e5 02       		.uleb128 0x2
 2468 27e6 CFCA0000 		.long	0xcacf
 2469 27ea 01       		.uleb128 0x1
 2470 27eb 89B70000 		.long	0xb789
 2471 27ef 01       		.uleb128 0x1
 2472 27f0 42020000 		.long	0x242
 2473 27f4 00       		.byte	0
 2474 27f5 04       		.uleb128 0x4
 2475 27f6 E0010000 		.secrel32	.LASF28
 2476 27fa 09       		.byte	0x9
 2477 27fb 9B05     		.word	0x59b
 2478 27fd 07       		.byte	0x7
 2479 27fe 5F5A4E53 		.ascii "_ZNSt7__cxx1112basic_stringIcSt11char_traitsIcESaIcEE6assignEPKc\0"
 2479      74375F5F 
 2479      63787831 
 2479      31313262 
 2479      61736963 
 2480 283f F9CA0000 		.long	0xcaf9
 2481 2843 01       		.byte	0x1
 2482 2844 4C280000 		.long	0x284c
 2483 2848 57280000 		.long	0x2857
 2484 284c 02       		.uleb128 0x2
 2485 284d CFCA0000 		.long	0xcacf
 2486 2851 01       		.uleb128 0x1
 2487 2852 89B70000 		.long	0xb789
 2488 2856 00       		.byte	0
 2489 2857 04       		.uleb128 0x4
 2490 2858 E0010000 		.secrel32	.LASF28
 2491 285c 09       		.byte	0x9
 2492 285d AC05     		.word	0x5ac
GAS LISTING C:\Users\Ilya\AppData\Local\Temp\ccxaKDG8.s 			page 91


 2493 285f 07       		.byte	0x7
 2494 2860 5F5A4E53 		.ascii "_ZNSt7__cxx1112basic_stringIcSt11char_traitsIcESaIcEE6assignEyc\0"
 2494      74375F5F 
 2494      63787831 
 2494      31313262 
 2494      61736963 
 2495 28a0 F9CA0000 		.long	0xcaf9
 2496 28a4 01       		.byte	0x1
 2497 28a5 AD280000 		.long	0x28ad
 2498 28a9 BD280000 		.long	0x28bd
 2499 28ad 02       		.uleb128 0x2
 2500 28ae CFCA0000 		.long	0xcacf
 2501 28b2 01       		.uleb128 0x1
 2502 28b3 42020000 		.long	0x242
 2503 28b7 01       		.uleb128 0x1
 2504 28b8 F7B10000 		.long	0xb1f7
 2505 28bc 00       		.byte	0
 2506 28bd 04       		.uleb128 0x4
 2507 28be E0010000 		.secrel32	.LASF28
 2508 28c2 09       		.byte	0x9
 2509 28c3 C805     		.word	0x5c8
 2510 28c5 07       		.byte	0x7
 2511 28c6 5F5A4E53 		.ascii "_ZNSt7__cxx1112basic_stringIcSt11char_traitsIcESaIcEE6assignESt16initializer_listIcE\0"
 2511      74375F5F 
 2511      63787831 
 2511      31313262 
 2511      61736963 
 2512 291b F9CA0000 		.long	0xcaf9
 2513 291f 01       		.byte	0x1
 2514 2920 28290000 		.long	0x2928
 2515 2924 33290000 		.long	0x2933
 2516 2928 02       		.uleb128 0x2
 2517 2929 CFCA0000 		.long	0xcacf
 2518 292d 01       		.uleb128 0x1
 2519 292e C55D0000 		.long	0x5dc5
 2520 2932 00       		.byte	0
 2521 2933 04       		.uleb128 0x4
 2522 2934 B1010000 		.secrel32	.LASF29
 2523 2938 09       		.byte	0x9
 2524 2939 FE05     		.word	0x5fe
 2525 293b 07       		.byte	0x7
 2526 293c 5F5A4E53 		.ascii "_ZNSt7__cxx1112basic_stringIcSt11char_traitsIcESaIcEE6insertEN9__gnu_cxx17__normal_iterato
 2526      74375F5F 
 2526      63787831 
 2526      31313262 
 2526      61736963 
 2527 29a3 6D0C0000 		.long	0xc6d
 2528 29a7 01       		.byte	0x1
 2529 29a8 B0290000 		.long	0x29b0
 2530 29ac C5290000 		.long	0x29c5
 2531 29b0 02       		.uleb128 0x2
 2532 29b1 CFCA0000 		.long	0xcacf
 2533 29b5 01       		.uleb128 0x1
 2534 29b6 090D0000 		.long	0xd09
 2535 29ba 01       		.uleb128 0x1
 2536 29bb 42020000 		.long	0x242
 2537 29bf 01       		.uleb128 0x1
GAS LISTING C:\Users\Ilya\AppData\Local\Temp\ccxaKDG8.s 			page 92


 2538 29c0 F7B10000 		.long	0xb1f7
 2539 29c4 00       		.byte	0
 2540 29c5 04       		.uleb128 0x4
 2541 29c6 B1010000 		.secrel32	.LASF29
 2542 29ca 09       		.byte	0x9
 2543 29cb 4C06     		.word	0x64c
 2544 29cd 07       		.byte	0x7
 2545 29ce 5F5A4E53 		.ascii "_ZNSt7__cxx1112basic_stringIcSt11char_traitsIcESaIcEE6insertEN9__gnu_cxx17__normal_iterato
 2545      74375F5F 
 2545      63787831 
 2545      31313262 
 2545      61736963 
 2546 2a4a 6D0C0000 		.long	0xc6d
 2547 2a4e 01       		.byte	0x1
 2548 2a4f 572A0000 		.long	0x2a57
 2549 2a53 672A0000 		.long	0x2a67
 2550 2a57 02       		.uleb128 0x2
 2551 2a58 CFCA0000 		.long	0xcacf
 2552 2a5c 01       		.uleb128 0x1
 2553 2a5d 090D0000 		.long	0xd09
 2554 2a61 01       		.uleb128 0x1
 2555 2a62 C55D0000 		.long	0x5dc5
 2556 2a66 00       		.byte	0
 2557 2a67 04       		.uleb128 0x4
 2558 2a68 B1010000 		.secrel32	.LASF29
 2559 2a6c 09       		.byte	0x9
 2560 2a6d 6706     		.word	0x667
 2561 2a6f 07       		.byte	0x7
 2562 2a70 5F5A4E53 		.ascii "_ZNSt7__cxx1112basic_stringIcSt11char_traitsIcESaIcEE6insertEyRKS4_\0"
 2562      74375F5F 
 2562      63787831 
 2562      31313262 
 2562      61736963 
 2563 2ab4 F9CA0000 		.long	0xcaf9
 2564 2ab8 01       		.byte	0x1
 2565 2ab9 C12A0000 		.long	0x2ac1
 2566 2abd D12A0000 		.long	0x2ad1
 2567 2ac1 02       		.uleb128 0x2
 2568 2ac2 CFCA0000 		.long	0xcacf
 2569 2ac6 01       		.uleb128 0x1
 2570 2ac7 42020000 		.long	0x242
 2571 2acb 01       		.uleb128 0x1
 2572 2acc EDCA0000 		.long	0xcaed
 2573 2ad0 00       		.byte	0
 2574 2ad1 04       		.uleb128 0x4
 2575 2ad2 B1010000 		.secrel32	.LASF29
 2576 2ad6 09       		.byte	0x9
 2577 2ad7 7E06     		.word	0x67e
 2578 2ad9 07       		.byte	0x7
 2579 2ada 5F5A4E53 		.ascii "_ZNSt7__cxx1112basic_stringIcSt11char_traitsIcESaIcEE6insertEyRKS4_yy\0"
 2579      74375F5F 
 2579      63787831 
 2579      31313262 
 2579      61736963 
 2580 2b20 F9CA0000 		.long	0xcaf9
 2581 2b24 01       		.byte	0x1
 2582 2b25 2D2B0000 		.long	0x2b2d
GAS LISTING C:\Users\Ilya\AppData\Local\Temp\ccxaKDG8.s 			page 93


 2583 2b29 472B0000 		.long	0x2b47
 2584 2b2d 02       		.uleb128 0x2
 2585 2b2e CFCA0000 		.long	0xcacf
 2586 2b32 01       		.uleb128 0x1
 2587 2b33 42020000 		.long	0x242
 2588 2b37 01       		.uleb128 0x1
 2589 2b38 EDCA0000 		.long	0xcaed
 2590 2b3c 01       		.uleb128 0x1
 2591 2b3d 42020000 		.long	0x242
 2592 2b41 01       		.uleb128 0x1
 2593 2b42 42020000 		.long	0x242
 2594 2b46 00       		.byte	0
 2595 2b47 04       		.uleb128 0x4
 2596 2b48 B1010000 		.secrel32	.LASF29
 2597 2b4c 09       		.byte	0x9
 2598 2b4d 9506     		.word	0x695
 2599 2b4f 07       		.byte	0x7
 2600 2b50 5F5A4E53 		.ascii "_ZNSt7__cxx1112basic_stringIcSt11char_traitsIcESaIcEE6insertEyPKcy\0"
 2600      74375F5F 
 2600      63787831 
 2600      31313262 
 2600      61736963 
 2601 2b93 F9CA0000 		.long	0xcaf9
 2602 2b97 01       		.byte	0x1
 2603 2b98 A02B0000 		.long	0x2ba0
 2604 2b9c B52B0000 		.long	0x2bb5
 2605 2ba0 02       		.uleb128 0x2
 2606 2ba1 CFCA0000 		.long	0xcacf
 2607 2ba5 01       		.uleb128 0x1
 2608 2ba6 42020000 		.long	0x242
 2609 2baa 01       		.uleb128 0x1
 2610 2bab 89B70000 		.long	0xb789
 2611 2baf 01       		.uleb128 0x1
 2612 2bb0 42020000 		.long	0x242
 2613 2bb4 00       		.byte	0
 2614 2bb5 04       		.uleb128 0x4
 2615 2bb6 B1010000 		.secrel32	.LASF29
 2616 2bba 09       		.byte	0x9
 2617 2bbb A806     		.word	0x6a8
 2618 2bbd 07       		.byte	0x7
 2619 2bbe 5F5A4E53 		.ascii "_ZNSt7__cxx1112basic_stringIcSt11char_traitsIcESaIcEE6insertEyPKc\0"
 2619      74375F5F 
 2619      63787831 
 2619      31313262 
 2619      61736963 
 2620 2c00 F9CA0000 		.long	0xcaf9
 2621 2c04 01       		.byte	0x1
 2622 2c05 0D2C0000 		.long	0x2c0d
 2623 2c09 1D2C0000 		.long	0x2c1d
 2624 2c0d 02       		.uleb128 0x2
 2625 2c0e CFCA0000 		.long	0xcacf
 2626 2c12 01       		.uleb128 0x1
 2627 2c13 42020000 		.long	0x242
 2628 2c17 01       		.uleb128 0x1
 2629 2c18 89B70000 		.long	0xb789
 2630 2c1c 00       		.byte	0
 2631 2c1d 04       		.uleb128 0x4
GAS LISTING C:\Users\Ilya\AppData\Local\Temp\ccxaKDG8.s 			page 94


 2632 2c1e B1010000 		.secrel32	.LASF29
 2633 2c22 09       		.byte	0x9
 2634 2c23 C006     		.word	0x6c0
 2635 2c25 07       		.byte	0x7
 2636 2c26 5F5A4E53 		.ascii "_ZNSt7__cxx1112basic_stringIcSt11char_traitsIcESaIcEE6insertEyyc\0"
 2636      74375F5F 
 2636      63787831 
 2636      31313262 
 2636      61736963 
 2637 2c67 F9CA0000 		.long	0xcaf9
 2638 2c6b 01       		.byte	0x1
 2639 2c6c 742C0000 		.long	0x2c74
 2640 2c70 892C0000 		.long	0x2c89
 2641 2c74 02       		.uleb128 0x2
 2642 2c75 CFCA0000 		.long	0xcacf
 2643 2c79 01       		.uleb128 0x1
 2644 2c7a 42020000 		.long	0x242
 2645 2c7e 01       		.uleb128 0x1
 2646 2c7f 42020000 		.long	0x242
 2647 2c83 01       		.uleb128 0x1
 2648 2c84 F7B10000 		.long	0xb1f7
 2649 2c88 00       		.byte	0
 2650 2c89 04       		.uleb128 0x4
 2651 2c8a B1010000 		.secrel32	.LASF29
 2652 2c8e 09       		.byte	0x9
 2653 2c8f D206     		.word	0x6d2
 2654 2c91 07       		.byte	0x7
 2655 2c92 5F5A4E53 		.ascii "_ZNSt7__cxx1112basic_stringIcSt11char_traitsIcESaIcEE6insertEN9__gnu_cxx17__normal_iterato
 2655      74375F5F 
 2655      63787831 
 2655      31313262 
 2655      61736963 
 2656 2cf8 6D0C0000 		.long	0xc6d
 2657 2cfc 01       		.byte	0x1
 2658 2cfd 052D0000 		.long	0x2d05
 2659 2d01 152D0000 		.long	0x2d15
 2660 2d05 02       		.uleb128 0x2
 2661 2d06 CFCA0000 		.long	0xcacf
 2662 2d0a 01       		.uleb128 0x1
 2663 2d0b 152D0000 		.long	0x2d15
 2664 2d0f 01       		.uleb128 0x1
 2665 2d10 F7B10000 		.long	0xb1f7
 2666 2d14 00       		.byte	0
 2667 2d15 41       		.uleb128 0x41
 2668 2d16 5F5F636F 		.ascii "__const_iterator\0"
 2668      6E73745F 
 2668      69746572 
 2668      61746F72 
 2668      00
 2669 2d27 09       		.byte	0x9
 2670 2d28 6C       		.byte	0x6c
 2671 2d29 1E       		.byte	0x1e
 2672 2d2a 090D0000 		.long	0xd09
 2673 2d2e 02       		.byte	0x2
 2674 2d2f 04       		.uleb128 0x4
 2675 2d30 E2000000 		.secrel32	.LASF30
 2676 2d34 09       		.byte	0x9
GAS LISTING C:\Users\Ilya\AppData\Local\Temp\ccxaKDG8.s 			page 95


 2677 2d35 0E07     		.word	0x70e
 2678 2d37 07       		.byte	0x7
 2679 2d38 5F5A4E53 		.ascii "_ZNSt7__cxx1112basic_stringIcSt11char_traitsIcESaIcEE5eraseEyy\0"
 2679      74375F5F 
 2679      63787831 
 2679      31313262 
 2679      61736963 
 2680 2d77 F9CA0000 		.long	0xcaf9
 2681 2d7b 01       		.byte	0x1
 2682 2d7c 842D0000 		.long	0x2d84
 2683 2d80 942D0000 		.long	0x2d94
 2684 2d84 02       		.uleb128 0x2
 2685 2d85 CFCA0000 		.long	0xcacf
 2686 2d89 01       		.uleb128 0x1
 2687 2d8a 42020000 		.long	0x242
 2688 2d8e 01       		.uleb128 0x1
 2689 2d8f 42020000 		.long	0x242
 2690 2d93 00       		.byte	0
 2691 2d94 04       		.uleb128 0x4
 2692 2d95 E2000000 		.secrel32	.LASF30
 2693 2d99 09       		.byte	0x9
 2694 2d9a 2107     		.word	0x721
 2695 2d9c 07       		.byte	0x7
 2696 2d9d 5F5A4E53 		.ascii "_ZNSt7__cxx1112basic_stringIcSt11char_traitsIcESaIcEE5eraseEN9__gnu_cxx17__normal_iterator
 2696      74375F5F 
 2696      63787831 
 2696      31313262 
 2696      61736963 
 2697 2e01 6D0C0000 		.long	0xc6d
 2698 2e05 01       		.byte	0x1
 2699 2e06 0E2E0000 		.long	0x2e0e
 2700 2e0a 192E0000 		.long	0x2e19
 2701 2e0e 02       		.uleb128 0x2
 2702 2e0f CFCA0000 		.long	0xcacf
 2703 2e13 01       		.uleb128 0x1
 2704 2e14 152D0000 		.long	0x2d15
 2705 2e18 00       		.byte	0
 2706 2e19 04       		.uleb128 0x4
 2707 2e1a E2000000 		.secrel32	.LASF30
 2708 2e1e 09       		.byte	0x9
 2709 2e1f 3407     		.word	0x734
 2710 2e21 07       		.byte	0x7
 2711 2e22 5F5A4E53 		.ascii "_ZNSt7__cxx1112basic_stringIcSt11char_traitsIcESaIcEE5eraseEN9__gnu_cxx17__normal_iterator
 2711      74375F5F 
 2711      63787831 
 2711      31313262 
 2711      61736963 
 2712 2e89 6D0C0000 		.long	0xc6d
 2713 2e8d 01       		.byte	0x1
 2714 2e8e 962E0000 		.long	0x2e96
 2715 2e92 A62E0000 		.long	0x2ea6
 2716 2e96 02       		.uleb128 0x2
 2717 2e97 CFCA0000 		.long	0xcacf
 2718 2e9b 01       		.uleb128 0x1
 2719 2e9c 152D0000 		.long	0x2d15
 2720 2ea0 01       		.uleb128 0x1
 2721 2ea1 152D0000 		.long	0x2d15
GAS LISTING C:\Users\Ilya\AppData\Local\Temp\ccxaKDG8.s 			page 96


 2722 2ea5 00       		.byte	0
 2723 2ea6 0C       		.uleb128 0xc
 2724 2ea7 15010000 		.secrel32	.LASF31
 2725 2eab 09       		.byte	0x9
 2726 2eac 4707     		.word	0x747
 2727 2eae 07       		.byte	0x7
 2728 2eaf 5F5A4E53 		.ascii "_ZNSt7__cxx1112basic_stringIcSt11char_traitsIcESaIcEE8pop_backEv\0"
 2728      74375F5F 
 2728      63787831 
 2728      31313262 
 2728      61736963 
 2729 2ef0 01       		.byte	0x1
 2730 2ef1 F92E0000 		.long	0x2ef9
 2731 2ef5 FF2E0000 		.long	0x2eff
 2732 2ef9 02       		.uleb128 0x2
 2733 2efa CFCA0000 		.long	0xcacf
 2734 2efe 00       		.byte	0
 2735 2eff 04       		.uleb128 0x4
 2736 2f00 BA030000 		.secrel32	.LASF32
 2737 2f04 09       		.byte	0x9
 2738 2f05 6007     		.word	0x760
 2739 2f07 07       		.byte	0x7
 2740 2f08 5F5A4E53 		.ascii "_ZNSt7__cxx1112basic_stringIcSt11char_traitsIcESaIcEE7replaceEyyRKS4_\0"
 2740      74375F5F 
 2740      63787831 
 2740      31313262 
 2740      61736963 
 2741 2f4e F9CA0000 		.long	0xcaf9
 2742 2f52 01       		.byte	0x1
 2743 2f53 5B2F0000 		.long	0x2f5b
 2744 2f57 702F0000 		.long	0x2f70
 2745 2f5b 02       		.uleb128 0x2
 2746 2f5c CFCA0000 		.long	0xcacf
 2747 2f60 01       		.uleb128 0x1
 2748 2f61 42020000 		.long	0x242
 2749 2f65 01       		.uleb128 0x1
 2750 2f66 42020000 		.long	0x242
 2751 2f6a 01       		.uleb128 0x1
 2752 2f6b EDCA0000 		.long	0xcaed
 2753 2f6f 00       		.byte	0
 2754 2f70 04       		.uleb128 0x4
 2755 2f71 BA030000 		.secrel32	.LASF32
 2756 2f75 09       		.byte	0x9
 2757 2f76 7607     		.word	0x776
 2758 2f78 07       		.byte	0x7
 2759 2f79 5F5A4E53 		.ascii "_ZNSt7__cxx1112basic_stringIcSt11char_traitsIcESaIcEE7replaceEyyRKS4_yy\0"
 2759      74375F5F 
 2759      63787831 
 2759      31313262 
 2759      61736963 
 2760 2fc1 F9CA0000 		.long	0xcaf9
 2761 2fc5 01       		.byte	0x1
 2762 2fc6 CE2F0000 		.long	0x2fce
 2763 2fca ED2F0000 		.long	0x2fed
 2764 2fce 02       		.uleb128 0x2
 2765 2fcf CFCA0000 		.long	0xcacf
 2766 2fd3 01       		.uleb128 0x1
GAS LISTING C:\Users\Ilya\AppData\Local\Temp\ccxaKDG8.s 			page 97


 2767 2fd4 42020000 		.long	0x242
 2768 2fd8 01       		.uleb128 0x1
 2769 2fd9 42020000 		.long	0x242
 2770 2fdd 01       		.uleb128 0x1
 2771 2fde EDCA0000 		.long	0xcaed
 2772 2fe2 01       		.uleb128 0x1
 2773 2fe3 42020000 		.long	0x242
 2774 2fe7 01       		.uleb128 0x1
 2775 2fe8 42020000 		.long	0x242
 2776 2fec 00       		.byte	0
 2777 2fed 04       		.uleb128 0x4
 2778 2fee BA030000 		.secrel32	.LASF32
 2779 2ff2 09       		.byte	0x9
 2780 2ff3 8F07     		.word	0x78f
 2781 2ff5 07       		.byte	0x7
 2782 2ff6 5F5A4E53 		.ascii "_ZNSt7__cxx1112basic_stringIcSt11char_traitsIcESaIcEE7replaceEyyPKcy\0"
 2782      74375F5F 
 2782      63787831 
 2782      31313262 
 2782      61736963 
 2783 303b F9CA0000 		.long	0xcaf9
 2784 303f 01       		.byte	0x1
 2785 3040 48300000 		.long	0x3048
 2786 3044 62300000 		.long	0x3062
 2787 3048 02       		.uleb128 0x2
 2788 3049 CFCA0000 		.long	0xcacf
 2789 304d 01       		.uleb128 0x1
 2790 304e 42020000 		.long	0x242
 2791 3052 01       		.uleb128 0x1
 2792 3053 42020000 		.long	0x242
 2793 3057 01       		.uleb128 0x1
 2794 3058 89B70000 		.long	0xb789
 2795 305c 01       		.uleb128 0x1
 2796 305d 42020000 		.long	0x242
 2797 3061 00       		.byte	0
 2798 3062 04       		.uleb128 0x4
 2799 3063 BA030000 		.secrel32	.LASF32
 2800 3067 09       		.byte	0x9
 2801 3068 A807     		.word	0x7a8
 2802 306a 07       		.byte	0x7
 2803 306b 5F5A4E53 		.ascii "_ZNSt7__cxx1112basic_stringIcSt11char_traitsIcESaIcEE7replaceEyyPKc\0"
 2803      74375F5F 
 2803      63787831 
 2803      31313262 
 2803      61736963 
 2804 30af F9CA0000 		.long	0xcaf9
 2805 30b3 01       		.byte	0x1
 2806 30b4 BC300000 		.long	0x30bc
 2807 30b8 D1300000 		.long	0x30d1
 2808 30bc 02       		.uleb128 0x2
 2809 30bd CFCA0000 		.long	0xcacf
 2810 30c1 01       		.uleb128 0x1
 2811 30c2 42020000 		.long	0x242
 2812 30c6 01       		.uleb128 0x1
 2813 30c7 42020000 		.long	0x242
 2814 30cb 01       		.uleb128 0x1
 2815 30cc 89B70000 		.long	0xb789
GAS LISTING C:\Users\Ilya\AppData\Local\Temp\ccxaKDG8.s 			page 98


 2816 30d0 00       		.byte	0
 2817 30d1 04       		.uleb128 0x4
 2818 30d2 BA030000 		.secrel32	.LASF32
 2819 30d6 09       		.byte	0x9
 2820 30d7 C007     		.word	0x7c0
 2821 30d9 07       		.byte	0x7
 2822 30da 5F5A4E53 		.ascii "_ZNSt7__cxx1112basic_stringIcSt11char_traitsIcESaIcEE7replaceEyyyc\0"
 2822      74375F5F 
 2822      63787831 
 2822      31313262 
 2822      61736963 
 2823 311d F9CA0000 		.long	0xcaf9
 2824 3121 01       		.byte	0x1
 2825 3122 2A310000 		.long	0x312a
 2826 3126 44310000 		.long	0x3144
 2827 312a 02       		.uleb128 0x2
 2828 312b CFCA0000 		.long	0xcacf
 2829 312f 01       		.uleb128 0x1
 2830 3130 42020000 		.long	0x242
 2831 3134 01       		.uleb128 0x1
 2832 3135 42020000 		.long	0x242
 2833 3139 01       		.uleb128 0x1
 2834 313a 42020000 		.long	0x242
 2835 313e 01       		.uleb128 0x1
 2836 313f F7B10000 		.long	0xb1f7
 2837 3143 00       		.byte	0
 2838 3144 04       		.uleb128 0x4
 2839 3145 BA030000 		.secrel32	.LASF32
 2840 3149 09       		.byte	0x9
 2841 314a D207     		.word	0x7d2
 2842 314c 07       		.byte	0x7
 2843 314d 5F5A4E53 		.ascii "_ZNSt7__cxx1112basic_stringIcSt11char_traitsIcESaIcEE7replaceEN9__gnu_cxx17__normal_iterat
 2843      74375F5F 
 2843      63787831 
 2843      31313262 
 2843      61736963 
 2844 31bb F9CA0000 		.long	0xcaf9
 2845 31bf 01       		.byte	0x1
 2846 31c0 C8310000 		.long	0x31c8
 2847 31c4 DD310000 		.long	0x31dd
 2848 31c8 02       		.uleb128 0x2
 2849 31c9 CFCA0000 		.long	0xcacf
 2850 31cd 01       		.uleb128 0x1
 2851 31ce 152D0000 		.long	0x2d15
 2852 31d2 01       		.uleb128 0x1
 2853 31d3 152D0000 		.long	0x2d15
 2854 31d7 01       		.uleb128 0x1
 2855 31d8 EDCA0000 		.long	0xcaed
 2856 31dc 00       		.byte	0
 2857 31dd 04       		.uleb128 0x4
 2858 31de BA030000 		.secrel32	.LASF32
 2859 31e2 09       		.byte	0x9
 2860 31e3 E607     		.word	0x7e6
 2861 31e5 07       		.byte	0x7
 2862 31e6 5F5A4E53 		.ascii "_ZNSt7__cxx1112basic_stringIcSt11char_traitsIcESaIcEE7replaceEN9__gnu_cxx17__normal_iterat
 2862      74375F5F 
 2862      63787831 
GAS LISTING C:\Users\Ilya\AppData\Local\Temp\ccxaKDG8.s 			page 99


 2862      31313262 
 2862      61736963 
 2863 3253 F9CA0000 		.long	0xcaf9
 2864 3257 01       		.byte	0x1
 2865 3258 60320000 		.long	0x3260
 2866 325c 7A320000 		.long	0x327a
 2867 3260 02       		.uleb128 0x2
 2868 3261 CFCA0000 		.long	0xcacf
 2869 3265 01       		.uleb128 0x1
 2870 3266 152D0000 		.long	0x2d15
 2871 326a 01       		.uleb128 0x1
 2872 326b 152D0000 		.long	0x2d15
 2873 326f 01       		.uleb128 0x1
 2874 3270 89B70000 		.long	0xb789
 2875 3274 01       		.uleb128 0x1
 2876 3275 42020000 		.long	0x242
 2877 3279 00       		.byte	0
 2878 327a 04       		.uleb128 0x4
 2879 327b BA030000 		.secrel32	.LASF32
 2880 327f 09       		.byte	0x9
 2881 3280 FC07     		.word	0x7fc
 2882 3282 07       		.byte	0x7
 2883 3283 5F5A4E53 		.ascii "_ZNSt7__cxx1112basic_stringIcSt11char_traitsIcESaIcEE7replaceEN9__gnu_cxx17__normal_iterat
 2883      74375F5F 
 2883      63787831 
 2883      31313262 
 2883      61736963 
 2884 32ef F9CA0000 		.long	0xcaf9
 2885 32f3 01       		.byte	0x1
 2886 32f4 FC320000 		.long	0x32fc
 2887 32f8 11330000 		.long	0x3311
 2888 32fc 02       		.uleb128 0x2
 2889 32fd CFCA0000 		.long	0xcacf
 2890 3301 01       		.uleb128 0x1
 2891 3302 152D0000 		.long	0x2d15
 2892 3306 01       		.uleb128 0x1
 2893 3307 152D0000 		.long	0x2d15
 2894 330b 01       		.uleb128 0x1
 2895 330c 89B70000 		.long	0xb789
 2896 3310 00       		.byte	0
 2897 3311 04       		.uleb128 0x4
 2898 3312 BA030000 		.secrel32	.LASF32
 2899 3316 09       		.byte	0x9
 2900 3317 1108     		.word	0x811
 2901 3319 07       		.byte	0x7
 2902 331a 5F5A4E53 		.ascii "_ZNSt7__cxx1112basic_stringIcSt11char_traitsIcESaIcEE7replaceEN9__gnu_cxx17__normal_iterat
 2902      74375F5F 
 2902      63787831 
 2902      31313262 
 2902      61736963 
 2903 3385 F9CA0000 		.long	0xcaf9
 2904 3389 01       		.byte	0x1
 2905 338a 92330000 		.long	0x3392
 2906 338e AC330000 		.long	0x33ac
 2907 3392 02       		.uleb128 0x2
 2908 3393 CFCA0000 		.long	0xcacf
 2909 3397 01       		.uleb128 0x1
GAS LISTING C:\Users\Ilya\AppData\Local\Temp\ccxaKDG8.s 			page 100


 2910 3398 152D0000 		.long	0x2d15
 2911 339c 01       		.uleb128 0x1
 2912 339d 152D0000 		.long	0x2d15
 2913 33a1 01       		.uleb128 0x1
 2914 33a2 42020000 		.long	0x242
 2915 33a6 01       		.uleb128 0x1
 2916 33a7 F7B10000 		.long	0xb1f7
 2917 33ab 00       		.byte	0
 2918 33ac 04       		.uleb128 0x4
 2919 33ad BA030000 		.secrel32	.LASF32
 2920 33b1 09       		.byte	0x9
 2921 33b2 4A08     		.word	0x84a
 2922 33b4 07       		.byte	0x7
 2923 33b5 5F5A4E53 		.ascii "_ZNSt7__cxx1112basic_stringIcSt11char_traitsIcESaIcEE7replaceEN9__gnu_cxx17__normal_iterat
 2923      74375F5F 
 2923      63787831 
 2923      31313262 
 2923      61736963 
 2924 3423 F9CA0000 		.long	0xcaf9
 2925 3427 01       		.byte	0x1
 2926 3428 30340000 		.long	0x3430
 2927 342c 4A340000 		.long	0x344a
 2928 3430 02       		.uleb128 0x2
 2929 3431 CFCA0000 		.long	0xcacf
 2930 3435 01       		.uleb128 0x1
 2931 3436 152D0000 		.long	0x2d15
 2932 343a 01       		.uleb128 0x1
 2933 343b 152D0000 		.long	0x2d15
 2934 343f 01       		.uleb128 0x1
 2935 3440 B4B20000 		.long	0xb2b4
 2936 3444 01       		.uleb128 0x1
 2937 3445 B4B20000 		.long	0xb2b4
 2938 3449 00       		.byte	0
 2939 344a 04       		.uleb128 0x4
 2940 344b BA030000 		.secrel32	.LASF32
 2941 344f 09       		.byte	0x9
 2942 3450 5508     		.word	0x855
 2943 3452 07       		.byte	0x7
 2944 3453 5F5A4E53 		.ascii "_ZNSt7__cxx1112basic_stringIcSt11char_traitsIcESaIcEE7replaceEN9__gnu_cxx17__normal_iterat
 2944      74375F5F 
 2944      63787831 
 2944      31313262 
 2944      61736963 
 2945 34c2 F9CA0000 		.long	0xcaf9
 2946 34c6 01       		.byte	0x1
 2947 34c7 CF340000 		.long	0x34cf
 2948 34cb E9340000 		.long	0x34e9
 2949 34cf 02       		.uleb128 0x2
 2950 34d0 CFCA0000 		.long	0xcacf
 2951 34d4 01       		.uleb128 0x1
 2952 34d5 152D0000 		.long	0x2d15
 2953 34d9 01       		.uleb128 0x1
 2954 34da 152D0000 		.long	0x2d15
 2955 34de 01       		.uleb128 0x1
 2956 34df 89B70000 		.long	0xb789
 2957 34e3 01       		.uleb128 0x1
 2958 34e4 89B70000 		.long	0xb789
GAS LISTING C:\Users\Ilya\AppData\Local\Temp\ccxaKDG8.s 			page 101


 2959 34e8 00       		.byte	0
 2960 34e9 04       		.uleb128 0x4
 2961 34ea BA030000 		.secrel32	.LASF32
 2962 34ee 09       		.byte	0x9
 2963 34ef 6008     		.word	0x860
 2964 34f1 07       		.byte	0x7
 2965 34f2 5F5A4E53 		.ascii "_ZNSt7__cxx1112basic_stringIcSt11char_traitsIcESaIcEE7replaceEN9__gnu_cxx17__normal_iterat
 2965      74375F5F 
 2965      63787831 
 2965      31313262 
 2965      61736963 
 2966 356a F9CA0000 		.long	0xcaf9
 2967 356e 01       		.byte	0x1
 2968 356f 77350000 		.long	0x3577
 2969 3573 91350000 		.long	0x3591
 2970 3577 02       		.uleb128 0x2
 2971 3578 CFCA0000 		.long	0xcacf
 2972 357c 01       		.uleb128 0x1
 2973 357d 152D0000 		.long	0x2d15
 2974 3581 01       		.uleb128 0x1
 2975 3582 152D0000 		.long	0x2d15
 2976 3586 01       		.uleb128 0x1
 2977 3587 6D0C0000 		.long	0xc6d
 2978 358b 01       		.uleb128 0x1
 2979 358c 6D0C0000 		.long	0xc6d
 2980 3590 00       		.byte	0
 2981 3591 04       		.uleb128 0x4
 2982 3592 BA030000 		.secrel32	.LASF32
 2983 3596 09       		.byte	0x9
 2984 3597 6B08     		.word	0x86b
 2985 3599 07       		.byte	0x7
 2986 359a 5F5A4E53 		.ascii "_ZNSt7__cxx1112basic_stringIcSt11char_traitsIcESaIcEE7replaceEN9__gnu_cxx17__normal_iterat
 2986      74375F5F 
 2986      63787831 
 2986      31313262 
 2986      61736963 
 2987 3609 F9CA0000 		.long	0xcaf9
 2988 360d 01       		.byte	0x1
 2989 360e 16360000 		.long	0x3616
 2990 3612 30360000 		.long	0x3630
 2991 3616 02       		.uleb128 0x2
 2992 3617 CFCA0000 		.long	0xcacf
 2993 361b 01       		.uleb128 0x1
 2994 361c 152D0000 		.long	0x2d15
 2995 3620 01       		.uleb128 0x1
 2996 3621 152D0000 		.long	0x2d15
 2997 3625 01       		.uleb128 0x1
 2998 3626 090D0000 		.long	0xd09
 2999 362a 01       		.uleb128 0x1
 3000 362b 090D0000 		.long	0xd09
 3001 362f 00       		.byte	0
 3002 3630 04       		.uleb128 0x4
 3003 3631 BA030000 		.secrel32	.LASF32
 3004 3635 09       		.byte	0x9
 3005 3636 8408     		.word	0x884
 3006 3638 15       		.byte	0x15
 3007 3639 5F5A4E53 		.ascii "_ZNSt7__cxx1112basic_stringIcSt11char_traitsIcESaIcEE7replaceEN9__gnu_cxx17__normal_iterat
GAS LISTING C:\Users\Ilya\AppData\Local\Temp\ccxaKDG8.s 			page 102


 3007      74375F5F 
 3007      63787831 
 3007      31313262 
 3007      61736963 
 3008 36b9 F9CA0000 		.long	0xcaf9
 3009 36bd 01       		.byte	0x1
 3010 36be C6360000 		.long	0x36c6
 3011 36c2 DB360000 		.long	0x36db
 3012 36c6 02       		.uleb128 0x2
 3013 36c7 CFCA0000 		.long	0xcacf
 3014 36cb 01       		.uleb128 0x1
 3015 36cc 090D0000 		.long	0xd09
 3016 36d0 01       		.uleb128 0x1
 3017 36d1 090D0000 		.long	0xd09
 3018 36d5 01       		.uleb128 0x1
 3019 36d6 C55D0000 		.long	0x5dc5
 3020 36da 00       		.byte	0
 3021 36db 2A       		.uleb128 0x2a
 3022 36dc 5F4D5F72 		.ascii "_M_replace_aux\0"
 3022      65706C61 
 3022      63655F61 
 3022      757800
 3023 36eb 09       		.byte	0x9
 3024 36ec CE08     		.word	0x8ce
 3025 36ee 07       		.byte	0x7
 3026 36ef 5F5A4E53 		.ascii "_ZNSt7__cxx1112basic_stringIcSt11char_traitsIcESaIcEE14_M_replace_auxEyyyc\0"
 3026      74375F5F 
 3026      63787831 
 3026      31313262 
 3026      61736963 
 3027 373a F9CA0000 		.long	0xcaf9
 3028 373e 46370000 		.long	0x3746
 3029 3742 60370000 		.long	0x3760
 3030 3746 02       		.uleb128 0x2
 3031 3747 CFCA0000 		.long	0xcacf
 3032 374b 01       		.uleb128 0x1
 3033 374c 42020000 		.long	0x242
 3034 3750 01       		.uleb128 0x1
 3035 3751 42020000 		.long	0x242
 3036 3755 01       		.uleb128 0x1
 3037 3756 42020000 		.long	0x242
 3038 375a 01       		.uleb128 0x1
 3039 375b F7B10000 		.long	0xb1f7
 3040 375f 00       		.byte	0
 3041 3760 2A       		.uleb128 0x2a
 3042 3761 5F4D5F72 		.ascii "_M_replace\0"
 3042      65706C61 
 3042      636500
 3043 376c 09       		.byte	0x9
 3044 376d D208     		.word	0x8d2
 3045 376f 07       		.byte	0x7
 3046 3770 5F5A4E53 		.ascii "_ZNSt7__cxx1112basic_stringIcSt11char_traitsIcESaIcEE10_M_replaceEyyPKcy\0"
 3046      74375F5F 
 3046      63787831 
 3046      31313262 
 3046      61736963 
 3047 37b9 F9CA0000 		.long	0xcaf9
GAS LISTING C:\Users\Ilya\AppData\Local\Temp\ccxaKDG8.s 			page 103


 3048 37bd C5370000 		.long	0x37c5
 3049 37c1 DF370000 		.long	0x37df
 3050 37c5 02       		.uleb128 0x2
 3051 37c6 CFCA0000 		.long	0xcacf
 3052 37ca 01       		.uleb128 0x1
 3053 37cb 42020000 		.long	0x242
 3054 37cf 01       		.uleb128 0x1
 3055 37d0 42020000 		.long	0x242
 3056 37d4 01       		.uleb128 0x1
 3057 37d5 89B70000 		.long	0xb789
 3058 37d9 01       		.uleb128 0x1
 3059 37da 42020000 		.long	0x242
 3060 37de 00       		.byte	0
 3061 37df 2A       		.uleb128 0x2a
 3062 37e0 5F4D5F61 		.ascii "_M_append\0"
 3062      7070656E 
 3062      6400
 3063 37ea 09       		.byte	0x9
 3064 37eb D608     		.word	0x8d6
 3065 37ed 07       		.byte	0x7
 3066 37ee 5F5A4E53 		.ascii "_ZNSt7__cxx1112basic_stringIcSt11char_traitsIcESaIcEE9_M_appendEPKcy\0"
 3066      74375F5F 
 3066      63787831 
 3066      31313262 
 3066      61736963 
 3067 3833 F9CA0000 		.long	0xcaf9
 3068 3837 3F380000 		.long	0x383f
 3069 383b 4F380000 		.long	0x384f
 3070 383f 02       		.uleb128 0x2
 3071 3840 CFCA0000 		.long	0xcacf
 3072 3844 01       		.uleb128 0x1
 3073 3845 89B70000 		.long	0xb789
 3074 3849 01       		.uleb128 0x1
 3075 384a 42020000 		.long	0x242
 3076 384e 00       		.byte	0
 3077 384f 0B       		.uleb128 0xb
 3078 3850 636F7079 		.ascii "copy\0"
 3078      00
 3079 3855 09       		.byte	0x9
 3080 3856 E708     		.word	0x8e7
 3081 3858 07       		.byte	0x7
 3082 3859 5F5A4E4B 		.ascii "_ZNKSt7__cxx1112basic_stringIcSt11char_traitsIcESaIcEE4copyEPcyy\0"
 3082      5374375F 
 3082      5F637878 
 3082      31313132 
 3082      62617369 
 3083 389a 42020000 		.long	0x242
 3084 389e 01       		.byte	0x1
 3085 389f A7380000 		.long	0x38a7
 3086 38a3 BC380000 		.long	0x38bc
 3087 38a7 02       		.uleb128 0x2
 3088 38a8 D5CA0000 		.long	0xcad5
 3089 38ac 01       		.uleb128 0x1
 3090 38ad B4B20000 		.long	0xb2b4
 3091 38b1 01       		.uleb128 0x1
 3092 38b2 42020000 		.long	0x242
 3093 38b6 01       		.uleb128 0x1
GAS LISTING C:\Users\Ilya\AppData\Local\Temp\ccxaKDG8.s 			page 104


 3094 38b7 42020000 		.long	0x242
 3095 38bb 00       		.byte	0
 3096 38bc 17       		.uleb128 0x17
 3097 38bd 73776170 		.ascii "swap\0"
 3097      00
 3098 38c2 09       		.byte	0x9
 3099 38c3 F108     		.word	0x8f1
 3100 38c5 07       		.byte	0x7
 3101 38c6 5F5A4E53 		.ascii "_ZNSt7__cxx1112basic_stringIcSt11char_traitsIcESaIcEE4swapERS4_\0"
 3101      74375F5F 
 3101      63787831 
 3101      31313262 
 3101      61736963 
 3102 3906 01       		.byte	0x1
 3103 3907 0F390000 		.long	0x390f
 3104 390b 1A390000 		.long	0x391a
 3105 390f 02       		.uleb128 0x2
 3106 3910 CFCA0000 		.long	0xcacf
 3107 3914 01       		.uleb128 0x1
 3108 3915 F9CA0000 		.long	0xcaf9
 3109 3919 00       		.byte	0
 3110 391a 0B       		.uleb128 0xb
 3111 391b 635F7374 		.ascii "c_str\0"
 3111      7200
 3112 3921 09       		.byte	0x9
 3113 3922 FB08     		.word	0x8fb
 3114 3924 07       		.byte	0x7
 3115 3925 5F5A4E4B 		.ascii "_ZNKSt7__cxx1112basic_stringIcSt11char_traitsIcESaIcEE5c_strEv\0"
 3115      5374375F 
 3115      5F637878 
 3115      31313132 
 3115      62617369 
 3116 3964 89B70000 		.long	0xb789
 3117 3968 01       		.byte	0x1
 3118 3969 71390000 		.long	0x3971
 3119 396d 77390000 		.long	0x3977
 3120 3971 02       		.uleb128 0x2
 3121 3972 D5CA0000 		.long	0xcad5
 3122 3976 00       		.byte	0
 3123 3977 0B       		.uleb128 0xb
 3124 3978 64617461 		.ascii "data\0"
 3124      00
 3125 397d 09       		.byte	0x9
 3126 397e 0709     		.word	0x907
 3127 3980 07       		.byte	0x7
 3128 3981 5F5A4E4B 		.ascii "_ZNKSt7__cxx1112basic_stringIcSt11char_traitsIcESaIcEE4dataEv\0"
 3128      5374375F 
 3128      5F637878 
 3128      31313132 
 3128      62617369 
 3129 39bf 89B70000 		.long	0xb789
 3130 39c3 01       		.byte	0x1
 3131 39c4 CC390000 		.long	0x39cc
 3132 39c8 D2390000 		.long	0x39d2
 3133 39cc 02       		.uleb128 0x2
 3134 39cd D5CA0000 		.long	0xcad5
 3135 39d1 00       		.byte	0
GAS LISTING C:\Users\Ilya\AppData\Local\Temp\ccxaKDG8.s 			page 105


 3136 39d2 04       		.uleb128 0x4
 3137 39d3 C0020000 		.secrel32	.LASF33
 3138 39d7 09       		.byte	0x9
 3139 39d8 1A09     		.word	0x91a
 3140 39da 07       		.byte	0x7
 3141 39db 5F5A4E4B 		.ascii "_ZNKSt7__cxx1112basic_stringIcSt11char_traitsIcESaIcEE13get_allocatorEv\0"
 3141      5374375F 
 3141      5F637878 
 3141      31313132 
 3141      62617369 
 3142 3a23 E8070000 		.long	0x7e8
 3143 3a27 01       		.byte	0x1
 3144 3a28 303A0000 		.long	0x3a30
 3145 3a2c 363A0000 		.long	0x3a36
 3146 3a30 02       		.uleb128 0x2
 3147 3a31 D5CA0000 		.long	0xcad5
 3148 3a35 00       		.byte	0
 3149 3a36 0B       		.uleb128 0xb
 3150 3a37 66696E64 		.ascii "find\0"
 3150      00
 3151 3a3c 09       		.byte	0x9
 3152 3a3d 2A09     		.word	0x92a
 3153 3a3f 07       		.byte	0x7
 3154 3a40 5F5A4E4B 		.ascii "_ZNKSt7__cxx1112basic_stringIcSt11char_traitsIcESaIcEE4findEPKcyy\0"
 3154      5374375F 
 3154      5F637878 
 3154      31313132 
 3154      62617369 
 3155 3a82 42020000 		.long	0x242
 3156 3a86 01       		.byte	0x1
 3157 3a87 8F3A0000 		.long	0x3a8f
 3158 3a8b A43A0000 		.long	0x3aa4
 3159 3a8f 02       		.uleb128 0x2
 3160 3a90 D5CA0000 		.long	0xcad5
 3161 3a94 01       		.uleb128 0x1
 3162 3a95 89B70000 		.long	0xb789
 3163 3a99 01       		.uleb128 0x1
 3164 3a9a 42020000 		.long	0x242
 3165 3a9e 01       		.uleb128 0x1
 3166 3a9f 42020000 		.long	0x242
 3167 3aa3 00       		.byte	0
 3168 3aa4 0B       		.uleb128 0xb
 3169 3aa5 66696E64 		.ascii "find\0"
 3169      00
 3170 3aaa 09       		.byte	0x9
 3171 3aab 3809     		.word	0x938
 3172 3aad 07       		.byte	0x7
 3173 3aae 5F5A4E4B 		.ascii "_ZNKSt7__cxx1112basic_stringIcSt11char_traitsIcESaIcEE4findERKS4_y\0"
 3173      5374375F 
 3173      5F637878 
 3173      31313132 
 3173      62617369 
 3174 3af1 42020000 		.long	0x242
 3175 3af5 01       		.byte	0x1
 3176 3af6 FE3A0000 		.long	0x3afe
 3177 3afa 0E3B0000 		.long	0x3b0e
 3178 3afe 02       		.uleb128 0x2
GAS LISTING C:\Users\Ilya\AppData\Local\Temp\ccxaKDG8.s 			page 106


 3179 3aff D5CA0000 		.long	0xcad5
 3180 3b03 01       		.uleb128 0x1
 3181 3b04 EDCA0000 		.long	0xcaed
 3182 3b08 01       		.uleb128 0x1
 3183 3b09 42020000 		.long	0x242
 3184 3b0d 00       		.byte	0
 3185 3b0e 0B       		.uleb128 0xb
 3186 3b0f 66696E64 		.ascii "find\0"
 3186      00
 3187 3b14 09       		.byte	0x9
 3188 3b15 5809     		.word	0x958
 3189 3b17 07       		.byte	0x7
 3190 3b18 5F5A4E4B 		.ascii "_ZNKSt7__cxx1112basic_stringIcSt11char_traitsIcESaIcEE4findEPKcy\0"
 3190      5374375F 
 3190      5F637878 
 3190      31313132 
 3190      62617369 
 3191 3b59 42020000 		.long	0x242
 3192 3b5d 01       		.byte	0x1
 3193 3b5e 663B0000 		.long	0x3b66
 3194 3b62 763B0000 		.long	0x3b76
 3195 3b66 02       		.uleb128 0x2
 3196 3b67 D5CA0000 		.long	0xcad5
 3197 3b6b 01       		.uleb128 0x1
 3198 3b6c 89B70000 		.long	0xb789
 3199 3b70 01       		.uleb128 0x1
 3200 3b71 42020000 		.long	0x242
 3201 3b75 00       		.byte	0
 3202 3b76 0B       		.uleb128 0xb
 3203 3b77 66696E64 		.ascii "find\0"
 3203      00
 3204 3b7c 09       		.byte	0x9
 3205 3b7d 6909     		.word	0x969
 3206 3b7f 07       		.byte	0x7
 3207 3b80 5F5A4E4B 		.ascii "_ZNKSt7__cxx1112basic_stringIcSt11char_traitsIcESaIcEE4findEcy\0"
 3207      5374375F 
 3207      5F637878 
 3207      31313132 
 3207      62617369 
 3208 3bbf 42020000 		.long	0x242
 3209 3bc3 01       		.byte	0x1
 3210 3bc4 CC3B0000 		.long	0x3bcc
 3211 3bc8 DC3B0000 		.long	0x3bdc
 3212 3bcc 02       		.uleb128 0x2
 3213 3bcd D5CA0000 		.long	0xcad5
 3214 3bd1 01       		.uleb128 0x1
 3215 3bd2 F7B10000 		.long	0xb1f7
 3216 3bd6 01       		.uleb128 0x1
 3217 3bd7 42020000 		.long	0x242
 3218 3bdb 00       		.byte	0
 3219 3bdc 04       		.uleb128 0x4
 3220 3bdd 0A040000 		.secrel32	.LASF34
 3221 3be1 09       		.byte	0x9
 3222 3be2 7609     		.word	0x976
 3223 3be4 07       		.byte	0x7
 3224 3be5 5F5A4E4B 		.ascii "_ZNKSt7__cxx1112basic_stringIcSt11char_traitsIcESaIcEE5rfindERKS4_y\0"
 3224      5374375F 
GAS LISTING C:\Users\Ilya\AppData\Local\Temp\ccxaKDG8.s 			page 107


 3224      5F637878 
 3224      31313132 
 3224      62617369 
 3225 3c29 42020000 		.long	0x242
 3226 3c2d 01       		.byte	0x1
 3227 3c2e 363C0000 		.long	0x3c36
 3228 3c32 463C0000 		.long	0x3c46
 3229 3c36 02       		.uleb128 0x2
 3230 3c37 D5CA0000 		.long	0xcad5
 3231 3c3b 01       		.uleb128 0x1
 3232 3c3c EDCA0000 		.long	0xcaed
 3233 3c40 01       		.uleb128 0x1
 3234 3c41 42020000 		.long	0x242
 3235 3c45 00       		.byte	0
 3236 3c46 04       		.uleb128 0x4
 3237 3c47 0A040000 		.secrel32	.LASF34
 3238 3c4b 09       		.byte	0x9
 3239 3c4c 9809     		.word	0x998
 3240 3c4e 07       		.byte	0x7
 3241 3c4f 5F5A4E4B 		.ascii "_ZNKSt7__cxx1112basic_stringIcSt11char_traitsIcESaIcEE5rfindEPKcyy\0"
 3241      5374375F 
 3241      5F637878 
 3241      31313132 
 3241      62617369 
 3242 3c92 42020000 		.long	0x242
 3243 3c96 01       		.byte	0x1
 3244 3c97 9F3C0000 		.long	0x3c9f
 3245 3c9b B43C0000 		.long	0x3cb4
 3246 3c9f 02       		.uleb128 0x2
 3247 3ca0 D5CA0000 		.long	0xcad5
 3248 3ca4 01       		.uleb128 0x1
 3249 3ca5 89B70000 		.long	0xb789
 3250 3ca9 01       		.uleb128 0x1
 3251 3caa 42020000 		.long	0x242
 3252 3cae 01       		.uleb128 0x1
 3253 3caf 42020000 		.long	0x242
 3254 3cb3 00       		.byte	0
 3255 3cb4 04       		.uleb128 0x4
 3256 3cb5 0A040000 		.secrel32	.LASF34
 3257 3cb9 09       		.byte	0x9
 3258 3cba A609     		.word	0x9a6
 3259 3cbc 07       		.byte	0x7
 3260 3cbd 5F5A4E4B 		.ascii "_ZNKSt7__cxx1112basic_stringIcSt11char_traitsIcESaIcEE5rfindEPKcy\0"
 3260      5374375F 
 3260      5F637878 
 3260      31313132 
 3260      62617369 
 3261 3cff 42020000 		.long	0x242
 3262 3d03 01       		.byte	0x1
 3263 3d04 0C3D0000 		.long	0x3d0c
 3264 3d08 1C3D0000 		.long	0x3d1c
 3265 3d0c 02       		.uleb128 0x2
 3266 3d0d D5CA0000 		.long	0xcad5
 3267 3d11 01       		.uleb128 0x1
 3268 3d12 89B70000 		.long	0xb789
 3269 3d16 01       		.uleb128 0x1
 3270 3d17 42020000 		.long	0x242
GAS LISTING C:\Users\Ilya\AppData\Local\Temp\ccxaKDG8.s 			page 108


 3271 3d1b 00       		.byte	0
 3272 3d1c 04       		.uleb128 0x4
 3273 3d1d 0A040000 		.secrel32	.LASF34
 3274 3d21 09       		.byte	0x9
 3275 3d22 B709     		.word	0x9b7
 3276 3d24 07       		.byte	0x7
 3277 3d25 5F5A4E4B 		.ascii "_ZNKSt7__cxx1112basic_stringIcSt11char_traitsIcESaIcEE5rfindEcy\0"
 3277      5374375F 
 3277      5F637878 
 3277      31313132 
 3277      62617369 
 3278 3d65 42020000 		.long	0x242
 3279 3d69 01       		.byte	0x1
 3280 3d6a 723D0000 		.long	0x3d72
 3281 3d6e 823D0000 		.long	0x3d82
 3282 3d72 02       		.uleb128 0x2
 3283 3d73 D5CA0000 		.long	0xcad5
 3284 3d77 01       		.uleb128 0x1
 3285 3d78 F7B10000 		.long	0xb1f7
 3286 3d7c 01       		.uleb128 0x1
 3287 3d7d 42020000 		.long	0x242
 3288 3d81 00       		.byte	0
 3289 3d82 04       		.uleb128 0x4
 3290 3d83 86010000 		.secrel32	.LASF35
 3291 3d87 09       		.byte	0x9
 3292 3d88 C509     		.word	0x9c5
 3293 3d8a 07       		.byte	0x7
 3294 3d8b 5F5A4E4B 		.ascii "_ZNKSt7__cxx1112basic_stringIcSt11char_traitsIcESaIcEE13find_first_ofERKS4_y\0"
 3294      5374375F 
 3294      5F637878 
 3294      31313132 
 3294      62617369 
 3295 3dd8 42020000 		.long	0x242
 3296 3ddc 01       		.byte	0x1
 3297 3ddd E53D0000 		.long	0x3de5
 3298 3de1 F53D0000 		.long	0x3df5
 3299 3de5 02       		.uleb128 0x2
 3300 3de6 D5CA0000 		.long	0xcad5
 3301 3dea 01       		.uleb128 0x1
 3302 3deb EDCA0000 		.long	0xcaed
 3303 3def 01       		.uleb128 0x1
 3304 3df0 42020000 		.long	0x242
 3305 3df4 00       		.byte	0
 3306 3df5 04       		.uleb128 0x4
 3307 3df6 86010000 		.secrel32	.LASF35
 3308 3dfa 09       		.byte	0x9
 3309 3dfb E809     		.word	0x9e8
 3310 3dfd 07       		.byte	0x7
 3311 3dfe 5F5A4E4B 		.ascii "_ZNKSt7__cxx1112basic_stringIcSt11char_traitsIcESaIcEE13find_first_ofEPKcyy\0"
 3311      5374375F 
 3311      5F637878 
 3311      31313132 
 3311      62617369 
 3312 3e4a 42020000 		.long	0x242
 3313 3e4e 01       		.byte	0x1
 3314 3e4f 573E0000 		.long	0x3e57
 3315 3e53 6C3E0000 		.long	0x3e6c
GAS LISTING C:\Users\Ilya\AppData\Local\Temp\ccxaKDG8.s 			page 109


 3316 3e57 02       		.uleb128 0x2
 3317 3e58 D5CA0000 		.long	0xcad5
 3318 3e5c 01       		.uleb128 0x1
 3319 3e5d 89B70000 		.long	0xb789
 3320 3e61 01       		.uleb128 0x1
 3321 3e62 42020000 		.long	0x242
 3322 3e66 01       		.uleb128 0x1
 3323 3e67 42020000 		.long	0x242
 3324 3e6b 00       		.byte	0
 3325 3e6c 04       		.uleb128 0x4
 3326 3e6d 86010000 		.secrel32	.LASF35
 3327 3e71 09       		.byte	0x9
 3328 3e72 F609     		.word	0x9f6
 3329 3e74 07       		.byte	0x7
 3330 3e75 5F5A4E4B 		.ascii "_ZNKSt7__cxx1112basic_stringIcSt11char_traitsIcESaIcEE13find_first_ofEPKcy\0"
 3330      5374375F 
 3330      5F637878 
 3330      31313132 
 3330      62617369 
 3331 3ec0 42020000 		.long	0x242
 3332 3ec4 01       		.byte	0x1
 3333 3ec5 CD3E0000 		.long	0x3ecd
 3334 3ec9 DD3E0000 		.long	0x3edd
 3335 3ecd 02       		.uleb128 0x2
 3336 3ece D5CA0000 		.long	0xcad5
 3337 3ed2 01       		.uleb128 0x1
 3338 3ed3 89B70000 		.long	0xb789
 3339 3ed7 01       		.uleb128 0x1
 3340 3ed8 42020000 		.long	0x242
 3341 3edc 00       		.byte	0
 3342 3edd 04       		.uleb128 0x4
 3343 3ede 86010000 		.secrel32	.LASF35
 3344 3ee2 09       		.byte	0x9
 3345 3ee3 0A0A     		.word	0xa0a
 3346 3ee5 07       		.byte	0x7
 3347 3ee6 5F5A4E4B 		.ascii "_ZNKSt7__cxx1112basic_stringIcSt11char_traitsIcESaIcEE13find_first_ofEcy\0"
 3347      5374375F 
 3347      5F637878 
 3347      31313132 
 3347      62617369 
 3348 3f2f 42020000 		.long	0x242
 3349 3f33 01       		.byte	0x1
 3350 3f34 3C3F0000 		.long	0x3f3c
 3351 3f38 4C3F0000 		.long	0x3f4c
 3352 3f3c 02       		.uleb128 0x2
 3353 3f3d D5CA0000 		.long	0xcad5
 3354 3f41 01       		.uleb128 0x1
 3355 3f42 F7B10000 		.long	0xb1f7
 3356 3f46 01       		.uleb128 0x1
 3357 3f47 42020000 		.long	0x242
 3358 3f4b 00       		.byte	0
 3359 3f4c 04       		.uleb128 0x4
 3360 3f4d E5030000 		.secrel32	.LASF36
 3361 3f51 09       		.byte	0x9
 3362 3f52 190A     		.word	0xa19
 3363 3f54 07       		.byte	0x7
 3364 3f55 5F5A4E4B 		.ascii "_ZNKSt7__cxx1112basic_stringIcSt11char_traitsIcESaIcEE12find_last_ofERKS4_y\0"
GAS LISTING C:\Users\Ilya\AppData\Local\Temp\ccxaKDG8.s 			page 110


 3364      5374375F 
 3364      5F637878 
 3364      31313132 
 3364      62617369 
 3365 3fa1 42020000 		.long	0x242
 3366 3fa5 01       		.byte	0x1
 3367 3fa6 AE3F0000 		.long	0x3fae
 3368 3faa BE3F0000 		.long	0x3fbe
 3369 3fae 02       		.uleb128 0x2
 3370 3faf D5CA0000 		.long	0xcad5
 3371 3fb3 01       		.uleb128 0x1
 3372 3fb4 EDCA0000 		.long	0xcaed
 3373 3fb8 01       		.uleb128 0x1
 3374 3fb9 42020000 		.long	0x242
 3375 3fbd 00       		.byte	0
 3376 3fbe 04       		.uleb128 0x4
 3377 3fbf E5030000 		.secrel32	.LASF36
 3378 3fc3 09       		.byte	0x9
 3379 3fc4 3C0A     		.word	0xa3c
 3380 3fc6 07       		.byte	0x7
 3381 3fc7 5F5A4E4B 		.ascii "_ZNKSt7__cxx1112basic_stringIcSt11char_traitsIcESaIcEE12find_last_ofEPKcyy\0"
 3381      5374375F 
 3381      5F637878 
 3381      31313132 
 3381      62617369 
 3382 4012 42020000 		.long	0x242
 3383 4016 01       		.byte	0x1
 3384 4017 1F400000 		.long	0x401f
 3385 401b 34400000 		.long	0x4034
 3386 401f 02       		.uleb128 0x2
 3387 4020 D5CA0000 		.long	0xcad5
 3388 4024 01       		.uleb128 0x1
 3389 4025 89B70000 		.long	0xb789
 3390 4029 01       		.uleb128 0x1
 3391 402a 42020000 		.long	0x242
 3392 402e 01       		.uleb128 0x1
 3393 402f 42020000 		.long	0x242
 3394 4033 00       		.byte	0
 3395 4034 04       		.uleb128 0x4
 3396 4035 E5030000 		.secrel32	.LASF36
 3397 4039 09       		.byte	0x9
 3398 403a 4A0A     		.word	0xa4a
 3399 403c 07       		.byte	0x7
 3400 403d 5F5A4E4B 		.ascii "_ZNKSt7__cxx1112basic_stringIcSt11char_traitsIcESaIcEE12find_last_ofEPKcy\0"
 3400      5374375F 
 3400      5F637878 
 3400      31313132 
 3400      62617369 
 3401 4087 42020000 		.long	0x242
 3402 408b 01       		.byte	0x1
 3403 408c 94400000 		.long	0x4094
 3404 4090 A4400000 		.long	0x40a4
 3405 4094 02       		.uleb128 0x2
 3406 4095 D5CA0000 		.long	0xcad5
 3407 4099 01       		.uleb128 0x1
 3408 409a 89B70000 		.long	0xb789
 3409 409e 01       		.uleb128 0x1
GAS LISTING C:\Users\Ilya\AppData\Local\Temp\ccxaKDG8.s 			page 111


 3410 409f 42020000 		.long	0x242
 3411 40a3 00       		.byte	0
 3412 40a4 04       		.uleb128 0x4
 3413 40a5 E5030000 		.secrel32	.LASF36
 3414 40a9 09       		.byte	0x9
 3415 40aa 5E0A     		.word	0xa5e
 3416 40ac 07       		.byte	0x7
 3417 40ad 5F5A4E4B 		.ascii "_ZNKSt7__cxx1112basic_stringIcSt11char_traitsIcESaIcEE12find_last_ofEcy\0"
 3417      5374375F 
 3417      5F637878 
 3417      31313132 
 3417      62617369 
 3418 40f5 42020000 		.long	0x242
 3419 40f9 01       		.byte	0x1
 3420 40fa 02410000 		.long	0x4102
 3421 40fe 12410000 		.long	0x4112
 3422 4102 02       		.uleb128 0x2
 3423 4103 D5CA0000 		.long	0xcad5
 3424 4107 01       		.uleb128 0x1
 3425 4108 F7B10000 		.long	0xb1f7
 3426 410c 01       		.uleb128 0x1
 3427 410d 42020000 		.long	0x242
 3428 4111 00       		.byte	0
 3429 4112 04       		.uleb128 0x4
 3430 4113 1A000000 		.secrel32	.LASF37
 3431 4117 09       		.byte	0x9
 3432 4118 6C0A     		.word	0xa6c
 3433 411a 07       		.byte	0x7
 3434 411b 5F5A4E4B 		.ascii "_ZNKSt7__cxx1112basic_stringIcSt11char_traitsIcESaIcEE17find_first_not_ofERKS4_y\0"
 3434      5374375F 
 3434      5F637878 
 3434      31313132 
 3434      62617369 
 3435 416c 42020000 		.long	0x242
 3436 4170 01       		.byte	0x1
 3437 4171 79410000 		.long	0x4179
 3438 4175 89410000 		.long	0x4189
 3439 4179 02       		.uleb128 0x2
 3440 417a D5CA0000 		.long	0xcad5
 3441 417e 01       		.uleb128 0x1
 3442 417f EDCA0000 		.long	0xcaed
 3443 4183 01       		.uleb128 0x1
 3444 4184 42020000 		.long	0x242
 3445 4188 00       		.byte	0
 3446 4189 04       		.uleb128 0x4
 3447 418a 1A000000 		.secrel32	.LASF37
 3448 418e 09       		.byte	0x9
 3449 418f 8F0A     		.word	0xa8f
 3450 4191 07       		.byte	0x7
 3451 4192 5F5A4E4B 		.ascii "_ZNKSt7__cxx1112basic_stringIcSt11char_traitsIcESaIcEE17find_first_not_ofEPKcyy\0"
 3451      5374375F 
 3451      5F637878 
 3451      31313132 
 3451      62617369 
 3452 41e2 42020000 		.long	0x242
 3453 41e6 01       		.byte	0x1
 3454 41e7 EF410000 		.long	0x41ef
GAS LISTING C:\Users\Ilya\AppData\Local\Temp\ccxaKDG8.s 			page 112


 3455 41eb 04420000 		.long	0x4204
 3456 41ef 02       		.uleb128 0x2
 3457 41f0 D5CA0000 		.long	0xcad5
 3458 41f4 01       		.uleb128 0x1
 3459 41f5 89B70000 		.long	0xb789
 3460 41f9 01       		.uleb128 0x1
 3461 41fa 42020000 		.long	0x242
 3462 41fe 01       		.uleb128 0x1
 3463 41ff 42020000 		.long	0x242
 3464 4203 00       		.byte	0
 3465 4204 04       		.uleb128 0x4
 3466 4205 1A000000 		.secrel32	.LASF37
 3467 4209 09       		.byte	0x9
 3468 420a 9D0A     		.word	0xa9d
 3469 420c 07       		.byte	0x7
 3470 420d 5F5A4E4B 		.ascii "_ZNKSt7__cxx1112basic_stringIcSt11char_traitsIcESaIcEE17find_first_not_ofEPKcy\0"
 3470      5374375F 
 3470      5F637878 
 3470      31313132 
 3470      62617369 
 3471 425c 42020000 		.long	0x242
 3472 4260 01       		.byte	0x1
 3473 4261 69420000 		.long	0x4269
 3474 4265 79420000 		.long	0x4279
 3475 4269 02       		.uleb128 0x2
 3476 426a D5CA0000 		.long	0xcad5
 3477 426e 01       		.uleb128 0x1
 3478 426f 89B70000 		.long	0xb789
 3479 4273 01       		.uleb128 0x1
 3480 4274 42020000 		.long	0x242
 3481 4278 00       		.byte	0
 3482 4279 04       		.uleb128 0x4
 3483 427a 1A000000 		.secrel32	.LASF37
 3484 427e 09       		.byte	0x9
 3485 427f AF0A     		.word	0xaaf
 3486 4281 07       		.byte	0x7
 3487 4282 5F5A4E4B 		.ascii "_ZNKSt7__cxx1112basic_stringIcSt11char_traitsIcESaIcEE17find_first_not_ofEcy\0"
 3487      5374375F 
 3487      5F637878 
 3487      31313132 
 3487      62617369 
 3488 42cf 42020000 		.long	0x242
 3489 42d3 01       		.byte	0x1
 3490 42d4 DC420000 		.long	0x42dc
 3491 42d8 EC420000 		.long	0x42ec
 3492 42dc 02       		.uleb128 0x2
 3493 42dd D5CA0000 		.long	0xcad5
 3494 42e1 01       		.uleb128 0x1
 3495 42e2 F7B10000 		.long	0xb1f7
 3496 42e6 01       		.uleb128 0x1
 3497 42e7 42020000 		.long	0x242
 3498 42eb 00       		.byte	0
 3499 42ec 04       		.uleb128 0x4
 3500 42ed 09000000 		.secrel32	.LASF38
 3501 42f1 09       		.byte	0x9
 3502 42f2 BE0A     		.word	0xabe
 3503 42f4 07       		.byte	0x7
GAS LISTING C:\Users\Ilya\AppData\Local\Temp\ccxaKDG8.s 			page 113


 3504 42f5 5F5A4E4B 		.ascii "_ZNKSt7__cxx1112basic_stringIcSt11char_traitsIcESaIcEE16find_last_not_ofERKS4_y\0"
 3504      5374375F 
 3504      5F637878 
 3504      31313132 
 3504      62617369 
 3505 4345 42020000 		.long	0x242
 3506 4349 01       		.byte	0x1
 3507 434a 52430000 		.long	0x4352
 3508 434e 62430000 		.long	0x4362
 3509 4352 02       		.uleb128 0x2
 3510 4353 D5CA0000 		.long	0xcad5
 3511 4357 01       		.uleb128 0x1
 3512 4358 EDCA0000 		.long	0xcaed
 3513 435c 01       		.uleb128 0x1
 3514 435d 42020000 		.long	0x242
 3515 4361 00       		.byte	0
 3516 4362 04       		.uleb128 0x4
 3517 4363 09000000 		.secrel32	.LASF38
 3518 4367 09       		.byte	0x9
 3519 4368 E10A     		.word	0xae1
 3520 436a 07       		.byte	0x7
 3521 436b 5F5A4E4B 		.ascii "_ZNKSt7__cxx1112basic_stringIcSt11char_traitsIcESaIcEE16find_last_not_ofEPKcyy\0"
 3521      5374375F 
 3521      5F637878 
 3521      31313132 
 3521      62617369 
 3522 43ba 42020000 		.long	0x242
 3523 43be 01       		.byte	0x1
 3524 43bf C7430000 		.long	0x43c7
 3525 43c3 DC430000 		.long	0x43dc
 3526 43c7 02       		.uleb128 0x2
 3527 43c8 D5CA0000 		.long	0xcad5
 3528 43cc 01       		.uleb128 0x1
 3529 43cd 89B70000 		.long	0xb789
 3530 43d1 01       		.uleb128 0x1
 3531 43d2 42020000 		.long	0x242
 3532 43d6 01       		.uleb128 0x1
 3533 43d7 42020000 		.long	0x242
 3534 43db 00       		.byte	0
 3535 43dc 04       		.uleb128 0x4
 3536 43dd 09000000 		.secrel32	.LASF38
 3537 43e1 09       		.byte	0x9
 3538 43e2 EF0A     		.word	0xaef
 3539 43e4 07       		.byte	0x7
 3540 43e5 5F5A4E4B 		.ascii "_ZNKSt7__cxx1112basic_stringIcSt11char_traitsIcESaIcEE16find_last_not_ofEPKcy\0"
 3540      5374375F 
 3540      5F637878 
 3540      31313132 
 3540      62617369 
 3541 4433 42020000 		.long	0x242
 3542 4437 01       		.byte	0x1
 3543 4438 40440000 		.long	0x4440
 3544 443c 50440000 		.long	0x4450
 3545 4440 02       		.uleb128 0x2
 3546 4441 D5CA0000 		.long	0xcad5
 3547 4445 01       		.uleb128 0x1
 3548 4446 89B70000 		.long	0xb789
GAS LISTING C:\Users\Ilya\AppData\Local\Temp\ccxaKDG8.s 			page 114


 3549 444a 01       		.uleb128 0x1
 3550 444b 42020000 		.long	0x242
 3551 444f 00       		.byte	0
 3552 4450 04       		.uleb128 0x4
 3553 4451 09000000 		.secrel32	.LASF38
 3554 4455 09       		.byte	0x9
 3555 4456 010B     		.word	0xb01
 3556 4458 07       		.byte	0x7
 3557 4459 5F5A4E4B 		.ascii "_ZNKSt7__cxx1112basic_stringIcSt11char_traitsIcESaIcEE16find_last_not_ofEcy\0"
 3557      5374375F 
 3557      5F637878 
 3557      31313132 
 3557      62617369 
 3558 44a5 42020000 		.long	0x242
 3559 44a9 01       		.byte	0x1
 3560 44aa B2440000 		.long	0x44b2
 3561 44ae C2440000 		.long	0x44c2
 3562 44b2 02       		.uleb128 0x2
 3563 44b3 D5CA0000 		.long	0xcad5
 3564 44b7 01       		.uleb128 0x1
 3565 44b8 F7B10000 		.long	0xb1f7
 3566 44bc 01       		.uleb128 0x1
 3567 44bd 42020000 		.long	0x242
 3568 44c1 00       		.byte	0
 3569 44c2 0B       		.uleb128 0xb
 3570 44c3 73756273 		.ascii "substr\0"
 3570      747200
 3571 44ca 09       		.byte	0x9
 3572 44cb 110B     		.word	0xb11
 3573 44cd 07       		.byte	0x7
 3574 44ce 5F5A4E4B 		.ascii "_ZNKSt7__cxx1112basic_stringIcSt11char_traitsIcESaIcEE6substrEyy\0"
 3574      5374375F 
 3574      5F637878 
 3574      31313132 
 3574      62617369 
 3575 450f B0000000 		.long	0xb0
 3576 4513 01       		.byte	0x1
 3577 4514 1C450000 		.long	0x451c
 3578 4518 2C450000 		.long	0x452c
 3579 451c 02       		.uleb128 0x2
 3580 451d D5CA0000 		.long	0xcad5
 3581 4521 01       		.uleb128 0x1
 3582 4522 42020000 		.long	0x242
 3583 4526 01       		.uleb128 0x1
 3584 4527 42020000 		.long	0x242
 3585 452b 00       		.byte	0
 3586 452c 04       		.uleb128 0x4
 3587 452d 9E020000 		.secrel32	.LASF39
 3588 4531 09       		.byte	0x9
 3589 4532 240B     		.word	0xb24
 3590 4534 07       		.byte	0x7
 3591 4535 5F5A4E4B 		.ascii "_ZNKSt7__cxx1112basic_stringIcSt11char_traitsIcESaIcEE7compareERKS4_\0"
 3591      5374375F 
 3591      5F637878 
 3591      31313132 
 3591      62617369 
 3592 457a 9CB20000 		.long	0xb29c
GAS LISTING C:\Users\Ilya\AppData\Local\Temp\ccxaKDG8.s 			page 115


 3593 457e 01       		.byte	0x1
 3594 457f 87450000 		.long	0x4587
 3595 4583 92450000 		.long	0x4592
 3596 4587 02       		.uleb128 0x2
 3597 4588 D5CA0000 		.long	0xcad5
 3598 458c 01       		.uleb128 0x1
 3599 458d EDCA0000 		.long	0xcaed
 3600 4591 00       		.byte	0
 3601 4592 04       		.uleb128 0x4
 3602 4593 9E020000 		.secrel32	.LASF39
 3603 4597 09       		.byte	0x9
 3604 4598 810B     		.word	0xb81
 3605 459a 07       		.byte	0x7
 3606 459b 5F5A4E4B 		.ascii "_ZNKSt7__cxx1112basic_stringIcSt11char_traitsIcESaIcEE7compareEyyRKS4_\0"
 3606      5374375F 
 3606      5F637878 
 3606      31313132 
 3606      62617369 
 3607 45e2 9CB20000 		.long	0xb29c
 3608 45e6 01       		.byte	0x1
 3609 45e7 EF450000 		.long	0x45ef
 3610 45eb 04460000 		.long	0x4604
 3611 45ef 02       		.uleb128 0x2
 3612 45f0 D5CA0000 		.long	0xcad5
 3613 45f4 01       		.uleb128 0x1
 3614 45f5 42020000 		.long	0x242
 3615 45f9 01       		.uleb128 0x1
 3616 45fa 42020000 		.long	0x242
 3617 45fe 01       		.uleb128 0x1
 3618 45ff EDCA0000 		.long	0xcaed
 3619 4603 00       		.byte	0
 3620 4604 04       		.uleb128 0x4
 3621 4605 9E020000 		.secrel32	.LASF39
 3622 4609 09       		.byte	0x9
 3623 460a 9B0B     		.word	0xb9b
 3624 460c 07       		.byte	0x7
 3625 460d 5F5A4E4B 		.ascii "_ZNKSt7__cxx1112basic_stringIcSt11char_traitsIcESaIcEE7compareEyyRKS4_yy\0"
 3625      5374375F 
 3625      5F637878 
 3625      31313132 
 3625      62617369 
 3626 4656 9CB20000 		.long	0xb29c
 3627 465a 01       		.byte	0x1
 3628 465b 63460000 		.long	0x4663
 3629 465f 82460000 		.long	0x4682
 3630 4663 02       		.uleb128 0x2
 3631 4664 D5CA0000 		.long	0xcad5
 3632 4668 01       		.uleb128 0x1
 3633 4669 42020000 		.long	0x242
 3634 466d 01       		.uleb128 0x1
 3635 466e 42020000 		.long	0x242
 3636 4672 01       		.uleb128 0x1
 3637 4673 EDCA0000 		.long	0xcaed
 3638 4677 01       		.uleb128 0x1
 3639 4678 42020000 		.long	0x242
 3640 467c 01       		.uleb128 0x1
 3641 467d 42020000 		.long	0x242
GAS LISTING C:\Users\Ilya\AppData\Local\Temp\ccxaKDG8.s 			page 116


 3642 4681 00       		.byte	0
 3643 4682 04       		.uleb128 0x4
 3644 4683 9E020000 		.secrel32	.LASF39
 3645 4687 09       		.byte	0x9
 3646 4688 AD0B     		.word	0xbad
 3647 468a 07       		.byte	0x7
 3648 468b 5F5A4E4B 		.ascii "_ZNKSt7__cxx1112basic_stringIcSt11char_traitsIcESaIcEE7compareEPKc\0"
 3648      5374375F 
 3648      5F637878 
 3648      31313132 
 3648      62617369 
 3649 46ce 9CB20000 		.long	0xb29c
 3650 46d2 01       		.byte	0x1
 3651 46d3 DB460000 		.long	0x46db
 3652 46d7 E6460000 		.long	0x46e6
 3653 46db 02       		.uleb128 0x2
 3654 46dc D5CA0000 		.long	0xcad5
 3655 46e0 01       		.uleb128 0x1
 3656 46e1 89B70000 		.long	0xb789
 3657 46e5 00       		.byte	0
 3658 46e6 04       		.uleb128 0x4
 3659 46e7 9E020000 		.secrel32	.LASF39
 3660 46eb 09       		.byte	0x9
 3661 46ec C50B     		.word	0xbc5
 3662 46ee 07       		.byte	0x7
 3663 46ef 5F5A4E4B 		.ascii "_ZNKSt7__cxx1112basic_stringIcSt11char_traitsIcESaIcEE7compareEyyPKc\0"
 3663      5374375F 
 3663      5F637878 
 3663      31313132 
 3663      62617369 
 3664 4734 9CB20000 		.long	0xb29c
 3665 4738 01       		.byte	0x1
 3666 4739 41470000 		.long	0x4741
 3667 473d 56470000 		.long	0x4756
 3668 4741 02       		.uleb128 0x2
 3669 4742 D5CA0000 		.long	0xcad5
 3670 4746 01       		.uleb128 0x1
 3671 4747 42020000 		.long	0x242
 3672 474b 01       		.uleb128 0x1
 3673 474c 42020000 		.long	0x242
 3674 4750 01       		.uleb128 0x1
 3675 4751 89B70000 		.long	0xb789
 3676 4755 00       		.byte	0
 3677 4756 04       		.uleb128 0x4
 3678 4757 9E020000 		.secrel32	.LASF39
 3679 475b 09       		.byte	0x9
 3680 475c E00B     		.word	0xbe0
 3681 475e 07       		.byte	0x7
 3682 475f 5F5A4E4B 		.ascii "_ZNKSt7__cxx1112basic_stringIcSt11char_traitsIcESaIcEE7compareEyyPKcy\0"
 3682      5374375F 
 3682      5F637878 
 3682      31313132 
 3682      62617369 
 3683 47a5 9CB20000 		.long	0xb29c
 3684 47a9 01       		.byte	0x1
 3685 47aa B2470000 		.long	0x47b2
 3686 47ae CC470000 		.long	0x47cc
GAS LISTING C:\Users\Ilya\AppData\Local\Temp\ccxaKDG8.s 			page 117


 3687 47b2 02       		.uleb128 0x2
 3688 47b3 D5CA0000 		.long	0xcad5
 3689 47b7 01       		.uleb128 0x1
 3690 47b8 42020000 		.long	0x242
 3691 47bc 01       		.uleb128 0x1
 3692 47bd 42020000 		.long	0x242
 3693 47c1 01       		.uleb128 0x1
 3694 47c2 89B70000 		.long	0xb789
 3695 47c6 01       		.uleb128 0x1
 3696 47c7 42020000 		.long	0x242
 3697 47cb 00       		.byte	0
 3698 47cc 12       		.uleb128 0x12
 3699 47cd 36000000 		.secrel32	.LASF44
 3700 47d1 F7B10000 		.long	0xb1f7
 3701 47d5 4F       		.uleb128 0x4f
 3702 47d6 5F547261 		.ascii "_Traits\0"
 3702      69747300 
 3703 47de 05530000 		.long	0x5305
 3704 47e2 50       		.uleb128 0x50
 3705 47e3 9B040000 		.secrel32	.LASF40
 3706 47e7 FD570000 		.long	0x57fd
 3707 47eb 00       		.byte	0
 3708 47ec 07       		.uleb128 0x7
 3709 47ed B0000000 		.long	0xb0
 3710 47f1 00       		.byte	0
 3711 47f2 3A       		.uleb128 0x3a
 3712 47f3 0C       		.byte	0xc
 3713 47f4 1A01     		.word	0x11a
 3714 47f6 41       		.byte	0x41
 3715 47f7 9F000000 		.long	0x9f
 3716 47fb 03       		.uleb128 0x3
 3717 47fc 0A       		.byte	0xa
 3718 47fd 40       		.byte	0x40
 3719 47fe 0B       		.byte	0xb
 3720 47ff 20B60000 		.long	0xb620
 3721 4803 03       		.uleb128 0x3
 3722 4804 0A       		.byte	0xa
 3723 4805 8D       		.byte	0x8d
 3724 4806 0B       		.byte	0xb
 3725 4807 66B20000 		.long	0xb266
 3726 480b 03       		.uleb128 0x3
 3727 480c 0A       		.byte	0xa
 3728 480d 8F       		.byte	0x8f
 3729 480e 0B       		.byte	0xb
 3730 480f 38B60000 		.long	0xb638
 3731 4813 03       		.uleb128 0x3
 3732 4814 0A       		.byte	0xa
 3733 4815 90       		.byte	0x90
 3734 4816 0B       		.byte	0xb
 3735 4817 51B60000 		.long	0xb651
 3736 481b 03       		.uleb128 0x3
 3737 481c 0A       		.byte	0xa
 3738 481d 91       		.byte	0x91
 3739 481e 0B       		.byte	0xb
 3740 481f 71B60000 		.long	0xb671
 3741 4823 03       		.uleb128 0x3
 3742 4824 0A       		.byte	0xa
GAS LISTING C:\Users\Ilya\AppData\Local\Temp\ccxaKDG8.s 			page 118


 3743 4825 92       		.byte	0x92
 3744 4826 0B       		.byte	0xb
 3745 4827 95B60000 		.long	0xb695
 3746 482b 03       		.uleb128 0x3
 3747 482c 0A       		.byte	0xa
 3748 482d 93       		.byte	0x93
 3749 482e 0B       		.byte	0xb
 3750 482f B4B60000 		.long	0xb6b4
 3751 4833 03       		.uleb128 0x3
 3752 4834 0A       		.byte	0xa
 3753 4835 94       		.byte	0x94
 3754 4836 0B       		.byte	0xb
 3755 4837 D9B60000 		.long	0xb6d9
 3756 483b 03       		.uleb128 0x3
 3757 483c 0A       		.byte	0xa
 3758 483d 95       		.byte	0x95
 3759 483e 0B       		.byte	0xb
 3760 483f F7B60000 		.long	0xb6f7
 3761 4843 03       		.uleb128 0x3
 3762 4844 0A       		.byte	0xa
 3763 4845 96       		.byte	0x96
 3764 4846 0B       		.byte	0xb
 3765 4847 19B70000 		.long	0xb719
 3766 484b 03       		.uleb128 0x3
 3767 484c 0A       		.byte	0xa
 3768 484d 97       		.byte	0x97
 3769 484e 0B       		.byte	0xb
 3770 484f 3AB70000 		.long	0xb73a
 3771 4853 03       		.uleb128 0x3
 3772 4854 0A       		.byte	0xa
 3773 4855 98       		.byte	0x98
 3774 4856 0B       		.byte	0xb
 3775 4857 53B70000 		.long	0xb753
 3776 485b 03       		.uleb128 0x3
 3777 485c 0A       		.byte	0xa
 3778 485d 99       		.byte	0x99
 3779 485e 0B       		.byte	0xb
 3780 485f 65B70000 		.long	0xb765
 3781 4863 03       		.uleb128 0x3
 3782 4864 0A       		.byte	0xa
 3783 4865 9A       		.byte	0x9a
 3784 4866 0B       		.byte	0xb
 3785 4867 9AB70000 		.long	0xb79a
 3786 486b 03       		.uleb128 0x3
 3787 486c 0A       		.byte	0xa
 3788 486d 9B       		.byte	0x9b
 3789 486e 0B       		.byte	0xb
 3790 486f C4B70000 		.long	0xb7c4
 3791 4873 03       		.uleb128 0x3
 3792 4874 0A       		.byte	0xa
 3793 4875 9C       		.byte	0x9c
 3794 4876 0B       		.byte	0xb
 3795 4877 E5B70000 		.long	0xb7e5
 3796 487b 03       		.uleb128 0x3
 3797 487c 0A       		.byte	0xa
 3798 487d 9D       		.byte	0x9d
 3799 487e 0B       		.byte	0xb
GAS LISTING C:\Users\Ilya\AppData\Local\Temp\ccxaKDG8.s 			page 119


 3800 487f 17B80000 		.long	0xb817
 3801 4883 03       		.uleb128 0x3
 3802 4884 0A       		.byte	0xa
 3803 4885 9E       		.byte	0x9e
 3804 4886 0B       		.byte	0xb
 3805 4887 35B80000 		.long	0xb835
 3806 488b 03       		.uleb128 0x3
 3807 488c 0A       		.byte	0xa
 3808 488d A0       		.byte	0xa0
 3809 488e 0B       		.byte	0xb
 3810 488f 51B80000 		.long	0xb851
 3811 4893 03       		.uleb128 0x3
 3812 4894 0A       		.byte	0xa
 3813 4895 A0       		.byte	0xa0
 3814 4896 0B       		.byte	0xb
 3815 4897 6DB80000 		.long	0xb86d
 3816 489b 03       		.uleb128 0x3
 3817 489c 0A       		.byte	0xa
 3818 489d A2       		.byte	0xa2
 3819 489e 0B       		.byte	0xb
 3820 489f 8EB80000 		.long	0xb88e
 3821 48a3 03       		.uleb128 0x3
 3822 48a4 0A       		.byte	0xa
 3823 48a5 A3       		.byte	0xa3
 3824 48a6 0B       		.byte	0xb
 3825 48a7 AFB80000 		.long	0xb8af
 3826 48ab 03       		.uleb128 0x3
 3827 48ac 0A       		.byte	0xa
 3828 48ad A4       		.byte	0xa4
 3829 48ae 0B       		.byte	0xb
 3830 48af CFB80000 		.long	0xb8cf
 3831 48b3 03       		.uleb128 0x3
 3832 48b4 0A       		.byte	0xa
 3833 48b5 A6       		.byte	0xa6
 3834 48b6 0B       		.byte	0xb
 3835 48b7 F6B80000 		.long	0xb8f6
 3836 48bb 03       		.uleb128 0x3
 3837 48bc 0A       		.byte	0xa
 3838 48bd A9       		.byte	0xa9
 3839 48be 0B       		.byte	0xb
 3840 48bf 1CB90000 		.long	0xb91c
 3841 48c3 03       		.uleb128 0x3
 3842 48c4 0A       		.byte	0xa
 3843 48c5 A9       		.byte	0xa9
 3844 48c6 0B       		.byte	0xb
 3845 48c7 3CB90000 		.long	0xb93c
 3846 48cb 03       		.uleb128 0x3
 3847 48cc 0A       		.byte	0xa
 3848 48cd AC       		.byte	0xac
 3849 48ce 0B       		.byte	0xb
 3850 48cf 61B90000 		.long	0xb961
 3851 48d3 03       		.uleb128 0x3
 3852 48d4 0A       		.byte	0xa
 3853 48d5 AE       		.byte	0xae
 3854 48d6 0B       		.byte	0xb
 3855 48d7 87B90000 		.long	0xb987
 3856 48db 03       		.uleb128 0x3
GAS LISTING C:\Users\Ilya\AppData\Local\Temp\ccxaKDG8.s 			page 120


 3857 48dc 0A       		.byte	0xa
 3858 48dd B0       		.byte	0xb0
 3859 48de 0B       		.byte	0xb
 3860 48df A8B90000 		.long	0xb9a8
 3861 48e3 03       		.uleb128 0x3
 3862 48e4 0A       		.byte	0xa
 3863 48e5 B2       		.byte	0xb2
 3864 48e6 0B       		.byte	0xb
 3865 48e7 C8B90000 		.long	0xb9c8
 3866 48eb 03       		.uleb128 0x3
 3867 48ec 0A       		.byte	0xa
 3868 48ed B3       		.byte	0xb3
 3869 48ee 0B       		.byte	0xb
 3870 48ef EDB90000 		.long	0xb9ed
 3871 48f3 03       		.uleb128 0x3
 3872 48f4 0A       		.byte	0xa
 3873 48f5 B4       		.byte	0xb4
 3874 48f6 0B       		.byte	0xb
 3875 48f7 0CBA0000 		.long	0xba0c
 3876 48fb 03       		.uleb128 0x3
 3877 48fc 0A       		.byte	0xa
 3878 48fd B5       		.byte	0xb5
 3879 48fe 0B       		.byte	0xb
 3880 48ff 2BBA0000 		.long	0xba2b
 3881 4903 03       		.uleb128 0x3
 3882 4904 0A       		.byte	0xa
 3883 4905 B6       		.byte	0xb6
 3884 4906 0B       		.byte	0xb
 3885 4907 4BBA0000 		.long	0xba4b
 3886 490b 03       		.uleb128 0x3
 3887 490c 0A       		.byte	0xa
 3888 490d B7       		.byte	0xb7
 3889 490e 0B       		.byte	0xb
 3890 490f 6ABA0000 		.long	0xba6a
 3891 4913 03       		.uleb128 0x3
 3892 4914 0A       		.byte	0xa
 3893 4915 B8       		.byte	0xb8
 3894 4916 0B       		.byte	0xb
 3895 4917 8ABA0000 		.long	0xba8a
 3896 491b 03       		.uleb128 0x3
 3897 491c 0A       		.byte	0xa
 3898 491d B9       		.byte	0xb9
 3899 491e 0B       		.byte	0xb
 3900 491f BBBA0000 		.long	0xbabb
 3901 4923 03       		.uleb128 0x3
 3902 4924 0A       		.byte	0xa
 3903 4925 BA       		.byte	0xba
 3904 4926 0B       		.byte	0xb
 3905 4927 D5BA0000 		.long	0xbad5
 3906 492b 03       		.uleb128 0x3
 3907 492c 0A       		.byte	0xa
 3908 492d BB       		.byte	0xbb
 3909 492e 0B       		.byte	0xb
 3910 492f FABA0000 		.long	0xbafa
 3911 4933 03       		.uleb128 0x3
 3912 4934 0A       		.byte	0xa
 3913 4935 BC       		.byte	0xbc
GAS LISTING C:\Users\Ilya\AppData\Local\Temp\ccxaKDG8.s 			page 121


 3914 4936 0B       		.byte	0xb
 3915 4937 1FBB0000 		.long	0xbb1f
 3916 493b 03       		.uleb128 0x3
 3917 493c 0A       		.byte	0xa
 3918 493d BD       		.byte	0xbd
 3919 493e 0B       		.byte	0xb
 3920 493f 44BB0000 		.long	0xbb44
 3921 4943 03       		.uleb128 0x3
 3922 4944 0A       		.byte	0xa
 3923 4945 BE       		.byte	0xbe
 3924 4946 0B       		.byte	0xb
 3925 4947 76BB0000 		.long	0xbb76
 3926 494b 03       		.uleb128 0x3
 3927 494c 0A       		.byte	0xa
 3928 494d BF       		.byte	0xbf
 3929 494e 0B       		.byte	0xb
 3930 494f 95BB0000 		.long	0xbb95
 3931 4953 03       		.uleb128 0x3
 3932 4954 0A       		.byte	0xa
 3933 4955 C1       		.byte	0xc1
 3934 4956 0B       		.byte	0xb
 3935 4957 C4BB0000 		.long	0xbbc4
 3936 495b 03       		.uleb128 0x3
 3937 495c 0A       		.byte	0xa
 3938 495d C3       		.byte	0xc3
 3939 495e 0B       		.byte	0xb
 3940 495f ECBB0000 		.long	0xbbec
 3941 4963 03       		.uleb128 0x3
 3942 4964 0A       		.byte	0xa
 3943 4965 C4       		.byte	0xc4
 3944 4966 0B       		.byte	0xb
 3945 4967 0BBC0000 		.long	0xbc0b
 3946 496b 03       		.uleb128 0x3
 3947 496c 0A       		.byte	0xa
 3948 496d C5       		.byte	0xc5
 3949 496e 0B       		.byte	0xb
 3950 496f 2FBC0000 		.long	0xbc2f
 3951 4973 03       		.uleb128 0x3
 3952 4974 0A       		.byte	0xa
 3953 4975 C6       		.byte	0xc6
 3954 4976 0B       		.byte	0xb
 3955 4977 54BC0000 		.long	0xbc54
 3956 497b 03       		.uleb128 0x3
 3957 497c 0A       		.byte	0xa
 3958 497d C7       		.byte	0xc7
 3959 497e 0B       		.byte	0xb
 3960 497f 79BC0000 		.long	0xbc79
 3961 4983 03       		.uleb128 0x3
 3962 4984 0A       		.byte	0xa
 3963 4985 C8       		.byte	0xc8
 3964 4986 0B       		.byte	0xb
 3965 4987 92BC0000 		.long	0xbc92
 3966 498b 03       		.uleb128 0x3
 3967 498c 0A       		.byte	0xa
 3968 498d C9       		.byte	0xc9
 3969 498e 0B       		.byte	0xb
 3970 498f B7BC0000 		.long	0xbcb7
GAS LISTING C:\Users\Ilya\AppData\Local\Temp\ccxaKDG8.s 			page 122


 3971 4993 03       		.uleb128 0x3
 3972 4994 0A       		.byte	0xa
 3973 4995 CA       		.byte	0xca
 3974 4996 0B       		.byte	0xb
 3975 4997 DCBC0000 		.long	0xbcdc
 3976 499b 03       		.uleb128 0x3
 3977 499c 0A       		.byte	0xa
 3978 499d CB       		.byte	0xcb
 3979 499e 0B       		.byte	0xb
 3980 499f 02BD0000 		.long	0xbd02
 3981 49a3 03       		.uleb128 0x3
 3982 49a4 0A       		.byte	0xa
 3983 49a5 CC       		.byte	0xcc
 3984 49a6 0B       		.byte	0xb
 3985 49a7 27BD0000 		.long	0xbd27
 3986 49ab 03       		.uleb128 0x3
 3987 49ac 0A       		.byte	0xa
 3988 49ad CD       		.byte	0xcd
 3989 49ae 0B       		.byte	0xb
 3990 49af 43BD0000 		.long	0xbd43
 3991 49b3 03       		.uleb128 0x3
 3992 49b4 0A       		.byte	0xa
 3993 49b5 CE       		.byte	0xce
 3994 49b6 0B       		.byte	0xb
 3995 49b7 5EBD0000 		.long	0xbd5e
 3996 49bb 03       		.uleb128 0x3
 3997 49bc 0A       		.byte	0xa
 3998 49bd CF       		.byte	0xcf
 3999 49be 0B       		.byte	0xb
 4000 49bf 7DBD0000 		.long	0xbd7d
 4001 49c3 03       		.uleb128 0x3
 4002 49c4 0A       		.byte	0xa
 4003 49c5 D0       		.byte	0xd0
 4004 49c6 0B       		.byte	0xb
 4005 49c7 9DBD0000 		.long	0xbd9d
 4006 49cb 03       		.uleb128 0x3
 4007 49cc 0A       		.byte	0xa
 4008 49cd D1       		.byte	0xd1
 4009 49ce 0B       		.byte	0xb
 4010 49cf BDBD0000 		.long	0xbdbd
 4011 49d3 03       		.uleb128 0x3
 4012 49d4 0A       		.byte	0xa
 4013 49d5 D2       		.byte	0xd2
 4014 49d6 0B       		.byte	0xb
 4015 49d7 DCBD0000 		.long	0xbddc
 4016 49db 13       		.uleb128 0x13
 4017 49dc 0A       		.byte	0xa
 4018 49dd 0B01     		.word	0x10b
 4019 49df 16       		.byte	0x16
 4020 49e0 01BE0000 		.long	0xbe01
 4021 49e4 13       		.uleb128 0x13
 4022 49e5 0A       		.byte	0xa
 4023 49e6 0C01     		.word	0x10c
 4024 49e8 16       		.byte	0x16
 4025 49e9 30BE0000 		.long	0xbe30
 4026 49ed 13       		.uleb128 0x13
 4027 49ee 0A       		.byte	0xa
GAS LISTING C:\Users\Ilya\AppData\Local\Temp\ccxaKDG8.s 			page 123


 4028 49ef 0D01     		.word	0x10d
 4029 49f1 16       		.byte	0x16
 4030 49f2 55BE0000 		.long	0xbe55
 4031 49f6 13       		.uleb128 0x13
 4032 49f7 0A       		.byte	0xa
 4033 49f8 1B01     		.word	0x11b
 4034 49fa 0E       		.byte	0xe
 4035 49fb C4BB0000 		.long	0xbbc4
 4036 49ff 13       		.uleb128 0x13
 4037 4a00 0A       		.byte	0xa
 4038 4a01 1E01     		.word	0x11e
 4039 4a03 0E       		.byte	0xe
 4040 4a04 F6B80000 		.long	0xb8f6
 4041 4a08 13       		.uleb128 0x13
 4042 4a09 0A       		.byte	0xa
 4043 4a0a 2101     		.word	0x121
 4044 4a0c 0E       		.byte	0xe
 4045 4a0d 61B90000 		.long	0xb961
 4046 4a11 13       		.uleb128 0x13
 4047 4a12 0A       		.byte	0xa
 4048 4a13 2401     		.word	0x124
 4049 4a15 0E       		.byte	0xe
 4050 4a16 A8B90000 		.long	0xb9a8
 4051 4a1a 13       		.uleb128 0x13
 4052 4a1b 0A       		.byte	0xa
 4053 4a1c 2801     		.word	0x128
 4054 4a1e 0E       		.byte	0xe
 4055 4a1f 01BE0000 		.long	0xbe01
 4056 4a23 13       		.uleb128 0x13
 4057 4a24 0A       		.byte	0xa
 4058 4a25 2901     		.word	0x129
 4059 4a27 0E       		.byte	0xe
 4060 4a28 30BE0000 		.long	0xbe30
 4061 4a2c 13       		.uleb128 0x13
 4062 4a2d 0A       		.byte	0xa
 4063 4a2e 2A01     		.word	0x12a
 4064 4a30 0E       		.byte	0xe
 4065 4a31 55BE0000 		.long	0xbe55
 4066 4a35 42       		.uleb128 0x42
 4067 4a36 5F5F6578 		.ascii "__exception_ptr\0"
 4067      63657074 
 4067      696F6E5F 
 4067      70747200 
 4068 4a46 0B       		.byte	0xb
 4069 4a47 35       		.byte	0x35
 4070 4a48 0D       		.byte	0xd
 4071 4a49 C44E0000 		.long	0x4ec4
 4072 4a4d 43       		.uleb128 0x43
 4073 4a4e 5A020000 		.secrel32	.LASF41
 4074 4a52 08       		.byte	0x8
 4075 4a53 0B       		.byte	0xb
 4076 4a54 50       		.byte	0x50
 4077 4a55 0B       		.byte	0xb
 4078 4a56 B64E0000 		.long	0x4eb6
 4079 4a5a 09       		.uleb128 0x9
 4080 4a5b 5F4D5F65 		.ascii "_M_exception_object\0"
 4080      78636570 
GAS LISTING C:\Users\Ilya\AppData\Local\Temp\ccxaKDG8.s 			page 124


 4080      74696F6E 
 4080      5F6F626A 
 4080      65637400 
 4081 4a6f 0B       		.byte	0xb
 4082 4a70 52       		.byte	0x52
 4083 4a71 0D       		.byte	0xd
 4084 4a72 7BBE0000 		.long	0xbe7b
 4085 4a76 00       		.byte	0
 4086 4a77 6C       		.uleb128 0x6c
 4087 4a78 5A020000 		.secrel32	.LASF41
 4088 4a7c 0B       		.byte	0xb
 4089 4a7d 54       		.byte	0x54
 4090 4a7e 10       		.byte	0x10
 4091 4a7f 5F5A4E53 		.ascii "_ZNSt15__exception_ptr13exception_ptrC4EPv\0"
 4091      7431355F 
 4091      5F657863 
 4091      65707469 
 4091      6F6E5F70 
 4092 4aaa B24A0000 		.long	0x4ab2
 4093 4aae BD4A0000 		.long	0x4abd
 4094 4ab2 02       		.uleb128 0x2
 4095 4ab3 7EBE0000 		.long	0xbe7e
 4096 4ab7 01       		.uleb128 0x1
 4097 4ab8 7BBE0000 		.long	0xbe7b
 4098 4abc 00       		.byte	0
 4099 4abd 23       		.uleb128 0x23
 4100 4abe 5F4D5F61 		.ascii "_M_addref\0"
 4100      64647265 
 4100      6600
 4101 4ac8 0B       		.byte	0xb
 4102 4ac9 56       		.byte	0x56
 4103 4aca 0C       		.byte	0xc
 4104 4acb 5F5A4E53 		.ascii "_ZNSt15__exception_ptr13exception_ptr9_M_addrefEv\0"
 4104      7431355F 
 4104      5F657863 
 4104      65707469 
 4104      6F6E5F70 
 4105 4afd 054B0000 		.long	0x4b05
 4106 4b01 0B4B0000 		.long	0x4b0b
 4107 4b05 02       		.uleb128 0x2
 4108 4b06 7EBE0000 		.long	0xbe7e
 4109 4b0a 00       		.byte	0
 4110 4b0b 23       		.uleb128 0x23
 4111 4b0c 5F4D5F72 		.ascii "_M_release\0"
 4111      656C6561 
 4111      736500
 4112 4b17 0B       		.byte	0xb
 4113 4b18 57       		.byte	0x57
 4114 4b19 0C       		.byte	0xc
 4115 4b1a 5F5A4E53 		.ascii "_ZNSt15__exception_ptr13exception_ptr10_M_releaseEv\0"
 4115      7431355F 
 4115      5F657863 
 4115      65707469 
 4115      6F6E5F70 
 4116 4b4e 564B0000 		.long	0x4b56
 4117 4b52 5C4B0000 		.long	0x4b5c
 4118 4b56 02       		.uleb128 0x2
GAS LISTING C:\Users\Ilya\AppData\Local\Temp\ccxaKDG8.s 			page 125


 4119 4b57 7EBE0000 		.long	0xbe7e
 4120 4b5b 00       		.byte	0
 4121 4b5c 26       		.uleb128 0x26
 4122 4b5d 5F4D5F67 		.ascii "_M_get\0"
 4122      657400
 4123 4b64 0B       		.byte	0xb
 4124 4b65 59       		.byte	0x59
 4125 4b66 0D       		.byte	0xd
 4126 4b67 5F5A4E4B 		.ascii "_ZNKSt15__exception_ptr13exception_ptr6_M_getEv\0"
 4126      53743135 
 4126      5F5F6578 
 4126      63657074 
 4126      696F6E5F 
 4127 4b97 7BBE0000 		.long	0xbe7b
 4128 4b9b A34B0000 		.long	0x4ba3
 4129 4b9f A94B0000 		.long	0x4ba9
 4130 4ba3 02       		.uleb128 0x2
 4131 4ba4 84BE0000 		.long	0xbe84
 4132 4ba8 00       		.byte	0
 4133 4ba9 0F       		.uleb128 0xf
 4134 4baa 5A020000 		.secrel32	.LASF41
 4135 4bae 0B       		.byte	0xb
 4136 4baf 61       		.byte	0x61
 4137 4bb0 07       		.byte	0x7
 4138 4bb1 5F5A4E53 		.ascii "_ZNSt15__exception_ptr13exception_ptrC4Ev\0"
 4138      7431355F 
 4138      5F657863 
 4138      65707469 
 4138      6F6E5F70 
 4139 4bdb 01       		.byte	0x1
 4140 4bdc E44B0000 		.long	0x4be4
 4141 4be0 EA4B0000 		.long	0x4bea
 4142 4be4 02       		.uleb128 0x2
 4143 4be5 7EBE0000 		.long	0xbe7e
 4144 4be9 00       		.byte	0
 4145 4bea 0F       		.uleb128 0xf
 4146 4beb 5A020000 		.secrel32	.LASF41
 4147 4bef 0B       		.byte	0xb
 4148 4bf0 63       		.byte	0x63
 4149 4bf1 07       		.byte	0x7
 4150 4bf2 5F5A4E53 		.ascii "_ZNSt15__exception_ptr13exception_ptrC4ERKS0_\0"
 4150      7431355F 
 4150      5F657863 
 4150      65707469 
 4150      6F6E5F70 
 4151 4c20 01       		.byte	0x1
 4152 4c21 294C0000 		.long	0x4c29
 4153 4c25 344C0000 		.long	0x4c34
 4154 4c29 02       		.uleb128 0x2
 4155 4c2a 7EBE0000 		.long	0xbe7e
 4156 4c2e 01       		.uleb128 0x1
 4157 4c2f 8ABE0000 		.long	0xbe8a
 4158 4c33 00       		.byte	0
 4159 4c34 0F       		.uleb128 0xf
 4160 4c35 5A020000 		.secrel32	.LASF41
 4161 4c39 0B       		.byte	0xb
 4162 4c3a 66       		.byte	0x66
GAS LISTING C:\Users\Ilya\AppData\Local\Temp\ccxaKDG8.s 			page 126


 4163 4c3b 07       		.byte	0x7
 4164 4c3c 5F5A4E53 		.ascii "_ZNSt15__exception_ptr13exception_ptrC4EDn\0"
 4164      7431355F 
 4164      5F657863 
 4164      65707469 
 4164      6F6E5F70 
 4165 4c67 01       		.byte	0x1
 4166 4c68 704C0000 		.long	0x4c70
 4167 4c6c 7B4C0000 		.long	0x4c7b
 4168 4c70 02       		.uleb128 0x2
 4169 4c71 7EBE0000 		.long	0xbe7e
 4170 4c75 01       		.uleb128 0x1
 4171 4c76 284F0000 		.long	0x4f28
 4172 4c7a 00       		.byte	0
 4173 4c7b 0F       		.uleb128 0xf
 4174 4c7c 5A020000 		.secrel32	.LASF41
 4175 4c80 0B       		.byte	0xb
 4176 4c81 6A       		.byte	0x6a
 4177 4c82 07       		.byte	0x7
 4178 4c83 5F5A4E53 		.ascii "_ZNSt15__exception_ptr13exception_ptrC4EOS0_\0"
 4178      7431355F 
 4178      5F657863 
 4178      65707469 
 4178      6F6E5F70 
 4179 4cb0 01       		.byte	0x1
 4180 4cb1 B94C0000 		.long	0x4cb9
 4181 4cb5 C44C0000 		.long	0x4cc4
 4182 4cb9 02       		.uleb128 0x2
 4183 4cba 7EBE0000 		.long	0xbe7e
 4184 4cbe 01       		.uleb128 0x1
 4185 4cbf A4BE0000 		.long	0xbea4
 4186 4cc3 00       		.byte	0
 4187 4cc4 14       		.uleb128 0x14
 4188 4cc5 D8000000 		.secrel32	.LASF12
 4189 4cc9 0B       		.byte	0xb
 4190 4cca 77       		.byte	0x77
 4191 4ccb 07       		.byte	0x7
 4192 4ccc 5F5A4E53 		.ascii "_ZNSt15__exception_ptr13exception_ptraSERKS0_\0"
 4192      7431355F 
 4192      5F657863 
 4192      65707469 
 4192      6F6E5F70 
 4193 4cfa AABE0000 		.long	0xbeaa
 4194 4cfe 01       		.byte	0x1
 4195 4cff 074D0000 		.long	0x4d07
 4196 4d03 124D0000 		.long	0x4d12
 4197 4d07 02       		.uleb128 0x2
 4198 4d08 7EBE0000 		.long	0xbe7e
 4199 4d0c 01       		.uleb128 0x1
 4200 4d0d 8ABE0000 		.long	0xbe8a
 4201 4d11 00       		.byte	0
 4202 4d12 14       		.uleb128 0x14
 4203 4d13 D8000000 		.secrel32	.LASF12
 4204 4d17 0B       		.byte	0xb
 4205 4d18 7B       		.byte	0x7b
 4206 4d19 07       		.byte	0x7
 4207 4d1a 5F5A4E53 		.ascii "_ZNSt15__exception_ptr13exception_ptraSEOS0_\0"
GAS LISTING C:\Users\Ilya\AppData\Local\Temp\ccxaKDG8.s 			page 127


 4207      7431355F 
 4207      5F657863 
 4207      65707469 
 4207      6F6E5F70 
 4208 4d47 AABE0000 		.long	0xbeaa
 4209 4d4b 01       		.byte	0x1
 4210 4d4c 544D0000 		.long	0x4d54
 4211 4d50 5F4D0000 		.long	0x4d5f
 4212 4d54 02       		.uleb128 0x2
 4213 4d55 7EBE0000 		.long	0xbe7e
 4214 4d59 01       		.uleb128 0x1
 4215 4d5a A4BE0000 		.long	0xbea4
 4216 4d5e 00       		.byte	0
 4217 4d5f 35       		.uleb128 0x35
 4218 4d60 7E657863 		.ascii "~exception_ptr\0"
 4218      65707469 
 4218      6F6E5F70 
 4218      747200
 4219 4d6f 0B       		.byte	0xb
 4220 4d70 82       		.byte	0x82
 4221 4d71 07       		.byte	0x7
 4222 4d72 5F5A4E53 		.ascii "_ZNSt15__exception_ptr13exception_ptrD4Ev\0"
 4222      7431355F 
 4222      5F657863 
 4222      65707469 
 4222      6F6E5F70 
 4223 4d9c 01       		.byte	0x1
 4224 4d9d A54D0000 		.long	0x4da5
 4225 4da1 B04D0000 		.long	0x4db0
 4226 4da5 02       		.uleb128 0x2
 4227 4da6 7EBE0000 		.long	0xbe7e
 4228 4daa 02       		.uleb128 0x2
 4229 4dab 9CB20000 		.long	0xb29c
 4230 4daf 00       		.byte	0
 4231 4db0 35       		.uleb128 0x35
 4232 4db1 73776170 		.ascii "swap\0"
 4232      00
 4233 4db6 0B       		.byte	0xb
 4234 4db7 85       		.byte	0x85
 4235 4db8 07       		.byte	0x7
 4236 4db9 5F5A4E53 		.ascii "_ZNSt15__exception_ptr13exception_ptr4swapERS0_\0"
 4236      7431355F 
 4236      5F657863 
 4236      65707469 
 4236      6F6E5F70 
 4237 4de9 01       		.byte	0x1
 4238 4dea F24D0000 		.long	0x4df2
 4239 4dee FD4D0000 		.long	0x4dfd
 4240 4df2 02       		.uleb128 0x2
 4241 4df3 7EBE0000 		.long	0xbe7e
 4242 4df7 01       		.uleb128 0x1
 4243 4df8 AABE0000 		.long	0xbeaa
 4244 4dfc 00       		.byte	0
 4245 4dfd 6D       		.uleb128 0x6d
 4246 4dfe 6F706572 		.ascii "operator bool\0"
 4246      61746F72 
 4246      20626F6F 
GAS LISTING C:\Users\Ilya\AppData\Local\Temp\ccxaKDG8.s 			page 128


 4246      6C00
 4247 4e0c 0B       		.byte	0xb
 4248 4e0d 91       		.byte	0x91
 4249 4e0e 10       		.byte	0x10
 4250 4e0f 5F5A4E4B 		.ascii "_ZNKSt15__exception_ptr13exception_ptrcvbEv\0"
 4250      53743135 
 4250      5F5F6578 
 4250      63657074 
 4250      696F6E5F 
 4251 4e3b B0BE0000 		.long	0xbeb0
 4252 4e3f 01       		.byte	0x1
 4253 4e40 484E0000 		.long	0x4e48
 4254 4e44 4E4E0000 		.long	0x4e4e
 4255 4e48 02       		.uleb128 0x2
 4256 4e49 84BE0000 		.long	0xbe84
 4257 4e4d 00       		.byte	0
 4258 4e4e 6E       		.uleb128 0x6e
 4259 4e4f 5F5F6378 		.ascii "__cxa_exception_type\0"
 4259      615F6578 
 4259      63657074 
 4259      696F6E5F 
 4259      74797065 
 4260 4e64 0B       		.byte	0xb
 4261 4e65 9A       		.byte	0x9a
 4262 4e66 07       		.byte	0x7
 4263 4e67 5F5A4E4B 		.ascii "_ZNKSt15__exception_ptr13exception_ptr20__cxa_exception_typeEv\0"
 4263      53743135 
 4263      5F5F6578 
 4263      63657074 
 4263      696F6E5F 
 4264 4ea6 BDBE0000 		.long	0xbebd
 4265 4eaa 01       		.byte	0x1
 4266 4eab AF4E0000 		.long	0x4eaf
 4267 4eaf 02       		.uleb128 0x2
 4268 4eb0 84BE0000 		.long	0xbe84
 4269 4eb4 00       		.byte	0
 4270 4eb5 00       		.byte	0
 4271 4eb6 07       		.uleb128 0x7
 4272 4eb7 4D4A0000 		.long	0x4a4d
 4273 4ebb 03       		.uleb128 0x3
 4274 4ebc 0B       		.byte	0xb
 4275 4ebd 4A       		.byte	0x4a
 4276 4ebe 10       		.byte	0x10
 4277 4ebf CC4E0000 		.long	0x4ecc
 4278 4ec3 00       		.byte	0
 4279 4ec4 03       		.uleb128 0x3
 4280 4ec5 0B       		.byte	0xb
 4281 4ec6 3A       		.byte	0x3a
 4282 4ec7 1A       		.byte	0x1a
 4283 4ec8 4D4A0000 		.long	0x4a4d
 4284 4ecc 6F       		.uleb128 0x6f
 4285 4ecd 72657468 		.ascii "rethrow_exception\0"
 4285      726F775F 
 4285      65786365 
 4285      7074696F 
 4285      6E00
 4286 4edf 0B       		.byte	0xb
GAS LISTING C:\Users\Ilya\AppData\Local\Temp\ccxaKDG8.s 			page 129


 4287 4ee0 46       		.byte	0x46
 4288 4ee1 08       		.byte	0x8
 4289 4ee2 5F5A5374 		.ascii "_ZSt17rethrow_exceptionNSt15__exception_ptr13exception_ptrE\0"
 4289      31377265 
 4289      7468726F 
 4289      775F6578 
 4289      63657074 
 4290 4f1e 284F0000 		.long	0x4f28
 4291 4f22 01       		.uleb128 0x1
 4292 4f23 4D4A0000 		.long	0x4a4d
 4293 4f27 00       		.byte	0
 4294 4f28 24       		.uleb128 0x24
 4295 4f29 6E756C6C 		.ascii "nullptr_t\0"
 4295      7074725F 
 4295      7400
 4296 4f33 0C       		.byte	0xc
 4297 4f34 0801     		.word	0x108
 4298 4f36 1D       		.byte	0x1d
 4299 4f37 90BE0000 		.long	0xbe90
 4300 4f3b 25       		.uleb128 0x25
 4301 4f3c 74797065 		.ascii "type_info\0"
 4301      5F696E66 
 4301      6F00
 4302 4f46 07       		.uleb128 0x7
 4303 4f47 3B4F0000 		.long	0x4f3b
 4304 4f4b 15       		.uleb128 0x15
 4305 4f4c 696E7465 		.ascii "integral_constant<bool, false>\0"
 4305      6772616C 
 4305      5F636F6E 
 4305      7374616E 
 4305      743C626F 
 4306 4f6b 01       		.byte	0x1
 4307 4f6c 0D       		.byte	0xd
 4308 4f6d 39       		.byte	0x39
 4309 4f6e 0C       		.byte	0xc
 4310 4f6f 55500000 		.long	0x5055
 4311 4f73 51       		.uleb128 0x51
 4312 4f74 76616C75 		.ascii "value\0"
 4312      6500
 4313 4f7a 0D       		.byte	0xd
 4314 4f7b 3B       		.byte	0x3b
 4315 4f7c 2D       		.byte	0x2d
 4316 4f7d B8BE0000 		.long	0xbeb8
 4317 4f81 10       		.uleb128 0x10
 4318 4f82 A2040000 		.secrel32	.LASF42
 4319 4f86 0D       		.byte	0xd
 4320 4f87 3C       		.byte	0x3c
 4321 4f88 2D       		.byte	0x2d
 4322 4f89 B0BE0000 		.long	0xbeb0
 4323 4f8d 26       		.uleb128 0x26
 4324 4f8e 6F706572 		.ascii "operator std::integral_constant<bool, false>::value_type\0"
 4324      61746F72 
 4324      20737464 
 4324      3A3A696E 
 4324      74656772 
 4325 4fc7 0D       		.byte	0xd
 4326 4fc8 3E       		.byte	0x3e
GAS LISTING C:\Users\Ilya\AppData\Local\Temp\ccxaKDG8.s 			page 130


 4327 4fc9 11       		.byte	0x11
 4328 4fca 5F5A4E4B 		.ascii "_ZNKSt17integral_constantIbLb0EEcvbEv\0"
 4328      53743137 
 4328      696E7465 
 4328      6772616C 
 4328      5F636F6E 
 4329 4ff0 814F0000 		.long	0x4f81
 4330 4ff4 FC4F0000 		.long	0x4ffc
 4331 4ff8 02500000 		.long	0x5002
 4332 4ffc 02       		.uleb128 0x2
 4333 4ffd C3BE0000 		.long	0xbec3
 4334 5001 00       		.byte	0
 4335 5002 2D       		.uleb128 0x2d
 4336 5003 99000000 		.secrel32	.LASF43
 4337 5007 0D       		.byte	0xd
 4338 5008 43       		.byte	0x43
 4339 5009 1C       		.byte	0x1c
 4340 500a 5F5A4E4B 		.ascii "_ZNKSt17integral_constantIbLb0EEclEv\0"
 4340      53743137 
 4340      696E7465 
 4340      6772616C 
 4340      5F636F6E 
 4341 502f 814F0000 		.long	0x4f81
 4342 5033 3B500000 		.long	0x503b
 4343 5037 41500000 		.long	0x5041
 4344 503b 02       		.uleb128 0x2
 4345 503c C3BE0000 		.long	0xbec3
 4346 5040 00       		.byte	0
 4347 5041 16       		.uleb128 0x16
 4348 5042 5F547000 		.ascii "_Tp\0"
 4349 5046 B0BE0000 		.long	0xbeb0
 4350 504a 52       		.uleb128 0x52
 4351 504b 5F5F7600 		.ascii "__v\0"
 4352 504f B0BE0000 		.long	0xbeb0
 4353 5053 00       		.byte	0
 4354 5054 00       		.byte	0
 4355 5055 07       		.uleb128 0x7
 4356 5056 4B4F0000 		.long	0x4f4b
 4357 505a 15       		.uleb128 0x15
 4358 505b 696E7465 		.ascii "integral_constant<bool, true>\0"
 4358      6772616C 
 4358      5F636F6E 
 4358      7374616E 
 4358      743C626F 
 4359 5079 01       		.byte	0x1
 4360 507a 0D       		.byte	0xd
 4361 507b 39       		.byte	0x39
 4362 507c 0C       		.byte	0xc
 4363 507d 62510000 		.long	0x5162
 4364 5081 51       		.uleb128 0x51
 4365 5082 76616C75 		.ascii "value\0"
 4365      6500
 4366 5088 0D       		.byte	0xd
 4367 5089 3B       		.byte	0x3b
 4368 508a 2D       		.byte	0x2d
 4369 508b B8BE0000 		.long	0xbeb8
 4370 508f 10       		.uleb128 0x10
GAS LISTING C:\Users\Ilya\AppData\Local\Temp\ccxaKDG8.s 			page 131


 4371 5090 A2040000 		.secrel32	.LASF42
 4372 5094 0D       		.byte	0xd
 4373 5095 3C       		.byte	0x3c
 4374 5096 2D       		.byte	0x2d
 4375 5097 B0BE0000 		.long	0xbeb0
 4376 509b 26       		.uleb128 0x26
 4377 509c 6F706572 		.ascii "operator std::integral_constant<bool, true>::value_type\0"
 4377      61746F72 
 4377      20737464 
 4377      3A3A696E 
 4377      74656772 
 4378 50d4 0D       		.byte	0xd
 4379 50d5 3E       		.byte	0x3e
 4380 50d6 11       		.byte	0x11
 4381 50d7 5F5A4E4B 		.ascii "_ZNKSt17integral_constantIbLb1EEcvbEv\0"
 4381      53743137 
 4381      696E7465 
 4381      6772616C 
 4381      5F636F6E 
 4382 50fd 8F500000 		.long	0x508f
 4383 5101 09510000 		.long	0x5109
 4384 5105 0F510000 		.long	0x510f
 4385 5109 02       		.uleb128 0x2
 4386 510a C9BE0000 		.long	0xbec9
 4387 510e 00       		.byte	0
 4388 510f 2D       		.uleb128 0x2d
 4389 5110 99000000 		.secrel32	.LASF43
 4390 5114 0D       		.byte	0xd
 4391 5115 43       		.byte	0x43
 4392 5116 1C       		.byte	0x1c
 4393 5117 5F5A4E4B 		.ascii "_ZNKSt17integral_constantIbLb1EEclEv\0"
 4393      53743137 
 4393      696E7465 
 4393      6772616C 
 4393      5F636F6E 
 4394 513c 8F500000 		.long	0x508f
 4395 5140 48510000 		.long	0x5148
 4396 5144 4E510000 		.long	0x514e
 4397 5148 02       		.uleb128 0x2
 4398 5149 C9BE0000 		.long	0xbec9
 4399 514d 00       		.byte	0
 4400 514e 16       		.uleb128 0x16
 4401 514f 5F547000 		.ascii "_Tp\0"
 4402 5153 B0BE0000 		.long	0xbeb0
 4403 5157 52       		.uleb128 0x52
 4404 5158 5F5F7600 		.ascii "__v\0"
 4405 515c B0BE0000 		.long	0xbeb0
 4406 5160 01       		.byte	0x1
 4407 5161 00       		.byte	0
 4408 5162 07       		.uleb128 0x7
 4409 5163 5A500000 		.long	0x505a
 4410 5167 0A       		.uleb128 0xa
 4411 5168 66616C73 		.ascii "false_type\0"
 4411      655F7479 
 4411      706500
 4412 5173 0D       		.byte	0xd
 4413 5174 4E       		.byte	0x4e
GAS LISTING C:\Users\Ilya\AppData\Local\Temp\ccxaKDG8.s 			page 132


 4414 5175 2D       		.byte	0x2d
 4415 5176 4B4F0000 		.long	0x4f4b
 4416 517a 24       		.uleb128 0x24
 4417 517b 73697A65 		.ascii "size_t\0"
 4417      5F7400
 4418 5182 0C       		.byte	0xc
 4419 5183 0401     		.word	0x104
 4420 5185 1A       		.byte	0x1a
 4421 5186 18B20000 		.long	0xb218
 4422 518a 53       		.uleb128 0x53
 4423 518b 5F5F7377 		.ascii "__swappable_details\0"
 4423      61707061 
 4423      626C655F 
 4423      64657461 
 4423      696C7300 
 4424 519f 0D       		.byte	0xd
 4425 51a0 680A     		.word	0xa68
 4426 51a2 0D       		.byte	0xd
 4427 51a3 53       		.uleb128 0x53
 4428 51a4 5F5F7377 		.ascii "__swappable_with_details\0"
 4428      61707061 
 4428      626C655F 
 4428      77697468 
 4428      5F646574 
 4429 51bd 0D       		.byte	0xd
 4430 51be BC0A     		.word	0xabc
 4431 51c0 0D       		.byte	0xd
 4432 51c1 15       		.uleb128 0x15
 4433 51c2 5F5F6973 		.ascii "__is_integer<long double>\0"
 4433      5F696E74 
 4433      65676572 
 4433      3C6C6F6E 
 4433      6720646F 
 4434 51dc 01       		.byte	0x1
 4435 51dd 0E       		.byte	0xe
 4436 51de 7F       		.byte	0x7f
 4437 51df 0C       		.byte	0xc
 4438 51e0 03520000 		.long	0x5203
 4439 51e4 44       		.uleb128 0x44
 4440 51e5 07       		.byte	0x7
 4441 51e6 04       		.byte	0x4
 4442 51e7 D5B20000 		.long	0xb2d5
 4443 51eb 0E       		.byte	0xe
 4444 51ec 81       		.byte	0x81
 4445 51ed 0C       		.byte	0xc
 4446 51ee F9510000 		.long	0x51f9
 4447 51f2 45       		.uleb128 0x45
 4448 51f3 A0030000 		.secrel32	.LASF45
 4449 51f7 00       		.byte	0
 4450 51f8 00       		.byte	0
 4451 51f9 16       		.uleb128 0x16
 4452 51fa 5F547000 		.ascii "_Tp\0"
 4453 51fe 21BE0000 		.long	0xbe21
 4454 5202 00       		.byte	0
 4455 5203 15       		.uleb128 0x15
 4456 5204 5F5F6973 		.ascii "__is_integer<double>\0"
 4456      5F696E74 
GAS LISTING C:\Users\Ilya\AppData\Local\Temp\ccxaKDG8.s 			page 133


 4456      65676572 
 4456      3C646F75 
 4456      626C653E 
 4457 5219 01       		.byte	0x1
 4458 521a 0E       		.byte	0xe
 4459 521b 7F       		.byte	0x7f
 4460 521c 0C       		.byte	0xc
 4461 521d 40520000 		.long	0x5240
 4462 5221 44       		.uleb128 0x44
 4463 5222 07       		.byte	0x7
 4464 5223 04       		.byte	0x4
 4465 5224 D5B20000 		.long	0xb2d5
 4466 5228 0E       		.byte	0xe
 4467 5229 81       		.byte	0x81
 4468 522a 0C       		.byte	0xc
 4469 522b 36520000 		.long	0x5236
 4470 522f 45       		.uleb128 0x45
 4471 5230 A0030000 		.secrel32	.LASF45
 4472 5234 00       		.byte	0
 4473 5235 00       		.byte	0
 4474 5236 16       		.uleb128 0x16
 4475 5237 5F547000 		.ascii "_Tp\0"
 4476 523b B4BB0000 		.long	0xbbb4
 4477 523f 00       		.byte	0
 4478 5240 15       		.uleb128 0x15
 4479 5241 5F5F6973 		.ascii "__is_integer<float>\0"
 4479      5F696E74 
 4479      65676572 
 4479      3C666C6F 
 4479      61743E00 
 4480 5255 01       		.byte	0x1
 4481 5256 0E       		.byte	0xe
 4482 5257 7F       		.byte	0x7f
 4483 5258 0C       		.byte	0xc
 4484 5259 7C520000 		.long	0x527c
 4485 525d 44       		.uleb128 0x44
 4486 525e 07       		.byte	0x7
 4487 525f 04       		.byte	0x4
 4488 5260 D5B20000 		.long	0xb2d5
 4489 5264 0E       		.byte	0xe
 4490 5265 81       		.byte	0x81
 4491 5266 0C       		.byte	0xc
 4492 5267 72520000 		.long	0x5272
 4493 526b 45       		.uleb128 0x45
 4494 526c A0030000 		.secrel32	.LASF45
 4495 5270 00       		.byte	0
 4496 5271 00       		.byte	0
 4497 5272 16       		.uleb128 0x16
 4498 5273 5F547000 		.ascii "_Tp\0"
 4499 5277 E3BB0000 		.long	0xbbe3
 4500 527b 00       		.byte	0
 4501 527c 39       		.uleb128 0x39
 4502 527d 79000000 		.secrel32	.LASF46
 4503 5281 01       		.byte	0x1
 4504 5282 0F       		.byte	0xf
 4505 5283 50       		.byte	0x50
 4506 5284 0A       		.byte	0xa
GAS LISTING C:\Users\Ilya\AppData\Local\Temp\ccxaKDG8.s 			page 134


 4507 5285 BE520000 		.long	0x52be
 4508 5289 70       		.uleb128 0x70
 4509 528a 79000000 		.secrel32	.LASF46
 4510 528e 0F       		.byte	0xf
 4511 528f 50       		.byte	0x50
 4512 5290 2B       		.byte	0x2b
 4513 5291 5F5A4E53 		.ascii "_ZNSt21piecewise_construct_tC4Ev\0"
 4513      74323170 
 4513      69656365 
 4513      77697365 
 4513      5F636F6E 
 4514 52b2 01       		.byte	0x1
 4515 52b3 B7520000 		.long	0x52b7
 4516 52b7 02       		.uleb128 0x2
 4517 52b8 17BF0000 		.long	0xbf17
 4518 52bc 00       		.byte	0
 4519 52bd 00       		.byte	0
 4520 52be 07       		.uleb128 0x7
 4521 52bf 7C520000 		.long	0x527c
 4522 52c3 71       		.uleb128 0x71
 4523 52c4 70696563 		.ascii "piecewise_construct\0"
 4523      65776973 
 4523      655F636F 
 4523      6E737472 
 4523      75637400 
 4524 52d8 0F       		.byte	0xf
 4525 52d9 53       		.byte	0x53
 4526 52da 35       		.byte	0x35
 4527 52db BE520000 		.long	0x52be
 4528 52df 01       		.byte	0x1
 4529 52e0 00       		.byte	0
 4530 52e1 72       		.uleb128 0x72
 4531 52e2 696E7075 		.ascii "input_iterator_tag\0"
 4531      745F6974 
 4531      65726174 
 4531      6F725F74 
 4531      616700
 4532 52f5 01       		.byte	0x1
 4533 52f6 1D       		.byte	0x1d
 4534 52f7 5D       		.byte	0x5d
 4535 52f8 0A       		.byte	0xa
 4536 52f9 54       		.uleb128 0x54
 4537 52fa 5F5F6465 		.ascii "__debug\0"
 4537      62756700 
 4538 5302 10       		.byte	0x10
 4539 5303 32       		.byte	0x32
 4540 5304 0D       		.byte	0xd
 4541 5305 2E       		.uleb128 0x2e
 4542 5306 63686172 		.ascii "char_traits<char>\0"
 4542      5F747261 
 4542      6974733C 
 4542      63686172 
 4542      3E00
 4543 5318 01       		.byte	0x1
 4544 5319 11       		.byte	0x11
 4545 531a 3501     		.word	0x135
 4546 531c 0C       		.byte	0xc
GAS LISTING C:\Users\Ilya\AppData\Local\Temp\ccxaKDG8.s 			page 135


 4547 531d E0560000 		.long	0x56e0
 4548 5321 2B       		.uleb128 0x2b
 4549 5322 E0010000 		.secrel32	.LASF28
 4550 5326 11       		.byte	0x11
 4551 5327 4101     		.word	0x141
 4552 5329 07       		.byte	0x7
 4553 532a 5F5A4E53 		.ascii "_ZNSt11char_traitsIcE6assignERcRKc\0"
 4553      74313163 
 4553      6861725F 
 4553      74726169 
 4553      74734963 
 4554 534d 5C530000 		.long	0x535c
 4555 5351 01       		.uleb128 0x1
 4556 5352 3FBF0000 		.long	0xbf3f
 4557 5356 01       		.uleb128 0x1
 4558 5357 45BF0000 		.long	0xbf45
 4559 535b 00       		.byte	0
 4560 535c 24       		.uleb128 0x24
 4561 535d 63686172 		.ascii "char_type\0"
 4561      5F747970 
 4561      6500
 4562 5367 11       		.byte	0x11
 4563 5368 3701     		.word	0x137
 4564 536a 21       		.byte	0x21
 4565 536b F7B10000 		.long	0xb1f7
 4566 536f 07       		.uleb128 0x7
 4567 5370 5C530000 		.long	0x535c
 4568 5374 1C       		.uleb128 0x1c
 4569 5375 657100   		.ascii "eq\0"
 4570 5378 11       		.byte	0x11
 4571 5379 4501     		.word	0x145
 4572 537b 07       		.byte	0x7
 4573 537c 5F5A4E53 		.ascii "_ZNSt11char_traitsIcE2eqERKcS2_\0"
 4573      74313163 
 4573      6861725F 
 4573      74726169 
 4573      74734963 
 4574 539c B0BE0000 		.long	0xbeb0
 4575 53a0 AF530000 		.long	0x53af
 4576 53a4 01       		.uleb128 0x1
 4577 53a5 45BF0000 		.long	0xbf45
 4578 53a9 01       		.uleb128 0x1
 4579 53aa 45BF0000 		.long	0xbf45
 4580 53ae 00       		.byte	0
 4581 53af 1C       		.uleb128 0x1c
 4582 53b0 6C7400   		.ascii "lt\0"
 4583 53b3 11       		.byte	0x11
 4584 53b4 4901     		.word	0x149
 4585 53b6 07       		.byte	0x7
 4586 53b7 5F5A4E53 		.ascii "_ZNSt11char_traitsIcE2ltERKcS2_\0"
 4586      74313163 
 4586      6861725F 
 4586      74726169 
 4586      74734963 
 4587 53d7 B0BE0000 		.long	0xbeb0
 4588 53db EA530000 		.long	0x53ea
 4589 53df 01       		.uleb128 0x1
GAS LISTING C:\Users\Ilya\AppData\Local\Temp\ccxaKDG8.s 			page 136


 4590 53e0 45BF0000 		.long	0xbf45
 4591 53e4 01       		.uleb128 0x1
 4592 53e5 45BF0000 		.long	0xbf45
 4593 53e9 00       		.byte	0
 4594 53ea 1A       		.uleb128 0x1a
 4595 53eb 9E020000 		.secrel32	.LASF39
 4596 53ef 11       		.byte	0x11
 4597 53f0 5101     		.word	0x151
 4598 53f2 07       		.byte	0x7
 4599 53f3 5F5A4E53 		.ascii "_ZNSt11char_traitsIcE7compareEPKcS2_y\0"
 4599      74313163 
 4599      6861725F 
 4599      74726169 
 4599      74734963 
 4600 5419 9CB20000 		.long	0xb29c
 4601 541d 31540000 		.long	0x5431
 4602 5421 01       		.uleb128 0x1
 4603 5422 4BBF0000 		.long	0xbf4b
 4604 5426 01       		.uleb128 0x1
 4605 5427 4BBF0000 		.long	0xbf4b
 4606 542b 01       		.uleb128 0x1
 4607 542c 7A510000 		.long	0x517a
 4608 5430 00       		.byte	0
 4609 5431 1C       		.uleb128 0x1c
 4610 5432 6C656E67 		.ascii "length\0"
 4610      746800
 4611 5439 11       		.byte	0x11
 4612 543a 5F01     		.word	0x15f
 4613 543c 07       		.byte	0x7
 4614 543d 5F5A4E53 		.ascii "_ZNSt11char_traitsIcE6lengthEPKc\0"
 4614      74313163 
 4614      6861725F 
 4614      74726169 
 4614      74734963 
 4615 545e 7A510000 		.long	0x517a
 4616 5462 6C540000 		.long	0x546c
 4617 5466 01       		.uleb128 0x1
 4618 5467 4BBF0000 		.long	0xbf4b
 4619 546b 00       		.byte	0
 4620 546c 1C       		.uleb128 0x1c
 4621 546d 66696E64 		.ascii "find\0"
 4621      00
 4622 5472 11       		.byte	0x11
 4623 5473 6901     		.word	0x169
 4624 5475 07       		.byte	0x7
 4625 5476 5F5A4E53 		.ascii "_ZNSt11char_traitsIcE4findEPKcyRS1_\0"
 4625      74313163 
 4625      6861725F 
 4625      74726169 
 4625      74734963 
 4626 549a 4BBF0000 		.long	0xbf4b
 4627 549e B2540000 		.long	0x54b2
 4628 54a2 01       		.uleb128 0x1
 4629 54a3 4BBF0000 		.long	0xbf4b
 4630 54a7 01       		.uleb128 0x1
 4631 54a8 7A510000 		.long	0x517a
 4632 54ac 01       		.uleb128 0x1
GAS LISTING C:\Users\Ilya\AppData\Local\Temp\ccxaKDG8.s 			page 137


 4633 54ad 45BF0000 		.long	0xbf45
 4634 54b1 00       		.byte	0
 4635 54b2 1C       		.uleb128 0x1c
 4636 54b3 6D6F7665 		.ascii "move\0"
 4636      00
 4637 54b8 11       		.byte	0x11
 4638 54b9 7701     		.word	0x177
 4639 54bb 07       		.byte	0x7
 4640 54bc 5F5A4E53 		.ascii "_ZNSt11char_traitsIcE4moveEPcPKcy\0"
 4640      74313163 
 4640      6861725F 
 4640      74726169 
 4640      74734963 
 4641 54de 51BF0000 		.long	0xbf51
 4642 54e2 F6540000 		.long	0x54f6
 4643 54e6 01       		.uleb128 0x1
 4644 54e7 51BF0000 		.long	0xbf51
 4645 54eb 01       		.uleb128 0x1
 4646 54ec 4BBF0000 		.long	0xbf4b
 4647 54f0 01       		.uleb128 0x1
 4648 54f1 7A510000 		.long	0x517a
 4649 54f5 00       		.byte	0
 4650 54f6 1C       		.uleb128 0x1c
 4651 54f7 636F7079 		.ascii "copy\0"
 4651      00
 4652 54fc 11       		.byte	0x11
 4653 54fd 8301     		.word	0x183
 4654 54ff 07       		.byte	0x7
 4655 5500 5F5A4E53 		.ascii "_ZNSt11char_traitsIcE4copyEPcPKcy\0"
 4655      74313163 
 4655      6861725F 
 4655      74726169 
 4655      74734963 
 4656 5522 51BF0000 		.long	0xbf51
 4657 5526 3A550000 		.long	0x553a
 4658 552a 01       		.uleb128 0x1
 4659 552b 51BF0000 		.long	0xbf51
 4660 552f 01       		.uleb128 0x1
 4661 5530 4BBF0000 		.long	0xbf4b
 4662 5534 01       		.uleb128 0x1
 4663 5535 7A510000 		.long	0x517a
 4664 5539 00       		.byte	0
 4665 553a 1A       		.uleb128 0x1a
 4666 553b E0010000 		.secrel32	.LASF28
 4667 553f 11       		.byte	0x11
 4668 5540 8F01     		.word	0x18f
 4669 5542 07       		.byte	0x7
 4670 5543 5F5A4E53 		.ascii "_ZNSt11char_traitsIcE6assignEPcyc\0"
 4670      74313163 
 4670      6861725F 
 4670      74726169 
 4670      74734963 
 4671 5565 51BF0000 		.long	0xbf51
 4672 5569 7D550000 		.long	0x557d
 4673 556d 01       		.uleb128 0x1
 4674 556e 51BF0000 		.long	0xbf51
 4675 5572 01       		.uleb128 0x1
GAS LISTING C:\Users\Ilya\AppData\Local\Temp\ccxaKDG8.s 			page 138


 4676 5573 7A510000 		.long	0x517a
 4677 5577 01       		.uleb128 0x1
 4678 5578 5C530000 		.long	0x535c
 4679 557c 00       		.byte	0
 4680 557d 1C       		.uleb128 0x1c
 4681 557e 746F5F63 		.ascii "to_char_type\0"
 4681      6861725F 
 4681      74797065 
 4681      00
 4682 558b 11       		.byte	0x11
 4683 558c 9B01     		.word	0x19b
 4684 558e 07       		.byte	0x7
 4685 558f 5F5A4E53 		.ascii "_ZNSt11char_traitsIcE12to_char_typeERKi\0"
 4685      74313163 
 4685      6861725F 
 4685      74726169 
 4685      74734963 
 4686 55b7 5C530000 		.long	0x535c
 4687 55bb C5550000 		.long	0x55c5
 4688 55bf 01       		.uleb128 0x1
 4689 55c0 57BF0000 		.long	0xbf57
 4690 55c4 00       		.byte	0
 4691 55c5 24       		.uleb128 0x24
 4692 55c6 696E745F 		.ascii "int_type\0"
 4692      74797065 
 4692      00
 4693 55cf 11       		.byte	0x11
 4694 55d0 3801     		.word	0x138
 4695 55d2 21       		.byte	0x21
 4696 55d3 9CB20000 		.long	0xb29c
 4697 55d7 07       		.uleb128 0x7
 4698 55d8 C5550000 		.long	0x55c5
 4699 55dc 1C       		.uleb128 0x1c
 4700 55dd 746F5F69 		.ascii "to_int_type\0"
 4700      6E745F74 
 4700      79706500 
 4701 55e9 11       		.byte	0x11
 4702 55ea A101     		.word	0x1a1
 4703 55ec 07       		.byte	0x7
 4704 55ed 5F5A4E53 		.ascii "_ZNSt11char_traitsIcE11to_int_typeERKc\0"
 4704      74313163 
 4704      6861725F 
 4704      74726169 
 4704      74734963 
 4705 5614 C5550000 		.long	0x55c5
 4706 5618 22560000 		.long	0x5622
 4707 561c 01       		.uleb128 0x1
 4708 561d 45BF0000 		.long	0xbf45
 4709 5621 00       		.byte	0
 4710 5622 1C       		.uleb128 0x1c
 4711 5623 65715F69 		.ascii "eq_int_type\0"
 4711      6E745F74 
 4711      79706500 
 4712 562f 11       		.byte	0x11
 4713 5630 A501     		.word	0x1a5
 4714 5632 07       		.byte	0x7
 4715 5633 5F5A4E53 		.ascii "_ZNSt11char_traitsIcE11eq_int_typeERKiS2_\0"
GAS LISTING C:\Users\Ilya\AppData\Local\Temp\ccxaKDG8.s 			page 139


 4715      74313163 
 4715      6861725F 
 4715      74726169 
 4715      74734963 
 4716 565d B0BE0000 		.long	0xbeb0
 4717 5661 70560000 		.long	0x5670
 4718 5665 01       		.uleb128 0x1
 4719 5666 57BF0000 		.long	0xbf57
 4720 566a 01       		.uleb128 0x1
 4721 566b 57BF0000 		.long	0xbf57
 4722 566f 00       		.byte	0
 4723 5670 55       		.uleb128 0x55
 4724 5671 656F6600 		.ascii "eof\0"
 4725 5675 11       		.byte	0x11
 4726 5676 A901     		.word	0x1a9
 4727 5678 07       		.byte	0x7
 4728 5679 5F5A4E53 		.ascii "_ZNSt11char_traitsIcE3eofEv\0"
 4728      74313163 
 4728      6861725F 
 4728      74726169 
 4728      74734963 
 4729 5695 C5550000 		.long	0x55c5
 4730 5699 1C       		.uleb128 0x1c
 4731 569a 6E6F745F 		.ascii "not_eof\0"
 4731      656F6600 
 4732 56a2 11       		.byte	0x11
 4733 56a3 AD01     		.word	0x1ad
 4734 56a5 07       		.byte	0x7
 4735 56a6 5F5A4E53 		.ascii "_ZNSt11char_traitsIcE7not_eofERKi\0"
 4735      74313163 
 4735      6861725F 
 4735      74726169 
 4735      74734963 
 4736 56c8 C5550000 		.long	0x55c5
 4737 56cc D6560000 		.long	0x56d6
 4738 56d0 01       		.uleb128 0x1
 4739 56d1 57BF0000 		.long	0xbf57
 4740 56d5 00       		.byte	0
 4741 56d6 12       		.uleb128 0x12
 4742 56d7 36000000 		.secrel32	.LASF44
 4743 56db F7B10000 		.long	0xb1f7
 4744 56df 00       		.byte	0
 4745 56e0 03       		.uleb128 0x3
 4746 56e1 12       		.byte	0x12
 4747 56e2 2F       		.byte	0x2f
 4748 56e3 0B       		.byte	0xb
 4749 56e4 5DBF0000 		.long	0xbf5d
 4750 56e8 03       		.uleb128 0x3
 4751 56e9 12       		.byte	0x12
 4752 56ea 30       		.byte	0x30
 4753 56eb 0B       		.byte	0xb
 4754 56ec 7CBF0000 		.long	0xbf7c
 4755 56f0 03       		.uleb128 0x3
 4756 56f1 12       		.byte	0x12
 4757 56f2 31       		.byte	0x31
 4758 56f3 0B       		.byte	0xb
 4759 56f4 9DBF0000 		.long	0xbf9d
GAS LISTING C:\Users\Ilya\AppData\Local\Temp\ccxaKDG8.s 			page 140


 4760 56f8 03       		.uleb128 0x3
 4761 56f9 12       		.byte	0x12
 4762 56fa 32       		.byte	0x32
 4763 56fb 0B       		.byte	0xb
 4764 56fc BEBF0000 		.long	0xbfbe
 4765 5700 03       		.uleb128 0x3
 4766 5701 12       		.byte	0x12
 4767 5702 34       		.byte	0x34
 4768 5703 0B       		.byte	0xb
 4769 5704 91C00000 		.long	0xc091
 4770 5708 03       		.uleb128 0x3
 4771 5709 12       		.byte	0x12
 4772 570a 35       		.byte	0x35
 4773 570b 0B       		.byte	0xb
 4774 570c BAC00000 		.long	0xc0ba
 4775 5710 03       		.uleb128 0x3
 4776 5711 12       		.byte	0x12
 4777 5712 36       		.byte	0x36
 4778 5713 0B       		.byte	0xb
 4779 5714 E5C00000 		.long	0xc0e5
 4780 5718 03       		.uleb128 0x3
 4781 5719 12       		.byte	0x12
 4782 571a 37       		.byte	0x37
 4783 571b 0B       		.byte	0xb
 4784 571c 10C10000 		.long	0xc110
 4785 5720 03       		.uleb128 0x3
 4786 5721 12       		.byte	0x12
 4787 5722 39       		.byte	0x39
 4788 5723 0B       		.byte	0xb
 4789 5724 DFBF0000 		.long	0xbfdf
 4790 5728 03       		.uleb128 0x3
 4791 5729 12       		.byte	0x12
 4792 572a 3A       		.byte	0x3a
 4793 572b 0B       		.byte	0xb
 4794 572c 0AC00000 		.long	0xc00a
 4795 5730 03       		.uleb128 0x3
 4796 5731 12       		.byte	0x12
 4797 5732 3B       		.byte	0x3b
 4798 5733 0B       		.byte	0xb
 4799 5734 37C00000 		.long	0xc037
 4800 5738 03       		.uleb128 0x3
 4801 5739 12       		.byte	0x12
 4802 573a 3C       		.byte	0x3c
 4803 573b 0B       		.byte	0xb
 4804 573c 64C00000 		.long	0xc064
 4805 5740 03       		.uleb128 0x3
 4806 5741 12       		.byte	0x12
 4807 5742 3E       		.byte	0x3e
 4808 5743 0B       		.byte	0xb
 4809 5744 3BC10000 		.long	0xc13b
 4810 5748 03       		.uleb128 0x3
 4811 5749 12       		.byte	0x12
 4812 574a 3F       		.byte	0x3f
 4813 574b 0B       		.byte	0xb
 4814 574c 43B20000 		.long	0xb243
 4815 5750 03       		.uleb128 0x3
 4816 5751 12       		.byte	0x12
GAS LISTING C:\Users\Ilya\AppData\Local\Temp\ccxaKDG8.s 			page 141


 4817 5752 41       		.byte	0x41
 4818 5753 0B       		.byte	0xb
 4819 5754 6CBF0000 		.long	0xbf6c
 4820 5758 03       		.uleb128 0x3
 4821 5759 12       		.byte	0x12
 4822 575a 42       		.byte	0x42
 4823 575b 0B       		.byte	0xb
 4824 575c 8CBF0000 		.long	0xbf8c
 4825 5760 03       		.uleb128 0x3
 4826 5761 12       		.byte	0x12
 4827 5762 43       		.byte	0x43
 4828 5763 0B       		.byte	0xb
 4829 5764 ADBF0000 		.long	0xbfad
 4830 5768 03       		.uleb128 0x3
 4831 5769 12       		.byte	0x12
 4832 576a 44       		.byte	0x44
 4833 576b 0B       		.byte	0xb
 4834 576c CEBF0000 		.long	0xbfce
 4835 5770 03       		.uleb128 0x3
 4836 5771 12       		.byte	0x12
 4837 5772 46       		.byte	0x46
 4838 5773 0B       		.byte	0xb
 4839 5774 A5C00000 		.long	0xc0a5
 4840 5778 03       		.uleb128 0x3
 4841 5779 12       		.byte	0x12
 4842 577a 47       		.byte	0x47
 4843 577b 0B       		.byte	0xb
 4844 577c CFC00000 		.long	0xc0cf
 4845 5780 03       		.uleb128 0x3
 4846 5781 12       		.byte	0x12
 4847 5782 48       		.byte	0x48
 4848 5783 0B       		.byte	0xb
 4849 5784 FAC00000 		.long	0xc0fa
 4850 5788 03       		.uleb128 0x3
 4851 5789 12       		.byte	0x12
 4852 578a 49       		.byte	0x49
 4853 578b 0B       		.byte	0xb
 4854 578c 25C10000 		.long	0xc125
 4855 5790 03       		.uleb128 0x3
 4856 5791 12       		.byte	0x12
 4857 5792 4B       		.byte	0x4b
 4858 5793 0B       		.byte	0xb
 4859 5794 F4BF0000 		.long	0xbff4
 4860 5798 03       		.uleb128 0x3
 4861 5799 12       		.byte	0x12
 4862 579a 4C       		.byte	0x4c
 4863 579b 0B       		.byte	0xb
 4864 579c 20C00000 		.long	0xc020
 4865 57a0 03       		.uleb128 0x3
 4866 57a1 12       		.byte	0x12
 4867 57a2 4D       		.byte	0x4d
 4868 57a3 0B       		.byte	0xb
 4869 57a4 4DC00000 		.long	0xc04d
 4870 57a8 03       		.uleb128 0x3
 4871 57a9 12       		.byte	0x12
 4872 57aa 4E       		.byte	0x4e
 4873 57ab 0B       		.byte	0xb
GAS LISTING C:\Users\Ilya\AppData\Local\Temp\ccxaKDG8.s 			page 142


 4874 57ac 7AC00000 		.long	0xc07a
 4875 57b0 03       		.uleb128 0x3
 4876 57b1 12       		.byte	0x12
 4877 57b2 50       		.byte	0x50
 4878 57b3 0B       		.byte	0xb
 4879 57b4 4CC10000 		.long	0xc14c
 4880 57b8 03       		.uleb128 0x3
 4881 57b9 12       		.byte	0x12
 4882 57ba 51       		.byte	0x51
 4883 57bb 0B       		.byte	0xb
 4884 57bc 54B20000 		.long	0xb254
 4885 57c0 03       		.uleb128 0x3
 4886 57c1 13       		.byte	0x13
 4887 57c2 35       		.byte	0x35
 4888 57c3 0B       		.byte	0xb
 4889 57c4 FAB20000 		.long	0xb2fa
 4890 57c8 03       		.uleb128 0x3
 4891 57c9 13       		.byte	0x13
 4892 57ca 36       		.byte	0x36
 4893 57cb 0B       		.byte	0xb
 4894 57cc 72C10000 		.long	0xc172
 4895 57d0 03       		.uleb128 0x3
 4896 57d1 13       		.byte	0x13
 4897 57d2 37       		.byte	0x37
 4898 57d3 0B       		.byte	0xb
 4899 57d4 93C10000 		.long	0xc193
 4900 57d8 24       		.uleb128 0x24
 4901 57d9 70747264 		.ascii "ptrdiff_t\0"
 4901      6966665F 
 4901      7400
 4902 57e3 0C       		.byte	0xc
 4903 57e4 0501     		.word	0x105
 4904 57e6 1C       		.byte	0x1c
 4905 57e7 32B20000 		.long	0xb232
 4906 57eb 0A       		.uleb128 0xa
 4907 57ec 74727565 		.ascii "true_type\0"
 4907      5F747970 
 4907      6500
 4908 57f6 0D       		.byte	0xd
 4909 57f7 4B       		.byte	0x4b
 4910 57f8 2D       		.byte	0x2d
 4911 57f9 5A500000 		.long	0x505a
 4912 57fd 28       		.uleb128 0x28
 4913 57fe 616C6C6F 		.ascii "allocator<char>\0"
 4913      6361746F 
 4913      723C6368 
 4913      61723E00 
 4914 580e 01       		.byte	0x1
 4915 580f 05       		.byte	0x5
 4916 5810 74       		.byte	0x74
 4917 5811 0B       		.byte	0xb
 4918 5812 C4580000 		.long	0x58c4
 4919 5816 3B       		.uleb128 0x3b
 4920 5817 26940000 		.long	0x9426
 4921 581b 00       		.byte	0
 4922 581c 01       		.byte	0x1
 4923 581d 0F       		.uleb128 0xf
GAS LISTING C:\Users\Ilya\AppData\Local\Temp\ccxaKDG8.s 			page 143


 4924 581e F2030000 		.secrel32	.LASF47
 4925 5822 05       		.byte	0x5
 4926 5823 90       		.byte	0x90
 4927 5824 07       		.byte	0x7
 4928 5825 5F5A4E53 		.ascii "_ZNSaIcEC4Ev\0"
 4928      61496345 
 4928      43344576 
 4928      00
 4929 5832 01       		.byte	0x1
 4930 5833 3B580000 		.long	0x583b
 4931 5837 41580000 		.long	0x5841
 4932 583b 02       		.uleb128 0x2
 4933 583c EAC10000 		.long	0xc1ea
 4934 5840 00       		.byte	0
 4935 5841 0F       		.uleb128 0xf
 4936 5842 F2030000 		.secrel32	.LASF47
 4937 5846 05       		.byte	0x5
 4938 5847 93       		.byte	0x93
 4939 5848 07       		.byte	0x7
 4940 5849 5F5A4E53 		.ascii "_ZNSaIcEC4ERKS_\0"
 4940      61496345 
 4940      43344552 
 4940      4B535F00 
 4941 5859 01       		.byte	0x1
 4942 585a 62580000 		.long	0x5862
 4943 585e 6D580000 		.long	0x586d
 4944 5862 02       		.uleb128 0x2
 4945 5863 EAC10000 		.long	0xc1ea
 4946 5867 01       		.uleb128 0x1
 4947 5868 F0C10000 		.long	0xc1f0
 4948 586c 00       		.byte	0
 4949 586d 3C       		.uleb128 0x3c
 4950 586e D8000000 		.secrel32	.LASF12
 4951 5872 05       		.byte	0x5
 4952 5873 98       		.byte	0x98
 4953 5874 12       		.byte	0x12
 4954 5875 5F5A4E53 		.ascii "_ZNSaIcEaSERKS_\0"
 4954      61496345 
 4954      61534552 
 4954      4B535F00 
 4955 5885 F6C10000 		.long	0xc1f6
 4956 5889 01       		.byte	0x1
 4957 588a 01       		.byte	0x1
 4958 588b 93580000 		.long	0x5893
 4959 588f 9E580000 		.long	0x589e
 4960 5893 02       		.uleb128 0x2
 4961 5894 EAC10000 		.long	0xc1ea
 4962 5898 01       		.uleb128 0x1
 4963 5899 F0C10000 		.long	0xc1f0
 4964 589d 00       		.byte	0
 4965 589e 56       		.uleb128 0x56
 4966 589f EE020000 		.secrel32	.LASF48
 4967 58a3 05       		.byte	0x5
 4968 58a4 A2       		.byte	0xa2
 4969 58a5 07       		.byte	0x7
 4970 58a6 5F5A4E53 		.ascii "_ZNSaIcED4Ei\0"
 4970      61496345 
GAS LISTING C:\Users\Ilya\AppData\Local\Temp\ccxaKDG8.s 			page 144


 4970      44344569 
 4970      00
 4971 58b3 01       		.byte	0x1
 4972 58b4 B8580000 		.long	0x58b8
 4973 58b8 02       		.uleb128 0x2
 4974 58b9 EAC10000 		.long	0xc1ea
 4975 58bd 02       		.uleb128 0x2
 4976 58be 9CB20000 		.long	0xb29c
 4977 58c2 00       		.byte	0
 4978 58c3 00       		.byte	0
 4979 58c4 07       		.uleb128 0x7
 4980 58c5 FD570000 		.long	0x57fd
 4981 58c9 15       		.uleb128 0x15
 4982 58ca 5F446573 		.ascii "_Destroy_aux<true>\0"
 4982      74726F79 
 4982      5F617578 
 4982      3C747275 
 4982      653E00
 4983 58dd 01       		.byte	0x1
 4984 58de 06       		.byte	0x6
 4985 58df 9D       		.byte	0x9d
 4986 58e0 0C       		.byte	0xc
 4987 58e1 5D590000 		.long	0x595d
 4988 58e5 73       		.uleb128 0x73
 4989 58e6 5F5F6465 		.ascii "__destroy<std::pair<char, long int>*>\0"
 4989      7374726F 
 4989      793C7374 
 4989      643A3A70 
 4989      6169723C 
 4990 590c 06       		.byte	0x6
 4991 590d A1       		.byte	0xa1
 4992 590e 09       		.byte	0x9
 4993 590f 5F5A4E53 		.ascii "_ZNSt12_Destroy_auxILb1EE9__destroyIPSt4pairIclEEEvT_S5_\0"
 4993      7431325F 
 4993      44657374 
 4993      726F795F 
 4993      61757849 
 4994 5948 12       		.uleb128 0x12
 4995 5949 FC010000 		.secrel32	.LASF49
 4996 594d 8ED40000 		.long	0xd48e
 4997 5951 01       		.uleb128 0x1
 4998 5952 8ED40000 		.long	0xd48e
 4999 5956 01       		.uleb128 0x1
 5000 5957 8ED40000 		.long	0xd48e
 5001 595b 00       		.byte	0
 5002 595c 00       		.byte	0
 5003 595d 03       		.uleb128 0x3
 5004 595e 14       		.byte	0x14
 5005 595f 7F       		.byte	0x7f
 5006 5960 0B       		.byte	0xb
 5007 5961 28C20000 		.long	0xc228
 5008 5965 03       		.uleb128 0x3
 5009 5966 14       		.byte	0x14
 5010 5967 80       		.byte	0x80
 5011 5968 0B       		.byte	0xb
 5012 5969 63C20000 		.long	0xc263
 5013 596d 03       		.uleb128 0x3
GAS LISTING C:\Users\Ilya\AppData\Local\Temp\ccxaKDG8.s 			page 145


 5014 596e 14       		.byte	0x14
 5015 596f 86       		.byte	0x86
 5016 5970 0B       		.byte	0xb
 5017 5971 BBC20000 		.long	0xc2bb
 5018 5975 03       		.uleb128 0x3
 5019 5976 14       		.byte	0x14
 5020 5977 8C       		.byte	0x8c
 5021 5978 0B       		.byte	0xb
 5022 5979 D5C20000 		.long	0xc2d5
 5023 597d 03       		.uleb128 0x3
 5024 597e 14       		.byte	0x14
 5025 597f 8D       		.byte	0x8d
 5026 5980 0B       		.byte	0xb
 5027 5981 EDC20000 		.long	0xc2ed
 5028 5985 03       		.uleb128 0x3
 5029 5986 14       		.byte	0x14
 5030 5987 8E       		.byte	0x8e
 5031 5988 0B       		.byte	0xb
 5032 5989 05C30000 		.long	0xc305
 5033 598d 03       		.uleb128 0x3
 5034 598e 14       		.byte	0x14
 5035 598f 8F       		.byte	0x8f
 5036 5990 0B       		.byte	0xb
 5037 5991 1DC30000 		.long	0xc31d
 5038 5995 03       		.uleb128 0x3
 5039 5996 14       		.byte	0x14
 5040 5997 91       		.byte	0x91
 5041 5998 0B       		.byte	0xb
 5042 5999 67C30000 		.long	0xc367
 5043 599d 03       		.uleb128 0x3
 5044 599e 14       		.byte	0x14
 5045 599f 94       		.byte	0x94
 5046 59a0 0B       		.byte	0xb
 5047 59a1 83C30000 		.long	0xc383
 5048 59a5 03       		.uleb128 0x3
 5049 59a6 14       		.byte	0x14
 5050 59a7 96       		.byte	0x96
 5051 59a8 0B       		.byte	0xb
 5052 59a9 9DC30000 		.long	0xc39d
 5053 59ad 03       		.uleb128 0x3
 5054 59ae 14       		.byte	0x14
 5055 59af 99       		.byte	0x99
 5056 59b0 0B       		.byte	0xb
 5057 59b1 BAC30000 		.long	0xc3ba
 5058 59b5 03       		.uleb128 0x3
 5059 59b6 14       		.byte	0x14
 5060 59b7 9A       		.byte	0x9a
 5061 59b8 0B       		.byte	0xb
 5062 59b9 D8C30000 		.long	0xc3d8
 5063 59bd 03       		.uleb128 0x3
 5064 59be 14       		.byte	0x14
 5065 59bf 9B       		.byte	0x9b
 5066 59c0 0B       		.byte	0xb
 5067 59c1 FEC30000 		.long	0xc3fe
 5068 59c5 03       		.uleb128 0x3
 5069 59c6 14       		.byte	0x14
 5070 59c7 9D       		.byte	0x9d
GAS LISTING C:\Users\Ilya\AppData\Local\Temp\ccxaKDG8.s 			page 146


 5071 59c8 0B       		.byte	0xb
 5072 59c9 22C40000 		.long	0xc422
 5073 59cd 03       		.uleb128 0x3
 5074 59ce 14       		.byte	0x14
 5075 59cf A3       		.byte	0xa3
 5076 59d0 0B       		.byte	0xb
 5077 59d1 46C40000 		.long	0xc446
 5078 59d5 03       		.uleb128 0x3
 5079 59d6 14       		.byte	0x14
 5080 59d7 A5       		.byte	0xa5
 5081 59d8 0B       		.byte	0xb
 5082 59d9 54C40000 		.long	0xc454
 5083 59dd 03       		.uleb128 0x3
 5084 59de 14       		.byte	0x14
 5085 59df A6       		.byte	0xa6
 5086 59e0 0B       		.byte	0xb
 5087 59e1 69C40000 		.long	0xc469
 5088 59e5 03       		.uleb128 0x3
 5089 59e6 14       		.byte	0x14
 5090 59e7 A7       		.byte	0xa7
 5091 59e8 0B       		.byte	0xb
 5092 59e9 88C40000 		.long	0xc488
 5093 59ed 03       		.uleb128 0x3
 5094 59ee 14       		.byte	0x14
 5095 59ef A8       		.byte	0xa8
 5096 59f0 0B       		.byte	0xb
 5097 59f1 ACC40000 		.long	0xc4ac
 5098 59f5 03       		.uleb128 0x3
 5099 59f6 14       		.byte	0x14
 5100 59f7 A9       		.byte	0xa9
 5101 59f8 0B       		.byte	0xb
 5102 59f9 D1C40000 		.long	0xc4d1
 5103 59fd 03       		.uleb128 0x3
 5104 59fe 14       		.byte	0x14
 5105 59ff AB       		.byte	0xab
 5106 5a00 0B       		.byte	0xb
 5107 5a01 EAC40000 		.long	0xc4ea
 5108 5a05 03       		.uleb128 0x3
 5109 5a06 14       		.byte	0x14
 5110 5a07 AC       		.byte	0xac
 5111 5a08 0B       		.byte	0xb
 5112 5a09 10C50000 		.long	0xc510
 5113 5a0d 03       		.uleb128 0x3
 5114 5a0e 14       		.byte	0x14
 5115 5a0f F0       		.byte	0xf0
 5116 5a10 16       		.byte	0x16
 5117 5a11 AAC20000 		.long	0xc2aa
 5118 5a15 03       		.uleb128 0x3
 5119 5a16 14       		.byte	0x14
 5120 5a17 F5       		.byte	0xf5
 5121 5a18 16       		.byte	0x16
 5122 5a19 58970000 		.long	0x9758
 5123 5a1d 03       		.uleb128 0x3
 5124 5a1e 14       		.byte	0x14
 5125 5a1f F6       		.byte	0xf6
 5126 5a20 16       		.byte	0x16
 5127 5a21 2FC50000 		.long	0xc52f
GAS LISTING C:\Users\Ilya\AppData\Local\Temp\ccxaKDG8.s 			page 147


 5128 5a25 03       		.uleb128 0x3
 5129 5a26 14       		.byte	0x14
 5130 5a27 F8       		.byte	0xf8
 5131 5a28 16       		.byte	0x16
 5132 5a29 4DC50000 		.long	0xc54d
 5133 5a2d 03       		.uleb128 0x3
 5134 5a2e 14       		.byte	0x14
 5135 5a2f F9       		.byte	0xf9
 5136 5a30 16       		.byte	0x16
 5137 5a31 B1C50000 		.long	0xc5b1
 5138 5a35 03       		.uleb128 0x3
 5139 5a36 14       		.byte	0x14
 5140 5a37 FA       		.byte	0xfa
 5141 5a38 16       		.byte	0x16
 5142 5a39 66C50000 		.long	0xc566
 5143 5a3d 03       		.uleb128 0x3
 5144 5a3e 14       		.byte	0x14
 5145 5a3f FB       		.byte	0xfb
 5146 5a40 16       		.byte	0x16
 5147 5a41 8BC50000 		.long	0xc58b
 5148 5a45 03       		.uleb128 0x3
 5149 5a46 14       		.byte	0x14
 5150 5a47 FC       		.byte	0xfc
 5151 5a48 16       		.byte	0x16
 5152 5a49 D0C50000 		.long	0xc5d0
 5153 5a4d 03       		.uleb128 0x3
 5154 5a4e 15       		.byte	0x15
 5155 5a4f 62       		.byte	0x62
 5156 5a50 0B       		.byte	0xb
 5157 5a51 53B50000 		.long	0xb553
 5158 5a55 03       		.uleb128 0x3
 5159 5a56 15       		.byte	0x15
 5160 5a57 63       		.byte	0x63
 5161 5a58 0B       		.byte	0xb
 5162 5a59 5EC10000 		.long	0xc15e
 5163 5a5d 03       		.uleb128 0x3
 5164 5a5e 15       		.byte	0x15
 5165 5a5f 65       		.byte	0x65
 5166 5a60 0B       		.byte	0xb
 5167 5a61 F0C50000 		.long	0xc5f0
 5168 5a65 03       		.uleb128 0x3
 5169 5a66 15       		.byte	0x15
 5170 5a67 66       		.byte	0x66
 5171 5a68 0B       		.byte	0xb
 5172 5a69 08C60000 		.long	0xc608
 5173 5a6d 03       		.uleb128 0x3
 5174 5a6e 15       		.byte	0x15
 5175 5a6f 67       		.byte	0x67
 5176 5a70 0B       		.byte	0xb
 5177 5a71 22C60000 		.long	0xc622
 5178 5a75 03       		.uleb128 0x3
 5179 5a76 15       		.byte	0x15
 5180 5a77 68       		.byte	0x68
 5181 5a78 0B       		.byte	0xb
 5182 5a79 3AC60000 		.long	0xc63a
 5183 5a7d 03       		.uleb128 0x3
 5184 5a7e 15       		.byte	0x15
GAS LISTING C:\Users\Ilya\AppData\Local\Temp\ccxaKDG8.s 			page 148


 5185 5a7f 69       		.byte	0x69
 5186 5a80 0B       		.byte	0xb
 5187 5a81 54C60000 		.long	0xc654
 5188 5a85 03       		.uleb128 0x3
 5189 5a86 15       		.byte	0x15
 5190 5a87 6A       		.byte	0x6a
 5191 5a88 0B       		.byte	0xb
 5192 5a89 6EC60000 		.long	0xc66e
 5193 5a8d 03       		.uleb128 0x3
 5194 5a8e 15       		.byte	0x15
 5195 5a8f 6B       		.byte	0x6b
 5196 5a90 0B       		.byte	0xb
 5197 5a91 87C60000 		.long	0xc687
 5198 5a95 03       		.uleb128 0x3
 5199 5a96 15       		.byte	0x15
 5200 5a97 6C       		.byte	0x6c
 5201 5a98 0B       		.byte	0xb
 5202 5a99 ADC60000 		.long	0xc6ad
 5203 5a9d 03       		.uleb128 0x3
 5204 5a9e 15       		.byte	0x15
 5205 5a9f 6D       		.byte	0x6d
 5206 5aa0 0B       		.byte	0xb
 5207 5aa1 D0C60000 		.long	0xc6d0
 5208 5aa5 03       		.uleb128 0x3
 5209 5aa6 15       		.byte	0x15
 5210 5aa7 6E       		.byte	0x6e
 5211 5aa8 0B       		.byte	0xb
 5212 5aa9 EEC60000 		.long	0xc6ee
 5213 5aad 03       		.uleb128 0x3
 5214 5aae 15       		.byte	0x15
 5215 5aaf 71       		.byte	0x71
 5216 5ab0 0B       		.byte	0xb
 5217 5ab1 0FC70000 		.long	0xc70f
 5218 5ab5 03       		.uleb128 0x3
 5219 5ab6 15       		.byte	0x15
 5220 5ab7 72       		.byte	0x72
 5221 5ab8 0B       		.byte	0xb
 5222 5ab9 37C70000 		.long	0xc737
 5223 5abd 03       		.uleb128 0x3
 5224 5abe 15       		.byte	0x15
 5225 5abf 73       		.byte	0x73
 5226 5ac0 0B       		.byte	0xb
 5227 5ac1 5CC70000 		.long	0xc75c
 5228 5ac5 03       		.uleb128 0x3
 5229 5ac6 15       		.byte	0x15
 5230 5ac7 74       		.byte	0x74
 5231 5ac8 0B       		.byte	0xb
 5232 5ac9 7CC70000 		.long	0xc77c
 5233 5acd 03       		.uleb128 0x3
 5234 5ace 15       		.byte	0x15
 5235 5acf 75       		.byte	0x75
 5236 5ad0 0B       		.byte	0xb
 5237 5ad1 9FC70000 		.long	0xc79f
 5238 5ad5 03       		.uleb128 0x3
 5239 5ad6 15       		.byte	0x15
 5240 5ad7 76       		.byte	0x76
 5241 5ad8 0B       		.byte	0xb
GAS LISTING C:\Users\Ilya\AppData\Local\Temp\ccxaKDG8.s 			page 149


 5242 5ad9 C5C70000 		.long	0xc7c5
 5243 5add 03       		.uleb128 0x3
 5244 5ade 15       		.byte	0x15
 5245 5adf 78       		.byte	0x78
 5246 5ae0 0B       		.byte	0xb
 5247 5ae1 DEC70000 		.long	0xc7de
 5248 5ae5 03       		.uleb128 0x3
 5249 5ae6 15       		.byte	0x15
 5250 5ae7 79       		.byte	0x79
 5251 5ae8 0B       		.byte	0xb
 5252 5ae9 F6C70000 		.long	0xc7f6
 5253 5aed 03       		.uleb128 0x3
 5254 5aee 15       		.byte	0x15
 5255 5aef 7E       		.byte	0x7e
 5256 5af0 0B       		.byte	0xb
 5257 5af1 07C80000 		.long	0xc807
 5258 5af5 03       		.uleb128 0x3
 5259 5af6 15       		.byte	0x15
 5260 5af7 7F       		.byte	0x7f
 5261 5af8 0B       		.byte	0xb
 5262 5af9 1DC80000 		.long	0xc81d
 5263 5afd 03       		.uleb128 0x3
 5264 5afe 15       		.byte	0x15
 5265 5aff 83       		.byte	0x83
 5266 5b00 0B       		.byte	0xb
 5267 5b01 38C80000 		.long	0xc838
 5268 5b05 03       		.uleb128 0x3
 5269 5b06 15       		.byte	0x15
 5270 5b07 84       		.byte	0x84
 5271 5b08 0B       		.byte	0xb
 5272 5b09 52C80000 		.long	0xc852
 5273 5b0d 03       		.uleb128 0x3
 5274 5b0e 15       		.byte	0x15
 5275 5b0f 85       		.byte	0x85
 5276 5b10 0B       		.byte	0xb
 5277 5b11 71C80000 		.long	0xc871
 5278 5b15 03       		.uleb128 0x3
 5279 5b16 15       		.byte	0x15
 5280 5b17 86       		.byte	0x86
 5281 5b18 0B       		.byte	0xb
 5282 5b19 87C80000 		.long	0xc887
 5283 5b1d 03       		.uleb128 0x3
 5284 5b1e 15       		.byte	0x15
 5285 5b1f 87       		.byte	0x87
 5286 5b20 0B       		.byte	0xb
 5287 5b21 A1C80000 		.long	0xc8a1
 5288 5b25 03       		.uleb128 0x3
 5289 5b26 15       		.byte	0x15
 5290 5b27 88       		.byte	0x88
 5291 5b28 0B       		.byte	0xb
 5292 5b29 BCC80000 		.long	0xc8bc
 5293 5b2d 03       		.uleb128 0x3
 5294 5b2e 15       		.byte	0x15
 5295 5b2f 89       		.byte	0x89
 5296 5b30 0B       		.byte	0xb
 5297 5b31 E6C80000 		.long	0xc8e6
 5298 5b35 03       		.uleb128 0x3
GAS LISTING C:\Users\Ilya\AppData\Local\Temp\ccxaKDG8.s 			page 150


 5299 5b36 15       		.byte	0x15
 5300 5b37 8A       		.byte	0x8a
 5301 5b38 0B       		.byte	0xb
 5302 5b39 07C90000 		.long	0xc907
 5303 5b3d 03       		.uleb128 0x3
 5304 5b3e 15       		.byte	0x15
 5305 5b3f 8B       		.byte	0x8b
 5306 5b40 0B       		.byte	0xb
 5307 5b41 27C90000 		.long	0xc927
 5308 5b45 03       		.uleb128 0x3
 5309 5b46 15       		.byte	0x15
 5310 5b47 8D       		.byte	0x8d
 5311 5b48 0B       		.byte	0xb
 5312 5b49 38C90000 		.long	0xc938
 5313 5b4d 03       		.uleb128 0x3
 5314 5b4e 15       		.byte	0x15
 5315 5b4f 8F       		.byte	0x8f
 5316 5b50 0B       		.byte	0xb
 5317 5b51 52C90000 		.long	0xc952
 5318 5b55 03       		.uleb128 0x3
 5319 5b56 15       		.byte	0x15
 5320 5b57 90       		.byte	0x90
 5321 5b58 0B       		.byte	0xb
 5322 5b59 71C90000 		.long	0xc971
 5323 5b5d 03       		.uleb128 0x3
 5324 5b5e 15       		.byte	0x15
 5325 5b5f 91       		.byte	0x91
 5326 5b60 0B       		.byte	0xb
 5327 5b61 97C90000 		.long	0xc997
 5328 5b65 03       		.uleb128 0x3
 5329 5b66 15       		.byte	0x15
 5330 5b67 92       		.byte	0x92
 5331 5b68 0B       		.byte	0xb
 5332 5b69 B7C90000 		.long	0xc9b7
 5333 5b6d 03       		.uleb128 0x3
 5334 5b6e 15       		.byte	0x15
 5335 5b6f B9       		.byte	0xb9
 5336 5b70 16       		.byte	0x16
 5337 5b71 DDC90000 		.long	0xc9dd
 5338 5b75 03       		.uleb128 0x3
 5339 5b76 15       		.byte	0x15
 5340 5b77 BA       		.byte	0xba
 5341 5b78 16       		.byte	0x16
 5342 5b79 04CA0000 		.long	0xca04
 5343 5b7d 03       		.uleb128 0x3
 5344 5b7e 15       		.byte	0x15
 5345 5b7f BB       		.byte	0xbb
 5346 5b80 16       		.byte	0x16
 5347 5b81 29CA0000 		.long	0xca29
 5348 5b85 03       		.uleb128 0x3
 5349 5b86 15       		.byte	0x15
 5350 5b87 BC       		.byte	0xbc
 5351 5b88 16       		.byte	0x16
 5352 5b89 48CA0000 		.long	0xca48
 5353 5b8d 03       		.uleb128 0x3
 5354 5b8e 15       		.byte	0x15
 5355 5b8f BD       		.byte	0xbd
GAS LISTING C:\Users\Ilya\AppData\Local\Temp\ccxaKDG8.s 			page 151


 5356 5b90 16       		.byte	0x16
 5357 5b91 74CA0000 		.long	0xca74
 5358 5b95 2E       		.uleb128 0x2e
 5359 5b96 616C6C6F 		.ascii "allocator_traits<std::allocator<char> >\0"
 5359      6361746F 
 5359      725F7472 
 5359      61697473 
 5359      3C737464 
 5360 5bbe 01       		.byte	0x1
 5361 5bbf 04       		.byte	0x4
 5362 5bc0 9701     		.word	0x197
 5363 5bc2 0C       		.byte	0xc
 5364 5bc3 C55D0000 		.long	0x5dc5
 5365 5bc7 19       		.uleb128 0x19
 5366 5bc8 AB000000 		.secrel32	.LASF1
 5367 5bcc 04       		.byte	0x4
 5368 5bcd A001     		.word	0x1a0
 5369 5bcf 0D       		.byte	0xd
 5370 5bd0 B4B20000 		.long	0xb2b4
 5371 5bd4 1A       		.uleb128 0x1a
 5372 5bd5 AD040000 		.secrel32	.LASF50
 5373 5bd9 04       		.byte	0x4
 5374 5bda CB01     		.word	0x1cb
 5375 5bdc 07       		.byte	0x7
 5376 5bdd 5F5A4E53 		.ascii "_ZNSt16allocator_traitsISaIcEE8allocateERS0_y\0"
 5376      74313661 
 5376      6C6C6F63 
 5376      61746F72 
 5376      5F747261 
 5377 5c0b C75B0000 		.long	0x5bc7
 5378 5c0f 1E5C0000 		.long	0x5c1e
 5379 5c13 01       		.uleb128 0x1
 5380 5c14 99CA0000 		.long	0xca99
 5381 5c18 01       		.uleb128 0x1
 5382 5c19 305C0000 		.long	0x5c30
 5383 5c1d 00       		.byte	0
 5384 5c1e 19       		.uleb128 0x19
 5385 5c1f 41040000 		.secrel32	.LASF5
 5386 5c23 04       		.byte	0x4
 5387 5c24 9A01     		.word	0x19a
 5388 5c26 0D       		.byte	0xd
 5389 5c27 FD570000 		.long	0x57fd
 5390 5c2b 07       		.uleb128 0x7
 5391 5c2c 1E5C0000 		.long	0x5c1e
 5392 5c30 19       		.uleb128 0x19
 5393 5c31 B3000000 		.secrel32	.LASF2
 5394 5c35 04       		.byte	0x4
 5395 5c36 AF01     		.word	0x1af
 5396 5c38 0D       		.byte	0xd
 5397 5c39 7A510000 		.long	0x517a
 5398 5c3d 1A       		.uleb128 0x1a
 5399 5c3e AD040000 		.secrel32	.LASF50
 5400 5c42 04       		.byte	0x4
 5401 5c43 D901     		.word	0x1d9
 5402 5c45 07       		.byte	0x7
 5403 5c46 5F5A4E53 		.ascii "_ZNSt16allocator_traitsISaIcEE8allocateERS0_yPKv\0"
 5403      74313661 
GAS LISTING C:\Users\Ilya\AppData\Local\Temp\ccxaKDG8.s 			page 152


 5403      6C6C6F63 
 5403      61746F72 
 5403      5F747261 
 5404 5c77 C75B0000 		.long	0x5bc7
 5405 5c7b 8F5C0000 		.long	0x5c8f
 5406 5c7f 01       		.uleb128 0x1
 5407 5c80 99CA0000 		.long	0xca99
 5408 5c84 01       		.uleb128 0x1
 5409 5c85 305C0000 		.long	0x5c30
 5410 5c89 01       		.uleb128 0x1
 5411 5c8a 8F5C0000 		.long	0x5c8f
 5412 5c8e 00       		.byte	0
 5413 5c8f 19       		.uleb128 0x19
 5414 5c90 19040000 		.secrel32	.LASF51
 5415 5c94 04       		.byte	0x4
 5416 5c95 A901     		.word	0x1a9
 5417 5c97 0D       		.byte	0xd
 5418 5c98 C4C10000 		.long	0xc1c4
 5419 5c9c 2B       		.uleb128 0x2b
 5420 5c9d 1E020000 		.secrel32	.LASF52
 5421 5ca1 04       		.byte	0x4
 5422 5ca2 EB01     		.word	0x1eb
 5423 5ca4 07       		.byte	0x7
 5424 5ca5 5F5A4E53 		.ascii "_ZNSt16allocator_traitsISaIcEE10deallocateERS0_Pcy\0"
 5424      74313661 
 5424      6C6C6F63 
 5424      61746F72 
 5424      5F747261 
 5425 5cd8 EC5C0000 		.long	0x5cec
 5426 5cdc 01       		.uleb128 0x1
 5427 5cdd 99CA0000 		.long	0xca99
 5428 5ce1 01       		.uleb128 0x1
 5429 5ce2 C75B0000 		.long	0x5bc7
 5430 5ce6 01       		.uleb128 0x1
 5431 5ce7 305C0000 		.long	0x5c30
 5432 5ceb 00       		.byte	0
 5433 5cec 1A       		.uleb128 0x1a
 5434 5ced 50040000 		.secrel32	.LASF17
 5435 5cf1 04       		.byte	0x4
 5436 5cf2 1F02     		.word	0x21f
 5437 5cf4 07       		.byte	0x7
 5438 5cf5 5F5A4E53 		.ascii "_ZNSt16allocator_traitsISaIcEE8max_sizeERKS0_\0"
 5438      74313661 
 5438      6C6C6F63 
 5438      61746F72 
 5438      5F747261 
 5439 5d23 305C0000 		.long	0x5c30
 5440 5d27 315D0000 		.long	0x5d31
 5441 5d2b 01       		.uleb128 0x1
 5442 5d2c 9FCA0000 		.long	0xca9f
 5443 5d30 00       		.byte	0
 5444 5d31 1A       		.uleb128 0x1a
 5445 5d32 32030000 		.secrel32	.LASF53
 5446 5d36 04       		.byte	0x4
 5447 5d37 2E02     		.word	0x22e
 5448 5d39 07       		.byte	0x7
 5449 5d3a 5F5A4E53 		.ascii "_ZNSt16allocator_traitsISaIcEE37select_on_container_copy_constructionERKS0_\0"
GAS LISTING C:\Users\Ilya\AppData\Local\Temp\ccxaKDG8.s 			page 153


 5449      74313661 
 5449      6C6C6F63 
 5449      61746F72 
 5449      5F747261 
 5450 5d86 1E5C0000 		.long	0x5c1e
 5451 5d8a 945D0000 		.long	0x5d94
 5452 5d8e 01       		.uleb128 0x1
 5453 5d8f 9FCA0000 		.long	0xca9f
 5454 5d93 00       		.byte	0
 5455 5d94 19       		.uleb128 0x19
 5456 5d95 A2040000 		.secrel32	.LASF42
 5457 5d99 04       		.byte	0x4
 5458 5d9a 9D01     		.word	0x19d
 5459 5d9c 0D       		.byte	0xd
 5460 5d9d F7B10000 		.long	0xb1f7
 5461 5da1 19       		.uleb128 0x19
 5462 5da2 6B000000 		.secrel32	.LASF4
 5463 5da6 04       		.byte	0x4
 5464 5da7 A301     		.word	0x1a3
 5465 5da9 0D       		.byte	0xd
 5466 5daa 89B70000 		.long	0xb789
 5467 5dae 19       		.uleb128 0x19
 5468 5daf D8030000 		.secrel32	.LASF54
 5469 5db3 04       		.byte	0x4
 5470 5db4 BE01     		.word	0x1be
 5471 5db6 08       		.byte	0x8
 5472 5db7 FD570000 		.long	0x57fd
 5473 5dbb 12       		.uleb128 0x12
 5474 5dbc 9B040000 		.secrel32	.LASF40
 5475 5dc0 FD570000 		.long	0x57fd
 5476 5dc4 00       		.byte	0
 5477 5dc5 28       		.uleb128 0x28
 5478 5dc6 696E6974 		.ascii "initializer_list<char>\0"
 5478      69616C69 
 5478      7A65725F 
 5478      6C697374 
 5478      3C636861 
 5479 5ddd 10       		.byte	0x10
 5480 5dde 16       		.byte	0x16
 5481 5ddf 2F       		.byte	0x2f
 5482 5de0 0B       		.byte	0xb
 5483 5de1 6A5F0000 		.long	0x5f6a
 5484 5de5 0E       		.uleb128 0xe
 5485 5de6 CE020000 		.secrel32	.LASF8
 5486 5dea 16       		.byte	0x16
 5487 5deb 36       		.byte	0x36
 5488 5dec 1A       		.byte	0x1a
 5489 5ded 89B70000 		.long	0xb789
 5490 5df1 01       		.byte	0x1
 5491 5df2 09       		.uleb128 0x9
 5492 5df3 5F4D5F61 		.ascii "_M_array\0"
 5492      72726179 
 5492      00
 5493 5dfc 16       		.byte	0x16
 5494 5dfd 3A       		.byte	0x3a
 5495 5dfe 12       		.byte	0x12
 5496 5dff E55D0000 		.long	0x5de5
GAS LISTING C:\Users\Ilya\AppData\Local\Temp\ccxaKDG8.s 			page 154


 5497 5e03 00       		.byte	0
 5498 5e04 0E       		.uleb128 0xe
 5499 5e05 B3000000 		.secrel32	.LASF2
 5500 5e09 16       		.byte	0x16
 5501 5e0a 35       		.byte	0x35
 5502 5e0b 18       		.byte	0x18
 5503 5e0c 7A510000 		.long	0x517a
 5504 5e10 01       		.byte	0x1
 5505 5e11 09       		.uleb128 0x9
 5506 5e12 5F4D5F6C 		.ascii "_M_len\0"
 5506      656E00
 5507 5e19 16       		.byte	0x16
 5508 5e1a 3B       		.byte	0x3b
 5509 5e1b 13       		.byte	0x13
 5510 5e1c 045E0000 		.long	0x5e04
 5511 5e20 08       		.byte	0x8
 5512 5e21 21       		.uleb128 0x21
 5513 5e22 5A000000 		.secrel32	.LASF55
 5514 5e26 16       		.byte	0x16
 5515 5e27 3E       		.byte	0x3e
 5516 5e28 11       		.byte	0x11
 5517 5e29 5F5A4E53 		.ascii "_ZNSt16initializer_listIcEC4EPKcy\0"
 5517      74313669 
 5517      6E697469 
 5517      616C697A 
 5517      65725F6C 
 5518 5e4b 535E0000 		.long	0x5e53
 5519 5e4f 635E0000 		.long	0x5e63
 5520 5e53 02       		.uleb128 0x2
 5521 5e54 FFCA0000 		.long	0xcaff
 5522 5e58 01       		.uleb128 0x1
 5523 5e59 635E0000 		.long	0x5e63
 5524 5e5d 01       		.uleb128 0x1
 5525 5e5e 045E0000 		.long	0x5e04
 5526 5e62 00       		.byte	0
 5527 5e63 0E       		.uleb128 0xe
 5528 5e64 4E010000 		.secrel32	.LASF9
 5529 5e68 16       		.byte	0x16
 5530 5e69 37       		.byte	0x37
 5531 5e6a 1A       		.byte	0x1a
 5532 5e6b 89B70000 		.long	0xb789
 5533 5e6f 01       		.byte	0x1
 5534 5e70 0F       		.uleb128 0xf
 5535 5e71 5A000000 		.secrel32	.LASF55
 5536 5e75 16       		.byte	0x16
 5537 5e76 42       		.byte	0x42
 5538 5e77 11       		.byte	0x11
 5539 5e78 5F5A4E53 		.ascii "_ZNSt16initializer_listIcEC4Ev\0"
 5539      74313669 
 5539      6E697469 
 5539      616C697A 
 5539      65725F6C 
 5540 5e97 01       		.byte	0x1
 5541 5e98 A05E0000 		.long	0x5ea0
 5542 5e9c A65E0000 		.long	0x5ea6
 5543 5ea0 02       		.uleb128 0x2
 5544 5ea1 FFCA0000 		.long	0xcaff
GAS LISTING C:\Users\Ilya\AppData\Local\Temp\ccxaKDG8.s 			page 155


 5545 5ea5 00       		.byte	0
 5546 5ea6 36       		.uleb128 0x36
 5547 5ea7 73697A65 		.ascii "size\0"
 5547      00
 5548 5eac 16       		.byte	0x16
 5549 5ead 47       		.byte	0x47
 5550 5eae 07       		.byte	0x7
 5551 5eaf 5F5A4E4B 		.ascii "_ZNKSt16initializer_listIcE4sizeEv\0"
 5551      53743136 
 5551      696E6974 
 5551      69616C69 
 5551      7A65725F 
 5552 5ed2 045E0000 		.long	0x5e04
 5553 5ed6 01       		.byte	0x1
 5554 5ed7 DF5E0000 		.long	0x5edf
 5555 5edb E55E0000 		.long	0x5ee5
 5556 5edf 02       		.uleb128 0x2
 5557 5ee0 05CB0000 		.long	0xcb05
 5558 5ee4 00       		.byte	0
 5559 5ee5 14       		.uleb128 0x14
 5560 5ee6 B8010000 		.secrel32	.LASF13
 5561 5eea 16       		.byte	0x16
 5562 5eeb 4B       		.byte	0x4b
 5563 5eec 07       		.byte	0x7
 5564 5eed 5F5A4E4B 		.ascii "_ZNKSt16initializer_listIcE5beginEv\0"
 5564      53743136 
 5564      696E6974 
 5564      69616C69 
 5564      7A65725F 
 5565 5f11 635E0000 		.long	0x5e63
 5566 5f15 01       		.byte	0x1
 5567 5f16 1E5F0000 		.long	0x5f1e
 5568 5f1a 245F0000 		.long	0x5f24
 5569 5f1e 02       		.uleb128 0x2
 5570 5f1f 05CB0000 		.long	0xcb05
 5571 5f23 00       		.byte	0
 5572 5f24 36       		.uleb128 0x36
 5573 5f25 656E6400 		.ascii "end\0"
 5574 5f29 16       		.byte	0x16
 5575 5f2a 4F       		.byte	0x4f
 5576 5f2b 07       		.byte	0x7
 5577 5f2c 5F5A4E4B 		.ascii "_ZNKSt16initializer_listIcE3endEv\0"
 5577      53743136 
 5577      696E6974 
 5577      69616C69 
 5577      7A65725F 
 5578 5f4e 635E0000 		.long	0x5e63
 5579 5f52 01       		.byte	0x1
 5580 5f53 5B5F0000 		.long	0x5f5b
 5581 5f57 615F0000 		.long	0x5f61
 5582 5f5b 02       		.uleb128 0x2
 5583 5f5c 05CB0000 		.long	0xcb05
 5584 5f60 00       		.byte	0
 5585 5f61 16       		.uleb128 0x16
 5586 5f62 5F4500   		.ascii "_E\0"
 5587 5f65 F7B10000 		.long	0xb1f7
 5588 5f69 00       		.byte	0
GAS LISTING C:\Users\Ilya\AppData\Local\Temp\ccxaKDG8.s 			page 156


 5589 5f6a 07       		.uleb128 0x7
 5590 5f6b C55D0000 		.long	0x5dc5
 5591 5f6f 25       		.uleb128 0x25
 5592 5f70 72657665 		.ascii "reverse_iterator<__gnu_cxx::__normal_iterator<char*, std::__cxx11::basic_string<char, std:
 5592      7273655F 
 5592      69746572 
 5592      61746F72 
 5592      3C5F5F67 
 5593 5ff9 25       		.uleb128 0x25
 5594 5ffa 72657665 		.ascii "reverse_iterator<__gnu_cxx::__normal_iterator<char const*, std::__cxx11::basic_string<char
 5594      7273655F 
 5594      69746572 
 5594      61746F72 
 5594      3C5F5F67 
 5595 6089 0A       		.uleb128 0xa
 5596 608a 73747269 		.ascii "string\0"
 5596      6E6700
 5597 6091 17       		.byte	0x17
 5598 6092 4F       		.byte	0x4f
 5599 6093 21       		.byte	0x21
 5600 6094 B0000000 		.long	0xb0
 5601 6098 4D       		.uleb128 0x4d
 5602 6099 6C697465 		.ascii "literals\0"
 5602      72616C73 
 5602      00
 5603 60a2 09       		.byte	0x9
 5604 60a3 DF1A     		.word	0x1adf
 5605 60a5 14       		.byte	0x14
 5606 60a6 C9600000 		.long	0x60c9
 5607 60aa 57       		.uleb128 0x57
 5608 60ab 73747269 		.ascii "string_literals\0"
 5608      6E675F6C 
 5608      69746572 
 5608      616C7300 
 5609 60bb 09       		.byte	0x9
 5610 60bc E11A     		.word	0x1ae1
 5611 60be 14       		.byte	0x14
 5612 60bf 3A       		.uleb128 0x3a
 5613 60c0 09       		.byte	0x9
 5614 60c1 E11A     		.word	0x1ae1
 5615 60c3 14       		.byte	0x14
 5616 60c4 AA600000 		.long	0x60aa
 5617 60c8 00       		.byte	0
 5618 60c9 3A       		.uleb128 0x3a
 5619 60ca 09       		.byte	0x9
 5620 60cb DF1A     		.word	0x1adf
 5621 60cd 14       		.byte	0x14
 5622 60ce 98600000 		.long	0x6098
 5623 60d2 74       		.uleb128 0x74
 5624 60d3 5F563200 		.ascii "_V2\0"
 5625 60d7 18       		.byte	0x18
 5626 60d8 4E       		.byte	0x4e
 5627 60d9 14       		.byte	0x14
 5628 60da 46       		.uleb128 0x46
 5629 60db 18       		.byte	0x18
 5630 60dc 4E       		.byte	0x4e
 5631 60dd 14       		.byte	0x14
GAS LISTING C:\Users\Ilya\AppData\Local\Temp\ccxaKDG8.s 			page 157


 5632 60de D2600000 		.long	0x60d2
 5633 60e2 58       		.uleb128 0x58
 5634 60e3 696F735F 		.ascii "ios_base\0"
 5634      62617365 
 5634      00
 5635 60ec 1B620000 		.long	0x621b
 5636 60f0 75       		.uleb128 0x75
 5637 60f1 496E6974 		.ascii "Init\0"
 5637      00
 5638 60f6 01       		.byte	0x1
 5639 60f7 19       		.byte	0x19
 5640 60f8 5B02     		.word	0x25b
 5641 60fa 0B       		.byte	0xb
 5642 60fb 01       		.byte	0x1
 5643 60fc 15620000 		.long	0x6215
 5644 6100 17       		.uleb128 0x17
 5645 6101 496E6974 		.ascii "Init\0"
 5645      00
 5646 6106 19       		.byte	0x19
 5647 6107 5F02     		.word	0x25f
 5648 6109 07       		.byte	0x7
 5649 610a 5F5A4E53 		.ascii "_ZNSt8ios_base4InitC4Ev\0"
 5649      7438696F 
 5649      735F6261 
 5649      73653449 
 5649      6E697443 
 5650 6122 01       		.byte	0x1
 5651 6123 2B610000 		.long	0x612b
 5652 6127 31610000 		.long	0x6131
 5653 612b 02       		.uleb128 0x2
 5654 612c 0BCB0000 		.long	0xcb0b
 5655 6130 00       		.byte	0
 5656 6131 17       		.uleb128 0x17
 5657 6132 7E496E69 		.ascii "~Init\0"
 5657      7400
 5658 6138 19       		.byte	0x19
 5659 6139 6002     		.word	0x260
 5660 613b 07       		.byte	0x7
 5661 613c 5F5A4E53 		.ascii "_ZNSt8ios_base4InitD4Ev\0"
 5661      7438696F 
 5661      735F6261 
 5661      73653449 
 5661      6E697444 
 5662 6154 01       		.byte	0x1
 5663 6155 5D610000 		.long	0x615d
 5664 6159 68610000 		.long	0x6168
 5665 615d 02       		.uleb128 0x2
 5666 615e 0BCB0000 		.long	0xcb0b
 5667 6162 02       		.uleb128 0x2
 5668 6163 9CB20000 		.long	0xb29c
 5669 6167 00       		.byte	0
 5670 6168 76       		.uleb128 0x76
 5671 6169 496E6974 		.ascii "Init\0"
 5671      00
 5672 616e 19       		.byte	0x19
 5673 616f 6302     		.word	0x263
 5674 6171 07       		.byte	0x7
GAS LISTING C:\Users\Ilya\AppData\Local\Temp\ccxaKDG8.s 			page 158


 5675 6172 5F5A4E53 		.ascii "_ZNSt8ios_base4InitC4ERKS0_\0"
 5675      7438696F 
 5675      735F6261 
 5675      73653449 
 5675      6E697443 
 5676 618e 01       		.byte	0x1
 5677 618f 01       		.byte	0x1
 5678 6190 98610000 		.long	0x6198
 5679 6194 A3610000 		.long	0x61a3
 5680 6198 02       		.uleb128 0x2
 5681 6199 0BCB0000 		.long	0xcb0b
 5682 619d 01       		.uleb128 0x1
 5683 619e 11CB0000 		.long	0xcb11
 5684 61a2 00       		.byte	0
 5685 61a3 77       		.uleb128 0x77
 5686 61a4 D8000000 		.secrel32	.LASF12
 5687 61a8 19       		.byte	0x19
 5688 61a9 6402     		.word	0x264
 5689 61ab 0D       		.byte	0xd
 5690 61ac 5F5A4E53 		.ascii "_ZNSt8ios_base4InitaSERKS0_\0"
 5690      7438696F 
 5690      735F6261 
 5690      73653449 
 5690      6E697461 
 5691 61c8 17CB0000 		.long	0xcb17
 5692 61cc 01       		.byte	0x1
 5693 61cd 01       		.byte	0x1
 5694 61ce D6610000 		.long	0x61d6
 5695 61d2 E1610000 		.long	0x61e1
 5696 61d6 02       		.uleb128 0x2
 5697 61d7 0BCB0000 		.long	0xcb0b
 5698 61db 01       		.uleb128 0x1
 5699 61dc 11CB0000 		.long	0xcb11
 5700 61e0 00       		.byte	0
 5701 61e1 59       		.uleb128 0x59
 5702 61e2 5F535F72 		.ascii "_S_refcount\0"
 5702      6566636F 
 5702      756E7400 
 5703 61ee 19       		.byte	0x19
 5704 61ef 6802     		.word	0x268
 5705 61f1 1B       		.byte	0x1b
 5706 61f2 AFC10000 		.long	0xc1af
 5707 61f6 59       		.uleb128 0x59
 5708 61f7 5F535F73 		.ascii "_S_synced_with_stdio\0"
 5708      796E6365 
 5708      645F7769 
 5708      74685F73 
 5708      7464696F 
 5709 620c 19       		.byte	0x19
 5710 620d 6902     		.word	0x269
 5711 620f 14       		.byte	0x14
 5712 6210 B0BE0000 		.long	0xbeb0
 5713 6214 00       		.byte	0
 5714 6215 07       		.uleb128 0x7
 5715 6216 F0600000 		.long	0x60f0
 5716 621a 00       		.byte	0
 5717 621b 03       		.uleb128 0x3
GAS LISTING C:\Users\Ilya\AppData\Local\Temp\ccxaKDG8.s 			page 159


 5718 621c 1A       		.byte	0x1a
 5719 621d 52       		.byte	0x52
 5720 621e 0B       		.byte	0xb
 5721 621f 1DCB0000 		.long	0xcb1d
 5722 6223 03       		.uleb128 0x3
 5723 6224 1A       		.byte	0x1a
 5724 6225 53       		.byte	0x53
 5725 6226 0B       		.byte	0xb
 5726 6227 8BB20000 		.long	0xb28b
 5727 622b 03       		.uleb128 0x3
 5728 622c 1A       		.byte	0x1a
 5729 622d 54       		.byte	0x54
 5730 622e 0B       		.byte	0xb
 5731 622f 66B20000 		.long	0xb266
 5732 6233 03       		.uleb128 0x3
 5733 6234 1A       		.byte	0x1a
 5734 6235 5C       		.byte	0x5c
 5735 6236 0B       		.byte	0xb
 5736 6237 2FCB0000 		.long	0xcb2f
 5737 623b 03       		.uleb128 0x3
 5738 623c 1A       		.byte	0x1a
 5739 623d 65       		.byte	0x65
 5740 623e 0B       		.byte	0xb
 5741 623f 50CB0000 		.long	0xcb50
 5742 6243 03       		.uleb128 0x3
 5743 6244 1A       		.byte	0x1a
 5744 6245 68       		.byte	0x68
 5745 6246 0B       		.byte	0xb
 5746 6247 71CB0000 		.long	0xcb71
 5747 624b 03       		.uleb128 0x3
 5748 624c 1A       		.byte	0x1a
 5749 624d 69       		.byte	0x69
 5750 624e 0B       		.byte	0xb
 5751 624f 8BCB0000 		.long	0xcb8b
 5752 6253 58       		.uleb128 0x58
 5753 6254 62617369 		.ascii "basic_ostream<char, std::char_traits<char> >\0"
 5753      635F6F73 
 5753      74726561 
 5753      6D3C6368 
 5753      61722C20 
 5754 6281 9C620000 		.long	0x629c
 5755 6285 12       		.uleb128 0x12
 5756 6286 36000000 		.secrel32	.LASF44
 5757 628a F7B10000 		.long	0xb1f7
 5758 628e 4F       		.uleb128 0x4f
 5759 628f 5F547261 		.ascii "_Traits\0"
 5759      69747300 
 5760 6297 05530000 		.long	0x5305
 5761 629b 00       		.byte	0
 5762 629c 0A       		.uleb128 0xa
 5763 629d 6F737472 		.ascii "ostream\0"
 5763      65616D00 
 5764 62a5 1B       		.byte	0x1b
 5765 62a6 8D       		.byte	0x8d
 5766 62a7 21       		.byte	0x21
 5767 62a8 53620000 		.long	0x6253
 5768 62ac 78       		.uleb128 0x78
GAS LISTING C:\Users\Ilya\AppData\Local\Temp\ccxaKDG8.s 			page 160


 5769 62ad 636F7574 		.ascii "cout\0"
 5769      00
 5770 62b2 08       		.byte	0x8
 5771 62b3 3D       		.byte	0x3d
 5772 62b4 12       		.byte	0x12
 5773 62b5 5F5A5374 		.ascii "_ZSt4cout\0"
 5773      34636F75 
 5773      7400
 5774 62bf 9C620000 		.long	0x629c
 5775 62c3 79       		.uleb128 0x79
 5776 62c4 5F5F696F 		.ascii "__ioinit\0"
 5776      696E6974 
 5776      00
 5777 62cd 08       		.byte	0x8
 5778 62ce 4A       		.byte	0x4a
 5779 62cf 19       		.byte	0x19
 5780 62d0 F0600000 		.long	0x60f0
 5781 62d4 15       		.uleb128 0x15
 5782 62d5 70616972 		.ascii "pair<char, long int>\0"
 5782      3C636861 
 5782      722C206C 
 5782      6F6E6720 
 5782      696E743E 
 5783 62ea 08       		.byte	0x8
 5784 62eb 0F       		.byte	0xf
 5785 62ec D3       		.byte	0xd3
 5786 62ed 0C       		.byte	0xc
 5787 62ee 37640000 		.long	0x6437
 5788 62f2 3B       		.uleb128 0x3b
 5789 62f3 F8900000 		.long	0x90f8
 5790 62f7 00       		.byte	0
 5791 62f8 03       		.byte	0x3
 5792 62f9 09       		.uleb128 0x9
 5793 62fa 66697273 		.ascii "first\0"
 5793      7400
 5794 6300 0F       		.byte	0xf
 5795 6301 D9       		.byte	0xd9
 5796 6302 0B       		.byte	0xb
 5797 6303 F7B10000 		.long	0xb1f7
 5798 6307 00       		.byte	0
 5799 6308 09       		.uleb128 0x9
 5800 6309 7365636F 		.ascii "second\0"
 5800      6E6400
 5801 6310 0F       		.byte	0xf
 5802 6311 DA       		.byte	0xda
 5803 6312 0B       		.byte	0xb
 5804 6313 A8B20000 		.long	0xb2a8
 5805 6317 04       		.byte	0x4
 5806 6318 5A       		.uleb128 0x5a
 5807 6319 70616972 		.ascii "pair\0"
 5807      00
 5808 631e 0F       		.byte	0xf
 5809 631f 3A01     		.word	0x13a
 5810 6321 11       		.byte	0x11
 5811 6322 5F5A4E53 		.ascii "_ZNSt4pairIclEC4ERKS0_\0"
 5811      74347061 
 5811      69724963 
GAS LISTING C:\Users\Ilya\AppData\Local\Temp\ccxaKDG8.s 			page 161


 5811      6C454334 
 5811      45524B53 
 5812 6339 01       		.byte	0x1
 5813 633a 42630000 		.long	0x6342
 5814 633e 4D630000 		.long	0x634d
 5815 6342 02       		.uleb128 0x2
 5816 6343 8ED40000 		.long	0xd48e
 5817 6347 01       		.uleb128 0x1
 5818 6348 A6D40000 		.long	0xd4a6
 5819 634c 00       		.byte	0
 5820 634d 5A       		.uleb128 0x5a
 5821 634e 70616972 		.ascii "pair\0"
 5821      00
 5822 6353 0F       		.byte	0xf
 5823 6354 3B01     		.word	0x13b
 5824 6356 11       		.byte	0x11
 5825 6357 5F5A4E53 		.ascii "_ZNSt4pairIclEC4EOS0_\0"
 5825      74347061 
 5825      69724963 
 5825      6C454334 
 5825      454F5330 
 5826 636d 01       		.byte	0x1
 5827 636e 76630000 		.long	0x6376
 5828 6372 81630000 		.long	0x6381
 5829 6376 02       		.uleb128 0x2
 5830 6377 8ED40000 		.long	0xd48e
 5831 637b 01       		.uleb128 0x1
 5832 637c EDD50000 		.long	0xd5ed
 5833 6380 00       		.byte	0
 5834 6381 29       		.uleb128 0x29
 5835 6382 D8000000 		.secrel32	.LASF12
 5836 6386 0F       		.byte	0xf
 5837 6387 8601     		.word	0x186
 5838 6389 07       		.byte	0x7
 5839 638a 5F5A4E53 		.ascii "_ZNSt4pairIclEaSERKS0_\0"
 5839      74347061 
 5839      69724963 
 5839      6C456153 
 5839      45524B53 
 5840 63a1 9AD40000 		.long	0xd49a
 5841 63a5 AD630000 		.long	0x63ad
 5842 63a9 B8630000 		.long	0x63b8
 5843 63ad 02       		.uleb128 0x2
 5844 63ae 8ED40000 		.long	0xd48e
 5845 63b2 01       		.uleb128 0x1
 5846 63b3 76920000 		.long	0x9276
 5847 63b7 00       		.byte	0
 5848 63b8 29       		.uleb128 0x29
 5849 63b9 D8000000 		.secrel32	.LASF12
 5850 63bd 0F       		.byte	0xf
 5851 63be 9101     		.word	0x191
 5852 63c0 07       		.byte	0x7
 5853 63c1 5F5A4E53 		.ascii "_ZNSt4pairIclEaSEOS0_\0"
 5853      74347061 
 5853      69724963 
 5853      6C456153 
 5853      454F5330 
GAS LISTING C:\Users\Ilya\AppData\Local\Temp\ccxaKDG8.s 			page 162


 5854 63d7 9AD40000 		.long	0xd49a
 5855 63db E3630000 		.long	0x63e3
 5856 63df EE630000 		.long	0x63ee
 5857 63e3 02       		.uleb128 0x2
 5858 63e4 8ED40000 		.long	0xd48e
 5859 63e8 01       		.uleb128 0x1
 5860 63e9 D1920000 		.long	0x92d1
 5861 63ed 00       		.byte	0
 5862 63ee 27       		.uleb128 0x27
 5863 63ef 73776170 		.ascii "swap\0"
 5863      00
 5864 63f4 0F       		.byte	0xf
 5865 63f5 B701     		.word	0x1b7
 5866 63f7 07       		.byte	0x7
 5867 63f8 5F5A4E53 		.ascii "_ZNSt4pairIclE4swapERS0_\0"
 5867      74347061 
 5867      69724963 
 5867      6C453473 
 5867      77617045 
 5868 6411 19640000 		.long	0x6419
 5869 6415 24640000 		.long	0x6424
 5870 6419 02       		.uleb128 0x2
 5871 641a 8ED40000 		.long	0xd48e
 5872 641e 01       		.uleb128 0x1
 5873 641f 9AD40000 		.long	0xd49a
 5874 6423 00       		.byte	0
 5875 6424 16       		.uleb128 0x16
 5876 6425 5F543100 		.ascii "_T1\0"
 5877 6429 F7B10000 		.long	0xb1f7
 5878 642d 16       		.uleb128 0x16
 5879 642e 5F543200 		.ascii "_T2\0"
 5880 6432 A8B20000 		.long	0xb2a8
 5881 6436 00       		.byte	0
 5882 6437 07       		.uleb128 0x7
 5883 6438 D4620000 		.long	0x62d4
 5884 643c 28       		.uleb128 0x28
 5885 643d 616C6C6F 		.ascii "allocator<std::pair<char, long int> >\0"
 5885      6361746F 
 5885      723C7374 
 5885      643A3A70 
 5885      6169723C 
 5886 6463 01       		.byte	0x1
 5887 6464 05       		.byte	0x5
 5888 6465 74       		.byte	0x74
 5889 6466 0B       		.byte	0xb
 5890 6467 43650000 		.long	0x6543
 5891 646b 3B       		.uleb128 0x3b
 5892 646c E4A90000 		.long	0xa9e4
 5893 6470 00       		.byte	0
 5894 6471 01       		.byte	0x1
 5895 6472 0F       		.uleb128 0xf
 5896 6473 F2030000 		.secrel32	.LASF47
 5897 6477 05       		.byte	0x5
 5898 6478 90       		.byte	0x90
 5899 6479 07       		.byte	0x7
 5900 647a 5F5A4E53 		.ascii "_ZNSaISt4pairIclEEC4Ev\0"
 5900      61495374 
GAS LISTING C:\Users\Ilya\AppData\Local\Temp\ccxaKDG8.s 			page 163


 5900      34706169 
 5900      7249636C 
 5900      45454334 
 5901 6491 01       		.byte	0x1
 5902 6492 9A640000 		.long	0x649a
 5903 6496 A0640000 		.long	0x64a0
 5904 649a 02       		.uleb128 0x2
 5905 649b ACD40000 		.long	0xd4ac
 5906 649f 00       		.byte	0
 5907 64a0 0F       		.uleb128 0xf
 5908 64a1 F2030000 		.secrel32	.LASF47
 5909 64a5 05       		.byte	0x5
 5910 64a6 93       		.byte	0x93
 5911 64a7 07       		.byte	0x7
 5912 64a8 5F5A4E53 		.ascii "_ZNSaISt4pairIclEEC4ERKS1_\0"
 5912      61495374 
 5912      34706169 
 5912      7249636C 
 5912      45454334 
 5913 64c3 01       		.byte	0x1
 5914 64c4 CC640000 		.long	0x64cc
 5915 64c8 D7640000 		.long	0x64d7
 5916 64cc 02       		.uleb128 0x2
 5917 64cd ACD40000 		.long	0xd4ac
 5918 64d1 01       		.uleb128 0x1
 5919 64d2 B7D40000 		.long	0xd4b7
 5920 64d6 00       		.byte	0
 5921 64d7 3C       		.uleb128 0x3c
 5922 64d8 D8000000 		.secrel32	.LASF12
 5923 64dc 05       		.byte	0x5
 5924 64dd 98       		.byte	0x98
 5925 64de 12       		.byte	0x12
 5926 64df 5F5A4E53 		.ascii "_ZNSaISt4pairIclEEaSERKS1_\0"
 5926      61495374 
 5926      34706169 
 5926      7249636C 
 5926      45456153 
 5927 64fa BDD40000 		.long	0xd4bd
 5928 64fe 01       		.byte	0x1
 5929 64ff 01       		.byte	0x1
 5930 6500 08650000 		.long	0x6508
 5931 6504 13650000 		.long	0x6513
 5932 6508 02       		.uleb128 0x2
 5933 6509 ACD40000 		.long	0xd4ac
 5934 650d 01       		.uleb128 0x1
 5935 650e B7D40000 		.long	0xd4b7
 5936 6512 00       		.byte	0
 5937 6513 56       		.uleb128 0x56
 5938 6514 EE020000 		.secrel32	.LASF48
 5939 6518 05       		.byte	0x5
 5940 6519 A2       		.byte	0xa2
 5941 651a 07       		.byte	0x7
 5942 651b 5F5A4E53 		.ascii "_ZNSaISt4pairIclEED4Ev\0"
 5942      61495374 
 5942      34706169 
 5942      7249636C 
 5942      45454434 
GAS LISTING C:\Users\Ilya\AppData\Local\Temp\ccxaKDG8.s 			page 164


 5943 6532 01       		.byte	0x1
 5944 6533 37650000 		.long	0x6537
 5945 6537 02       		.uleb128 0x2
 5946 6538 ACD40000 		.long	0xd4ac
 5947 653c 02       		.uleb128 0x2
 5948 653d 9CB20000 		.long	0xb29c
 5949 6541 00       		.byte	0
 5950 6542 00       		.byte	0
 5951 6543 07       		.uleb128 0x7
 5952 6544 3C640000 		.long	0x643c
 5953 6548 2E       		.uleb128 0x2e
 5954 6549 616C6C6F 		.ascii "allocator_traits<std::allocator<std::pair<char, long int> > >\0"
 5954      6361746F 
 5954      725F7472 
 5954      61697473 
 5954      3C737464 
 5955 6587 01       		.byte	0x1
 5956 6588 04       		.byte	0x4
 5957 6589 9701     		.word	0x197
 5958 658b 0C       		.byte	0xc
 5959 658c B5670000 		.long	0x67b5
 5960 6590 19       		.uleb128 0x19
 5961 6591 AB000000 		.secrel32	.LASF1
 5962 6595 04       		.byte	0x4
 5963 6596 A001     		.word	0x1a0
 5964 6598 0D       		.byte	0xd
 5965 6599 8ED40000 		.long	0xd48e
 5966 659d 1A       		.uleb128 0x1a
 5967 659e AD040000 		.secrel32	.LASF50
 5968 65a2 04       		.byte	0x4
 5969 65a3 CB01     		.word	0x1cb
 5970 65a5 07       		.byte	0x7
 5971 65a6 5F5A4E53 		.ascii "_ZNSt16allocator_traitsISaISt4pairIclEEE8allocateERS2_y\0"
 5971      74313661 
 5971      6C6C6F63 
 5971      61746F72 
 5971      5F747261 
 5972 65de 90650000 		.long	0x6590
 5973 65e2 F1650000 		.long	0x65f1
 5974 65e6 01       		.uleb128 0x1
 5975 65e7 C3D40000 		.long	0xd4c3
 5976 65eb 01       		.uleb128 0x1
 5977 65ec 03660000 		.long	0x6603
 5978 65f0 00       		.byte	0
 5979 65f1 19       		.uleb128 0x19
 5980 65f2 41040000 		.secrel32	.LASF5
 5981 65f6 04       		.byte	0x4
 5982 65f7 9A01     		.word	0x19a
 5983 65f9 0D       		.byte	0xd
 5984 65fa 3C640000 		.long	0x643c
 5985 65fe 07       		.uleb128 0x7
 5986 65ff F1650000 		.long	0x65f1
 5987 6603 19       		.uleb128 0x19
 5988 6604 B3000000 		.secrel32	.LASF2
 5989 6608 04       		.byte	0x4
 5990 6609 AF01     		.word	0x1af
 5991 660b 0D       		.byte	0xd
GAS LISTING C:\Users\Ilya\AppData\Local\Temp\ccxaKDG8.s 			page 165


 5992 660c 7A510000 		.long	0x517a
 5993 6610 1A       		.uleb128 0x1a
 5994 6611 AD040000 		.secrel32	.LASF50
 5995 6615 04       		.byte	0x4
 5996 6616 D901     		.word	0x1d9
 5997 6618 07       		.byte	0x7
 5998 6619 5F5A4E53 		.ascii "_ZNSt16allocator_traitsISaISt4pairIclEEE8allocateERS2_yPKv\0"
 5998      74313661 
 5998      6C6C6F63 
 5998      61746F72 
 5998      5F747261 
 5999 6654 90650000 		.long	0x6590
 6000 6658 6C660000 		.long	0x666c
 6001 665c 01       		.uleb128 0x1
 6002 665d C3D40000 		.long	0xd4c3
 6003 6661 01       		.uleb128 0x1
 6004 6662 03660000 		.long	0x6603
 6005 6666 01       		.uleb128 0x1
 6006 6667 6C660000 		.long	0x666c
 6007 666b 00       		.byte	0
 6008 666c 19       		.uleb128 0x19
 6009 666d 19040000 		.secrel32	.LASF51
 6010 6671 04       		.byte	0x4
 6011 6672 A901     		.word	0x1a9
 6012 6674 0D       		.byte	0xd
 6013 6675 C4C10000 		.long	0xc1c4
 6014 6679 2B       		.uleb128 0x2b
 6015 667a 1E020000 		.secrel32	.LASF52
 6016 667e 04       		.byte	0x4
 6017 667f EB01     		.word	0x1eb
 6018 6681 07       		.byte	0x7
 6019 6682 5F5A4E53 		.ascii "_ZNSt16allocator_traitsISaISt4pairIclEEE10deallocateERS2_PS1_y\0"
 6019      74313661 
 6019      6C6C6F63 
 6019      61746F72 
 6019      5F747261 
 6020 66c1 D5660000 		.long	0x66d5
 6021 66c5 01       		.uleb128 0x1
 6022 66c6 C3D40000 		.long	0xd4c3
 6023 66ca 01       		.uleb128 0x1
 6024 66cb 90650000 		.long	0x6590
 6025 66cf 01       		.uleb128 0x1
 6026 66d0 03660000 		.long	0x6603
 6027 66d4 00       		.byte	0
 6028 66d5 1A       		.uleb128 0x1a
 6029 66d6 50040000 		.secrel32	.LASF17
 6030 66da 04       		.byte	0x4
 6031 66db 1F02     		.word	0x21f
 6032 66dd 07       		.byte	0x7
 6033 66de 5F5A4E53 		.ascii "_ZNSt16allocator_traitsISaISt4pairIclEEE8max_sizeERKS2_\0"
 6033      74313661 
 6033      6C6C6F63 
 6033      61746F72 
 6033      5F747261 
 6034 6716 03660000 		.long	0x6603
 6035 671a 24670000 		.long	0x6724
 6036 671e 01       		.uleb128 0x1
GAS LISTING C:\Users\Ilya\AppData\Local\Temp\ccxaKDG8.s 			page 166


 6037 671f C9D40000 		.long	0xd4c9
 6038 6723 00       		.byte	0
 6039 6724 1A       		.uleb128 0x1a
 6040 6725 32030000 		.secrel32	.LASF53
 6041 6729 04       		.byte	0x4
 6042 672a 2E02     		.word	0x22e
 6043 672c 07       		.byte	0x7
 6044 672d 5F5A4E53 		.ascii "_ZNSt16allocator_traitsISaISt4pairIclEEE37select_on_container_copy_constructionERKS2_\0"
 6044      74313661 
 6044      6C6C6F63 
 6044      61746F72 
 6044      5F747261 
 6045 6783 F1650000 		.long	0x65f1
 6046 6787 91670000 		.long	0x6791
 6047 678b 01       		.uleb128 0x1
 6048 678c C9D40000 		.long	0xd4c9
 6049 6790 00       		.byte	0
 6050 6791 19       		.uleb128 0x19
 6051 6792 A2040000 		.secrel32	.LASF42
 6052 6796 04       		.byte	0x4
 6053 6797 9D01     		.word	0x19d
 6054 6799 0D       		.byte	0xd
 6055 679a D4620000 		.long	0x62d4
 6056 679e 19       		.uleb128 0x19
 6057 679f D8030000 		.secrel32	.LASF54
 6058 67a3 04       		.byte	0x4
 6059 67a4 BE01     		.word	0x1be
 6060 67a6 08       		.byte	0x8
 6061 67a7 3C640000 		.long	0x643c
 6062 67ab 12       		.uleb128 0x12
 6063 67ac 9B040000 		.secrel32	.LASF40
 6064 67b0 3C640000 		.long	0x643c
 6065 67b4 00       		.byte	0
 6066 67b5 15       		.uleb128 0x15
 6067 67b6 5F566563 		.ascii "_Vector_base<std::pair<char, long int>, std::allocator<std::pair<char, long int> > >\0"
 6067      746F725F 
 6067      62617365 
 6067      3C737464 
 6067      3A3A7061 
 6068 680b 18       		.byte	0x18
 6069 680c 03       		.byte	0x3
 6070 680d 54       		.byte	0x54
 6071 680e 0C       		.byte	0xc
 6072 680f 6F710000 		.long	0x716f
 6073 6813 39       		.uleb128 0x39
 6074 6814 68020000 		.secrel32	.LASF56
 6075 6818 18       		.byte	0x18
 6076 6819 03       		.byte	0x3
 6077 681a 5B       		.byte	0x5b
 6078 681b 0E       		.byte	0xe
 6079 681c F4690000 		.long	0x69f4
 6080 6820 09       		.uleb128 0x9
 6081 6821 5F4D5F73 		.ascii "_M_start\0"
 6081      74617274 
 6081      00
 6082 682a 03       		.byte	0x3
 6083 682b 5D       		.byte	0x5d
GAS LISTING C:\Users\Ilya\AppData\Local\Temp\ccxaKDG8.s 			page 167


 6084 682c 0A       		.byte	0xa
 6085 682d F9690000 		.long	0x69f9
 6086 6831 00       		.byte	0
 6087 6832 09       		.uleb128 0x9
 6088 6833 5F4D5F66 		.ascii "_M_finish\0"
 6088      696E6973 
 6088      6800
 6089 683d 03       		.byte	0x3
 6090 683e 5E       		.byte	0x5e
 6091 683f 0A       		.byte	0xa
 6092 6840 F9690000 		.long	0x69f9
 6093 6844 08       		.byte	0x8
 6094 6845 09       		.uleb128 0x9
 6095 6846 5F4D5F65 		.ascii "_M_end_of_storage\0"
 6095      6E645F6F 
 6095      665F7374 
 6095      6F726167 
 6095      6500
 6096 6858 03       		.byte	0x3
 6097 6859 5F       		.byte	0x5f
 6098 685a 0A       		.byte	0xa
 6099 685b F9690000 		.long	0x69f9
 6100 685f 10       		.byte	0x10
 6101 6860 21       		.uleb128 0x21
 6102 6861 68020000 		.secrel32	.LASF56
 6103 6865 03       		.byte	0x3
 6104 6866 61       		.byte	0x61
 6105 6867 02       		.byte	0x2
 6106 6868 5F5A4E53 		.ascii "_ZNSt12_Vector_baseISt4pairIclESaIS1_EE17_Vector_impl_dataC4Ev\0"
 6106      7431325F 
 6106      56656374 
 6106      6F725F62 
 6106      61736549 
 6107 68a7 AF680000 		.long	0x68af
 6108 68ab B5680000 		.long	0x68b5
 6109 68af 02       		.uleb128 0x2
 6110 68b0 DBD40000 		.long	0xd4db
 6111 68b4 00       		.byte	0
 6112 68b5 21       		.uleb128 0x21
 6113 68b6 68020000 		.secrel32	.LASF56
 6114 68ba 03       		.byte	0x3
 6115 68bb 66       		.byte	0x66
 6116 68bc 02       		.byte	0x2
 6117 68bd 5F5A4E53 		.ascii "_ZNSt12_Vector_baseISt4pairIclESaIS1_EE17_Vector_impl_dataC4EOS4_\0"
 6117      7431325F 
 6117      56656374 
 6117      6F725F62 
 6117      61736549 
 6118 68ff 07690000 		.long	0x6907
 6119 6903 12690000 		.long	0x6912
 6120 6907 02       		.uleb128 0x2
 6121 6908 DBD40000 		.long	0xd4db
 6122 690c 01       		.uleb128 0x1
 6123 690d E1D40000 		.long	0xd4e1
 6124 6911 00       		.byte	0
 6125 6912 23       		.uleb128 0x23
 6126 6913 5F4D5F63 		.ascii "_M_copy_data\0"
GAS LISTING C:\Users\Ilya\AppData\Local\Temp\ccxaKDG8.s 			page 168


 6126      6F70795F 
 6126      64617461 
 6126      00
 6127 6920 03       		.byte	0x3
 6128 6921 6D       		.byte	0x6d
 6129 6922 02       		.byte	0x2
 6130 6923 5F5A4E53 		.ascii "_ZNSt12_Vector_baseISt4pairIclESaIS1_EE17_Vector_impl_data12_M_copy_dataERKS4_\0"
 6130      7431325F 
 6130      56656374 
 6130      6F725F62 
 6130      61736549 
 6131 6972 7A690000 		.long	0x697a
 6132 6976 85690000 		.long	0x6985
 6133 697a 02       		.uleb128 0x2
 6134 697b DBD40000 		.long	0xd4db
 6135 697f 01       		.uleb128 0x1
 6136 6980 E7D40000 		.long	0xd4e7
 6137 6984 00       		.byte	0
 6138 6985 47       		.uleb128 0x47
 6139 6986 5F4D5F73 		.ascii "_M_swap_data\0"
 6139      7761705F 
 6139      64617461 
 6139      00
 6140 6993 03       		.byte	0x3
 6141 6994 75       		.byte	0x75
 6142 6995 02       		.byte	0x2
 6143 6996 5F5A4E53 		.ascii "_ZNSt12_Vector_baseISt4pairIclESaIS1_EE17_Vector_impl_data12_M_swap_dataERS4_\0"
 6143      7431325F 
 6143      56656374 
 6143      6F725F62 
 6143      61736549 
 6144 69e4 E8690000 		.long	0x69e8
 6145 69e8 02       		.uleb128 0x2
 6146 69e9 DBD40000 		.long	0xd4db
 6147 69ed 01       		.uleb128 0x1
 6148 69ee EDD40000 		.long	0xd4ed
 6149 69f2 00       		.byte	0
 6150 69f3 00       		.byte	0
 6151 69f4 07       		.uleb128 0x7
 6152 69f5 13680000 		.long	0x6813
 6153 69f9 10       		.uleb128 0x10
 6154 69fa AB000000 		.secrel32	.LASF1
 6155 69fe 03       		.byte	0x3
 6156 69ff 59       		.byte	0x59
 6157 6a00 09       		.byte	0x9
 6158 6a01 5BB00000 		.long	0xb05b
 6159 6a05 39       		.uleb128 0x39
 6160 6a06 94010000 		.secrel32	.LASF57
 6161 6a0a 18       		.byte	0x18
 6162 6a0b 03       		.byte	0x3
 6163 6a0c 80       		.byte	0x80
 6164 6a0d 0E       		.byte	0xe
 6165 6a0e 316C0000 		.long	0x6c31
 6166 6a12 33       		.uleb128 0x33
 6167 6a13 3C640000 		.long	0x643c
 6168 6a17 00       		.byte	0
 6169 6a18 33       		.uleb128 0x33
GAS LISTING C:\Users\Ilya\AppData\Local\Temp\ccxaKDG8.s 			page 169


 6170 6a19 13680000 		.long	0x6813
 6171 6a1d 00       		.byte	0
 6172 6a1e 21       		.uleb128 0x21
 6173 6a1f 94010000 		.secrel32	.LASF57
 6174 6a23 03       		.byte	0x3
 6175 6a24 83       		.byte	0x83
 6176 6a25 02       		.byte	0x2
 6177 6a26 5F5A4E53 		.ascii "_ZNSt12_Vector_baseISt4pairIclESaIS1_EE12_Vector_implC4Ev\0"
 6177      7431325F 
 6177      56656374 
 6177      6F725F62 
 6177      61736549 
 6178 6a60 686A0000 		.long	0x6a68
 6179 6a64 6E6A0000 		.long	0x6a6e
 6180 6a68 02       		.uleb128 0x2
 6181 6a69 F3D40000 		.long	0xd4f3
 6182 6a6d 00       		.byte	0
 6183 6a6e 21       		.uleb128 0x21
 6184 6a6f 94010000 		.secrel32	.LASF57
 6185 6a73 03       		.byte	0x3
 6186 6a74 88       		.byte	0x88
 6187 6a75 02       		.byte	0x2
 6188 6a76 5F5A4E53 		.ascii "_ZNSt12_Vector_baseISt4pairIclESaIS1_EE12_Vector_implC4ERKS2_\0"
 6188      7431325F 
 6188      56656374 
 6188      6F725F62 
 6188      61736549 
 6189 6ab4 BC6A0000 		.long	0x6abc
 6190 6ab8 C76A0000 		.long	0x6ac7
 6191 6abc 02       		.uleb128 0x2
 6192 6abd F3D40000 		.long	0xd4f3
 6193 6ac1 01       		.uleb128 0x1
 6194 6ac2 FED40000 		.long	0xd4fe
 6195 6ac6 00       		.byte	0
 6196 6ac7 21       		.uleb128 0x21
 6197 6ac8 94010000 		.secrel32	.LASF57
 6198 6acc 03       		.byte	0x3
 6199 6acd 8F       		.byte	0x8f
 6200 6ace 02       		.byte	0x2
 6201 6acf 5F5A4E53 		.ascii "_ZNSt12_Vector_baseISt4pairIclESaIS1_EE12_Vector_implC4EOS4_\0"
 6201      7431325F 
 6201      56656374 
 6201      6F725F62 
 6201      61736549 
 6202 6b0c 146B0000 		.long	0x6b14
 6203 6b10 1F6B0000 		.long	0x6b1f
 6204 6b14 02       		.uleb128 0x2
 6205 6b15 F3D40000 		.long	0xd4f3
 6206 6b19 01       		.uleb128 0x1
 6207 6b1a 04D50000 		.long	0xd504
 6208 6b1e 00       		.byte	0
 6209 6b1f 21       		.uleb128 0x21
 6210 6b20 94010000 		.secrel32	.LASF57
 6211 6b24 03       		.byte	0x3
 6212 6b25 93       		.byte	0x93
 6213 6b26 02       		.byte	0x2
 6214 6b27 5F5A4E53 		.ascii "_ZNSt12_Vector_baseISt4pairIclESaIS1_EE12_Vector_implC4EOS2_\0"
GAS LISTING C:\Users\Ilya\AppData\Local\Temp\ccxaKDG8.s 			page 170


 6214      7431325F 
 6214      56656374 
 6214      6F725F62 
 6214      61736549 
 6215 6b64 6C6B0000 		.long	0x6b6c
 6216 6b68 776B0000 		.long	0x6b77
 6217 6b6c 02       		.uleb128 0x2
 6218 6b6d F3D40000 		.long	0xd4f3
 6219 6b71 01       		.uleb128 0x1
 6220 6b72 0AD50000 		.long	0xd50a
 6221 6b76 00       		.byte	0
 6222 6b77 21       		.uleb128 0x21
 6223 6b78 94010000 		.secrel32	.LASF57
 6224 6b7c 03       		.byte	0x3
 6225 6b7d 97       		.byte	0x97
 6226 6b7e 02       		.byte	0x2
 6227 6b7f 5F5A4E53 		.ascii "_ZNSt12_Vector_baseISt4pairIclESaIS1_EE12_Vector_implC4EOS2_OS4_\0"
 6227      7431325F 
 6227      56656374 
 6227      6F725F62 
 6227      61736549 
 6228 6bc0 C86B0000 		.long	0x6bc8
 6229 6bc4 D86B0000 		.long	0x6bd8
 6230 6bc8 02       		.uleb128 0x2
 6231 6bc9 F3D40000 		.long	0xd4f3
 6232 6bcd 01       		.uleb128 0x1
 6233 6bce 0AD50000 		.long	0xd50a
 6234 6bd2 01       		.uleb128 0x1
 6235 6bd3 04D50000 		.long	0xd504
 6236 6bd7 00       		.byte	0
 6237 6bd8 7A       		.uleb128 0x7a
 6238 6bd9 7E5F5665 		.ascii "~_Vector_impl\0"
 6238      63746F72 
 6238      5F696D70 
 6238      6C00
 6239 6be7 5F5A4E53 		.ascii "_ZNSt12_Vector_baseISt4pairIclESaIS1_EE12_Vector_implD4Ev\0"
 6239      7431325F 
 6239      56656374 
 6239      6F725F62 
 6239      61736549 
 6240 6c21 256C0000 		.long	0x6c25
 6241 6c25 02       		.uleb128 0x2
 6242 6c26 F3D40000 		.long	0xd4f3
 6243 6c2a 02       		.uleb128 0x2
 6244 6c2b 9CB20000 		.long	0xb29c
 6245 6c2f 00       		.byte	0
 6246 6c30 00       		.byte	0
 6247 6c31 10       		.uleb128 0x10
 6248 6c32 3D000000 		.secrel32	.LASF58
 6249 6c36 03       		.byte	0x3
 6250 6c37 57       		.byte	0x57
 6251 6c38 15       		.byte	0x15
 6252 6c39 ABB00000 		.long	0xb0ab
 6253 6c3d 07       		.uleb128 0x7
 6254 6c3e 316C0000 		.long	0x6c31
 6255 6c42 29       		.uleb128 0x29
 6256 6c43 CC010000 		.secrel32	.LASF59
GAS LISTING C:\Users\Ilya\AppData\Local\Temp\ccxaKDG8.s 			page 171


 6257 6c47 03       		.byte	0x3
 6258 6c48 1401     		.word	0x114
 6259 6c4a 07       		.byte	0x7
 6260 6c4b 5F5A4E53 		.ascii "_ZNSt12_Vector_baseISt4pairIclESaIS1_EE19_M_get_Tp_allocatorEv\0"
 6260      7431325F 
 6260      56656374 
 6260      6F725F62 
 6260      61736549 
 6261 6c8a 10D50000 		.long	0xd510
 6262 6c8e 966C0000 		.long	0x6c96
 6263 6c92 9C6C0000 		.long	0x6c9c
 6264 6c96 02       		.uleb128 0x2
 6265 6c97 16D50000 		.long	0xd516
 6266 6c9b 00       		.byte	0
 6267 6c9c 29       		.uleb128 0x29
 6268 6c9d CC010000 		.secrel32	.LASF59
 6269 6ca1 03       		.byte	0x3
 6270 6ca2 1801     		.word	0x118
 6271 6ca4 07       		.byte	0x7
 6272 6ca5 5F5A4E4B 		.ascii "_ZNKSt12_Vector_baseISt4pairIclESaIS1_EE19_M_get_Tp_allocatorEv\0"
 6272      53743132 
 6272      5F566563 
 6272      746F725F 
 6272      62617365 
 6273 6ce5 FED40000 		.long	0xd4fe
 6274 6ce9 F16C0000 		.long	0x6cf1
 6275 6ced F76C0000 		.long	0x6cf7
 6276 6cf1 02       		.uleb128 0x2
 6277 6cf2 21D50000 		.long	0xd521
 6278 6cf6 00       		.byte	0
 6279 6cf7 19       		.uleb128 0x19
 6280 6cf8 41040000 		.secrel32	.LASF5
 6281 6cfc 03       		.byte	0x3
 6282 6cfd 1101     		.word	0x111
 6283 6cff 16       		.byte	0x16
 6284 6d00 3C640000 		.long	0x643c
 6285 6d04 07       		.uleb128 0x7
 6286 6d05 F76C0000 		.long	0x6cf7
 6287 6d09 29       		.uleb128 0x29
 6288 6d0a C0020000 		.secrel32	.LASF33
 6289 6d0e 03       		.byte	0x3
 6290 6d0f 1C01     		.word	0x11c
 6291 6d11 07       		.byte	0x7
 6292 6d12 5F5A4E4B 		.ascii "_ZNKSt12_Vector_baseISt4pairIclESaIS1_EE13get_allocatorEv\0"
 6292      53743132 
 6292      5F566563 
 6292      746F725F 
 6292      62617365 
 6293 6d4c F76C0000 		.long	0x6cf7
 6294 6d50 586D0000 		.long	0x6d58
 6295 6d54 5E6D0000 		.long	0x6d5e
 6296 6d58 02       		.uleb128 0x2
 6297 6d59 21D50000 		.long	0xd521
 6298 6d5d 00       		.byte	0
 6299 6d5e 5B       		.uleb128 0x5b
 6300 6d5f 1F030000 		.secrel32	.LASF60
 6301 6d63 03       		.byte	0x3
GAS LISTING C:\Users\Ilya\AppData\Local\Temp\ccxaKDG8.s 			page 172


 6302 6d64 2001     		.word	0x120
 6303 6d66 07       		.byte	0x7
 6304 6d67 5F5A4E53 		.ascii "_ZNSt12_Vector_baseISt4pairIclESaIS1_EEC4Ev\0"
 6304      7431325F 
 6304      56656374 
 6304      6F725F62 
 6304      61736549 
 6305 6d93 01       		.byte	0x1
 6306 6d94 9C6D0000 		.long	0x6d9c
 6307 6d98 A26D0000 		.long	0x6da2
 6308 6d9c 02       		.uleb128 0x2
 6309 6d9d 16D50000 		.long	0xd516
 6310 6da1 00       		.byte	0
 6311 6da2 20       		.uleb128 0x20
 6312 6da3 1F030000 		.secrel32	.LASF60
 6313 6da7 03       		.byte	0x3
 6314 6da8 2501     		.word	0x125
 6315 6daa 07       		.byte	0x7
 6316 6dab 5F5A4E53 		.ascii "_ZNSt12_Vector_baseISt4pairIclESaIS1_EEC4ERKS2_\0"
 6316      7431325F 
 6316      56656374 
 6316      6F725F62 
 6316      61736549 
 6317 6ddb E36D0000 		.long	0x6de3
 6318 6ddf EE6D0000 		.long	0x6dee
 6319 6de3 02       		.uleb128 0x2
 6320 6de4 16D50000 		.long	0xd516
 6321 6de8 01       		.uleb128 0x1
 6322 6de9 27D50000 		.long	0xd527
 6323 6ded 00       		.byte	0
 6324 6dee 20       		.uleb128 0x20
 6325 6def 1F030000 		.secrel32	.LASF60
 6326 6df3 03       		.byte	0x3
 6327 6df4 2A01     		.word	0x12a
 6328 6df6 07       		.byte	0x7
 6329 6df7 5F5A4E53 		.ascii "_ZNSt12_Vector_baseISt4pairIclESaIS1_EEC4Ey\0"
 6329      7431325F 
 6329      56656374 
 6329      6F725F62 
 6329      61736549 
 6330 6e23 2B6E0000 		.long	0x6e2b
 6331 6e27 366E0000 		.long	0x6e36
 6332 6e2b 02       		.uleb128 0x2
 6333 6e2c 16D50000 		.long	0xd516
 6334 6e30 01       		.uleb128 0x1
 6335 6e31 7A510000 		.long	0x517a
 6336 6e35 00       		.byte	0
 6337 6e36 20       		.uleb128 0x20
 6338 6e37 1F030000 		.secrel32	.LASF60
 6339 6e3b 03       		.byte	0x3
 6340 6e3c 2F01     		.word	0x12f
 6341 6e3e 07       		.byte	0x7
 6342 6e3f 5F5A4E53 		.ascii "_ZNSt12_Vector_baseISt4pairIclESaIS1_EEC4EyRKS2_\0"
 6342      7431325F 
 6342      56656374 
 6342      6F725F62 
 6342      61736549 
GAS LISTING C:\Users\Ilya\AppData\Local\Temp\ccxaKDG8.s 			page 173


 6343 6e70 786E0000 		.long	0x6e78
 6344 6e74 886E0000 		.long	0x6e88
 6345 6e78 02       		.uleb128 0x2
 6346 6e79 16D50000 		.long	0xd516
 6347 6e7d 01       		.uleb128 0x1
 6348 6e7e 7A510000 		.long	0x517a
 6349 6e82 01       		.uleb128 0x1
 6350 6e83 27D50000 		.long	0xd527
 6351 6e87 00       		.byte	0
 6352 6e88 5B       		.uleb128 0x5b
 6353 6e89 1F030000 		.secrel32	.LASF60
 6354 6e8d 03       		.byte	0x3
 6355 6e8e 3401     		.word	0x134
 6356 6e90 07       		.byte	0x7
 6357 6e91 5F5A4E53 		.ascii "_ZNSt12_Vector_baseISt4pairIclESaIS1_EEC4EOS3_\0"
 6357      7431325F 
 6357      56656374 
 6357      6F725F62 
 6357      61736549 
 6358 6ec0 01       		.byte	0x1
 6359 6ec1 C96E0000 		.long	0x6ec9
 6360 6ec5 D46E0000 		.long	0x6ed4
 6361 6ec9 02       		.uleb128 0x2
 6362 6eca 16D50000 		.long	0xd516
 6363 6ece 01       		.uleb128 0x1
 6364 6ecf 2DD50000 		.long	0xd52d
 6365 6ed3 00       		.byte	0
 6366 6ed4 20       		.uleb128 0x20
 6367 6ed5 1F030000 		.secrel32	.LASF60
 6368 6ed9 03       		.byte	0x3
 6369 6eda 3801     		.word	0x138
 6370 6edc 07       		.byte	0x7
 6371 6edd 5F5A4E53 		.ascii "_ZNSt12_Vector_baseISt4pairIclESaIS1_EEC4EOS2_\0"
 6371      7431325F 
 6371      56656374 
 6371      6F725F62 
 6371      61736549 
 6372 6f0c 146F0000 		.long	0x6f14
 6373 6f10 1F6F0000 		.long	0x6f1f
 6374 6f14 02       		.uleb128 0x2
 6375 6f15 16D50000 		.long	0xd516
 6376 6f19 01       		.uleb128 0x1
 6377 6f1a 0AD50000 		.long	0xd50a
 6378 6f1e 00       		.byte	0
 6379 6f1f 20       		.uleb128 0x20
 6380 6f20 1F030000 		.secrel32	.LASF60
 6381 6f24 03       		.byte	0x3
 6382 6f25 3B01     		.word	0x13b
 6383 6f27 07       		.byte	0x7
 6384 6f28 5F5A4E53 		.ascii "_ZNSt12_Vector_baseISt4pairIclESaIS1_EEC4EOS3_RKS2_\0"
 6384      7431325F 
 6384      56656374 
 6384      6F725F62 
 6384      61736549 
 6385 6f5c 646F0000 		.long	0x6f64
 6386 6f60 746F0000 		.long	0x6f74
 6387 6f64 02       		.uleb128 0x2
GAS LISTING C:\Users\Ilya\AppData\Local\Temp\ccxaKDG8.s 			page 174


 6388 6f65 16D50000 		.long	0xd516
 6389 6f69 01       		.uleb128 0x1
 6390 6f6a 2DD50000 		.long	0xd52d
 6391 6f6e 01       		.uleb128 0x1
 6392 6f6f 27D50000 		.long	0xd527
 6393 6f73 00       		.byte	0
 6394 6f74 20       		.uleb128 0x20
 6395 6f75 1F030000 		.secrel32	.LASF60
 6396 6f79 03       		.byte	0x3
 6397 6f7a 4801     		.word	0x148
 6398 6f7c 07       		.byte	0x7
 6399 6f7d 5F5A4E53 		.ascii "_ZNSt12_Vector_baseISt4pairIclESaIS1_EEC4ERKS2_OS3_\0"
 6399      7431325F 
 6399      56656374 
 6399      6F725F62 
 6399      61736549 
 6400 6fb1 B96F0000 		.long	0x6fb9
 6401 6fb5 C96F0000 		.long	0x6fc9
 6402 6fb9 02       		.uleb128 0x2
 6403 6fba 16D50000 		.long	0xd516
 6404 6fbe 01       		.uleb128 0x1
 6405 6fbf 27D50000 		.long	0xd527
 6406 6fc3 01       		.uleb128 0x1
 6407 6fc4 2DD50000 		.long	0xd52d
 6408 6fc8 00       		.byte	0
 6409 6fc9 27       		.uleb128 0x27
 6410 6fca 7E5F5665 		.ascii "~_Vector_base\0"
 6410      63746F72 
 6410      5F626173 
 6410      6500
 6411 6fd8 03       		.byte	0x3
 6412 6fd9 4D01     		.word	0x14d
 6413 6fdb 07       		.byte	0x7
 6414 6fdc 5F5A4E53 		.ascii "_ZNSt12_Vector_baseISt4pairIclESaIS1_EED4Ev\0"
 6414      7431325F 
 6414      56656374 
 6414      6F725F62 
 6414      61736549 
 6415 7008 10700000 		.long	0x7010
 6416 700c 1B700000 		.long	0x701b
 6417 7010 02       		.uleb128 0x2
 6418 7011 16D50000 		.long	0xd516
 6419 7015 02       		.uleb128 0x2
 6420 7016 9CB20000 		.long	0xb29c
 6421 701a 00       		.byte	0
 6422 701b 1D       		.uleb128 0x1d
 6423 701c 5F4D5F69 		.ascii "_M_impl\0"
 6423      6D706C00 
 6424 7024 03       		.byte	0x3
 6425 7025 5401     		.word	0x154
 6426 7027 14       		.byte	0x14
 6427 7028 056A0000 		.long	0x6a05
 6428 702c 00       		.byte	0
 6429 702d 2A       		.uleb128 0x2a
 6430 702e 5F4D5F61 		.ascii "_M_allocate\0"
 6430      6C6C6F63 
 6430      61746500 
GAS LISTING C:\Users\Ilya\AppData\Local\Temp\ccxaKDG8.s 			page 175


 6431 703a 03       		.byte	0x3
 6432 703b 5701     		.word	0x157
 6433 703d 07       		.byte	0x7
 6434 703e 5F5A4E53 		.ascii "_ZNSt12_Vector_baseISt4pairIclESaIS1_EE11_M_allocateEy\0"
 6434      7431325F 
 6434      56656374 
 6434      6F725F62 
 6434      61736549 
 6435 7075 F9690000 		.long	0x69f9
 6436 7079 81700000 		.long	0x7081
 6437 707d 8C700000 		.long	0x708c
 6438 7081 02       		.uleb128 0x2
 6439 7082 16D50000 		.long	0xd516
 6440 7086 01       		.uleb128 0x1
 6441 7087 7A510000 		.long	0x517a
 6442 708b 00       		.byte	0
 6443 708c 27       		.uleb128 0x27
 6444 708d 5F4D5F64 		.ascii "_M_deallocate\0"
 6444      65616C6C 
 6444      6F636174 
 6444      6500
 6445 709b 03       		.byte	0x3
 6446 709c 5E01     		.word	0x15e
 6447 709e 07       		.byte	0x7
 6448 709f 5F5A4E53 		.ascii "_ZNSt12_Vector_baseISt4pairIclESaIS1_EE13_M_deallocateEPS1_y\0"
 6448      7431325F 
 6448      56656374 
 6448      6F725F62 
 6448      61736549 
 6449 70dc E4700000 		.long	0x70e4
 6450 70e0 F4700000 		.long	0x70f4
 6451 70e4 02       		.uleb128 0x2
 6452 70e5 16D50000 		.long	0xd516
 6453 70e9 01       		.uleb128 0x1
 6454 70ea F9690000 		.long	0x69f9
 6455 70ee 01       		.uleb128 0x1
 6456 70ef 7A510000 		.long	0x517a
 6457 70f3 00       		.byte	0
 6458 70f4 17       		.uleb128 0x17
 6459 70f5 5F4D5F63 		.ascii "_M_create_storage\0"
 6459      72656174 
 6459      655F7374 
 6459      6F726167 
 6459      6500
 6460 7107 03       		.byte	0x3
 6461 7108 6701     		.word	0x167
 6462 710a 07       		.byte	0x7
 6463 710b 5F5A4E53 		.ascii "_ZNSt12_Vector_baseISt4pairIclESaIS1_EE17_M_create_storageEy\0"
 6463      7431325F 
 6463      56656374 
 6463      6F725F62 
 6463      61736549 
 6464 7148 02       		.byte	0x2
 6465 7149 51710000 		.long	0x7151
 6466 714d 5C710000 		.long	0x715c
 6467 7151 02       		.uleb128 0x2
 6468 7152 16D50000 		.long	0xd516
GAS LISTING C:\Users\Ilya\AppData\Local\Temp\ccxaKDG8.s 			page 176


 6469 7156 01       		.uleb128 0x1
 6470 7157 7A510000 		.long	0x517a
 6471 715b 00       		.byte	0
 6472 715c 16       		.uleb128 0x16
 6473 715d 5F547000 		.ascii "_Tp\0"
 6474 7161 D4620000 		.long	0x62d4
 6475 7165 12       		.uleb128 0x12
 6476 7166 9B040000 		.secrel32	.LASF40
 6477 716a 3C640000 		.long	0x643c
 6478 716e 00       		.byte	0
 6479 716f 07       		.uleb128 0x7
 6480 7170 B5670000 		.long	0x67b5
 6481 7174 48       		.uleb128 0x48
 6482 7175 76656374 		.ascii "vector<std::pair<char, long int>, std::allocator<std::pair<char, long int> > >\0"
 6482      6F723C73 
 6482      74643A3A 
 6482      70616972 
 6482      3C636861 
 6483 71c4 18       		.byte	0x18
 6484 71c5 03       		.byte	0x3
 6485 71c6 8501     		.word	0x185
 6486 71c8 0B       		.byte	0xb
 6487 71c9 E98E0000 		.long	0x8ee9
 6488 71cd 13       		.uleb128 0x13
 6489 71ce 03       		.byte	0x3
 6490 71cf 8501     		.word	0x185
 6491 71d1 0B       		.byte	0xb
 6492 71d2 2D700000 		.long	0x702d
 6493 71d6 13       		.uleb128 0x13
 6494 71d7 03       		.byte	0x3
 6495 71d8 8501     		.word	0x185
 6496 71da 0B       		.byte	0xb
 6497 71db 8C700000 		.long	0x708c
 6498 71df 13       		.uleb128 0x13
 6499 71e0 03       		.byte	0x3
 6500 71e1 8501     		.word	0x185
 6501 71e3 0B       		.byte	0xb
 6502 71e4 1B700000 		.long	0x701b
 6503 71e8 13       		.uleb128 0x13
 6504 71e9 03       		.byte	0x3
 6505 71ea 8501     		.word	0x185
 6506 71ec 0B       		.byte	0xb
 6507 71ed 9C6C0000 		.long	0x6c9c
 6508 71f1 13       		.uleb128 0x13
 6509 71f2 03       		.byte	0x3
 6510 71f3 8501     		.word	0x185
 6511 71f5 0B       		.byte	0xb
 6512 71f6 426C0000 		.long	0x6c42
 6513 71fa 13       		.uleb128 0x13
 6514 71fb 03       		.byte	0x3
 6515 71fc 8501     		.word	0x185
 6516 71fe 0B       		.byte	0xb
 6517 71ff 096D0000 		.long	0x6d09
 6518 7203 3B       		.uleb128 0x3b
 6519 7204 B5670000 		.long	0x67b5
 6520 7208 00       		.byte	0
 6521 7209 02       		.byte	0x2
GAS LISTING C:\Users\Ilya\AppData\Local\Temp\ccxaKDG8.s 			page 177


 6522 720a 1A       		.uleb128 0x1a
 6523 720b 2B010000 		.secrel32	.LASF61
 6524 720f 03       		.byte	0x3
 6525 7210 AF01     		.word	0x1af
 6526 7212 07       		.byte	0x7
 6527 7213 5F5A4E53 		.ascii "_ZNSt6vectorISt4pairIclESaIS1_EE19_S_nothrow_relocateESt17integral_constantIbLb1EE\0"
 6527      74367665 
 6527      63746F72 
 6527      49537434 
 6527      70616972 
 6528 7266 B0BE0000 		.long	0xbeb0
 6529 726a 74720000 		.long	0x7274
 6530 726e 01       		.uleb128 0x1
 6531 726f EB570000 		.long	0x57eb
 6532 7273 00       		.byte	0
 6533 7274 1A       		.uleb128 0x1a
 6534 7275 2B010000 		.secrel32	.LASF61
 6535 7279 03       		.byte	0x3
 6536 727a B801     		.word	0x1b8
 6537 727c 07       		.byte	0x7
 6538 727d 5F5A4E53 		.ascii "_ZNSt6vectorISt4pairIclESaIS1_EE19_S_nothrow_relocateESt17integral_constantIbLb0EE\0"
 6538      74367665 
 6538      63746F72 
 6538      49537434 
 6538      70616972 
 6539 72d0 B0BE0000 		.long	0xbeb0
 6540 72d4 DE720000 		.long	0x72de
 6541 72d8 01       		.uleb128 0x1
 6542 72d9 67510000 		.long	0x5167
 6543 72dd 00       		.byte	0
 6544 72de 55       		.uleb128 0x55
 6545 72df 5F535F75 		.ascii "_S_use_relocate\0"
 6545      73655F72 
 6545      656C6F63 
 6545      61746500 
 6546 72ef 03       		.byte	0x3
 6547 72f0 BC01     		.word	0x1bc
 6548 72f2 07       		.byte	0x7
 6549 72f3 5F5A4E53 		.ascii "_ZNSt6vectorISt4pairIclESaIS1_EE15_S_use_relocateEv\0"
 6549      74367665 
 6549      63746F72 
 6549      49537434 
 6549      70616972 
 6550 7327 B0BE0000 		.long	0xbeb0
 6551 732b 18       		.uleb128 0x18
 6552 732c AB000000 		.secrel32	.LASF1
 6553 7330 03       		.byte	0x3
 6554 7331 9F01     		.word	0x19f
 6555 7333 29       		.byte	0x29
 6556 7334 F9690000 		.long	0x69f9
 6557 7338 01       		.byte	0x1
 6558 7339 1A       		.uleb128 0x1a
 6559 733a 5F030000 		.secrel32	.LASF62
 6560 733e 03       		.byte	0x3
 6561 733f C501     		.word	0x1c5
 6562 7341 07       		.byte	0x7
 6563 7342 5F5A4E53 		.ascii "_ZNSt6vectorISt4pairIclESaIS1_EE14_S_do_relocateEPS1_S4_S4_RS2_St17integral_constantIbLb1E
GAS LISTING C:\Users\Ilya\AppData\Local\Temp\ccxaKDG8.s 			page 178


 6563      74367665 
 6563      63746F72 
 6563      49537434 
 6563      70616972 
 6564 739e 2B730000 		.long	0x732b
 6565 73a2 C0730000 		.long	0x73c0
 6566 73a6 01       		.uleb128 0x1
 6567 73a7 2B730000 		.long	0x732b
 6568 73ab 01       		.uleb128 0x1
 6569 73ac 2B730000 		.long	0x732b
 6570 73b0 01       		.uleb128 0x1
 6571 73b1 2B730000 		.long	0x732b
 6572 73b5 01       		.uleb128 0x1
 6573 73b6 33D50000 		.long	0xd533
 6574 73ba 01       		.uleb128 0x1
 6575 73bb EB570000 		.long	0x57eb
 6576 73bf 00       		.byte	0
 6577 73c0 19       		.uleb128 0x19
 6578 73c1 3D000000 		.secrel32	.LASF58
 6579 73c5 03       		.byte	0x3
 6580 73c6 9A01     		.word	0x19a
 6581 73c8 2F       		.byte	0x2f
 6582 73c9 316C0000 		.long	0x6c31
 6583 73cd 07       		.uleb128 0x7
 6584 73ce C0730000 		.long	0x73c0
 6585 73d2 1A       		.uleb128 0x1a
 6586 73d3 5F030000 		.secrel32	.LASF62
 6587 73d7 03       		.byte	0x3
 6588 73d8 CC01     		.word	0x1cc
 6589 73da 07       		.byte	0x7
 6590 73db 5F5A4E53 		.ascii "_ZNSt6vectorISt4pairIclESaIS1_EE14_S_do_relocateEPS1_S4_S4_RS2_St17integral_constantIbLb0E
 6590      74367665 
 6590      63746F72 
 6590      49537434 
 6590      70616972 
 6591 7437 2B730000 		.long	0x732b
 6592 743b 59740000 		.long	0x7459
 6593 743f 01       		.uleb128 0x1
 6594 7440 2B730000 		.long	0x732b
 6595 7444 01       		.uleb128 0x1
 6596 7445 2B730000 		.long	0x732b
 6597 7449 01       		.uleb128 0x1
 6598 744a 2B730000 		.long	0x732b
 6599 744e 01       		.uleb128 0x1
 6600 744f 33D50000 		.long	0xd533
 6601 7453 01       		.uleb128 0x1
 6602 7454 67510000 		.long	0x5167
 6603 7458 00       		.byte	0
 6604 7459 1C       		.uleb128 0x1c
 6605 745a 5F535F72 		.ascii "_S_relocate\0"
 6605      656C6F63 
 6605      61746500 
 6606 7466 03       		.byte	0x3
 6607 7467 D101     		.word	0x1d1
 6608 7469 07       		.byte	0x7
 6609 746a 5F5A4E53 		.ascii "_ZNSt6vectorISt4pairIclESaIS1_EE11_S_relocateEPS1_S4_S4_RS2_\0"
 6609      74367665 
GAS LISTING C:\Users\Ilya\AppData\Local\Temp\ccxaKDG8.s 			page 179


 6609      63746F72 
 6609      49537434 
 6609      70616972 
 6610 74a7 2B730000 		.long	0x732b
 6611 74ab C4740000 		.long	0x74c4
 6612 74af 01       		.uleb128 0x1
 6613 74b0 2B730000 		.long	0x732b
 6614 74b4 01       		.uleb128 0x1
 6615 74b5 2B730000 		.long	0x732b
 6616 74b9 01       		.uleb128 0x1
 6617 74ba 2B730000 		.long	0x732b
 6618 74be 01       		.uleb128 0x1
 6619 74bf 33D50000 		.long	0xd533
 6620 74c3 00       		.byte	0
 6621 74c4 5C       		.uleb128 0x5c
 6622 74c5 A4000000 		.secrel32	.LASF63
 6623 74c9 03       		.byte	0x3
 6624 74ca E701     		.word	0x1e7
 6625 74cc 07       		.byte	0x7
 6626 74cd 5F5A4E53 		.ascii "_ZNSt6vectorISt4pairIclESaIS1_EEC4Ev\0"
 6626      74367665 
 6626      63746F72 
 6626      49537434 
 6626      70616972 
 6627 74f2 01       		.byte	0x1
 6628 74f3 01       		.byte	0x1
 6629 74f4 FC740000 		.long	0x74fc
 6630 74f8 02750000 		.long	0x7502
 6631 74fc 02       		.uleb128 0x2
 6632 74fd 39D50000 		.long	0xd539
 6633 7501 00       		.byte	0
 6634 7502 34       		.uleb128 0x34
 6635 7503 A4000000 		.secrel32	.LASF63
 6636 7507 03       		.byte	0x3
 6637 7508 F101     		.word	0x1f1
 6638 750a 07       		.byte	0x7
 6639 750b 5F5A4E53 		.ascii "_ZNSt6vectorISt4pairIclESaIS1_EEC4ERKS2_\0"
 6639      74367665 
 6639      63746F72 
 6639      49537434 
 6639      70616972 
 6640 7534 01       		.byte	0x1
 6641 7535 3D750000 		.long	0x753d
 6642 7539 48750000 		.long	0x7548
 6643 753d 02       		.uleb128 0x2
 6644 753e 39D50000 		.long	0xd539
 6645 7542 01       		.uleb128 0x1
 6646 7543 44D50000 		.long	0xd544
 6647 7547 00       		.byte	0
 6648 7548 18       		.uleb128 0x18
 6649 7549 41040000 		.secrel32	.LASF5
 6650 754d 03       		.byte	0x3
 6651 754e AA01     		.word	0x1aa
 6652 7550 1A       		.byte	0x1a
 6653 7551 3C640000 		.long	0x643c
 6654 7555 01       		.byte	0x1
 6655 7556 07       		.uleb128 0x7
GAS LISTING C:\Users\Ilya\AppData\Local\Temp\ccxaKDG8.s 			page 180


 6656 7557 48750000 		.long	0x7548
 6657 755b 34       		.uleb128 0x34
 6658 755c A4000000 		.secrel32	.LASF63
 6659 7560 03       		.byte	0x3
 6660 7561 FE01     		.word	0x1fe
 6661 7563 07       		.byte	0x7
 6662 7564 5F5A4E53 		.ascii "_ZNSt6vectorISt4pairIclESaIS1_EEC4EyRKS2_\0"
 6662      74367665 
 6662      63746F72 
 6662      49537434 
 6662      70616972 
 6663 758e 01       		.byte	0x1
 6664 758f 97750000 		.long	0x7597
 6665 7593 A7750000 		.long	0x75a7
 6666 7597 02       		.uleb128 0x2
 6667 7598 39D50000 		.long	0xd539
 6668 759c 01       		.uleb128 0x1
 6669 759d A7750000 		.long	0x75a7
 6670 75a1 01       		.uleb128 0x1
 6671 75a2 44D50000 		.long	0xd544
 6672 75a6 00       		.byte	0
 6673 75a7 18       		.uleb128 0x18
 6674 75a8 B3000000 		.secrel32	.LASF2
 6675 75ac 03       		.byte	0x3
 6676 75ad A801     		.word	0x1a8
 6677 75af 1A       		.byte	0x1a
 6678 75b0 7A510000 		.long	0x517a
 6679 75b4 01       		.byte	0x1
 6680 75b5 0C       		.uleb128 0xc
 6681 75b6 A4000000 		.secrel32	.LASF63
 6682 75ba 03       		.byte	0x3
 6683 75bb 0A02     		.word	0x20a
 6684 75bd 07       		.byte	0x7
 6685 75be 5F5A4E53 		.ascii "_ZNSt6vectorISt4pairIclESaIS1_EEC4EyRKS1_RKS2_\0"
 6685      74367665 
 6685      63746F72 
 6685      49537434 
 6685      70616972 
 6686 75ed 01       		.byte	0x1
 6687 75ee F6750000 		.long	0x75f6
 6688 75f2 0B760000 		.long	0x760b
 6689 75f6 02       		.uleb128 0x2
 6690 75f7 39D50000 		.long	0xd539
 6691 75fb 01       		.uleb128 0x1
 6692 75fc A7750000 		.long	0x75a7
 6693 7600 01       		.uleb128 0x1
 6694 7601 4AD50000 		.long	0xd54a
 6695 7605 01       		.uleb128 0x1
 6696 7606 44D50000 		.long	0xd544
 6697 760a 00       		.byte	0
 6698 760b 18       		.uleb128 0x18
 6699 760c A2040000 		.secrel32	.LASF42
 6700 7610 03       		.byte	0x3
 6701 7611 9E01     		.word	0x19e
 6702 7613 17       		.byte	0x17
 6703 7614 D4620000 		.long	0x62d4
 6704 7618 01       		.byte	0x1
GAS LISTING C:\Users\Ilya\AppData\Local\Temp\ccxaKDG8.s 			page 181


 6705 7619 07       		.uleb128 0x7
 6706 761a 0B760000 		.long	0x760b
 6707 761e 0C       		.uleb128 0xc
 6708 761f A4000000 		.secrel32	.LASF63
 6709 7623 03       		.byte	0x3
 6710 7624 2902     		.word	0x229
 6711 7626 07       		.byte	0x7
 6712 7627 5F5A4E53 		.ascii "_ZNSt6vectorISt4pairIclESaIS1_EEC4ERKS3_\0"
 6712      74367665 
 6712      63746F72 
 6712      49537434 
 6712      70616972 
 6713 7650 01       		.byte	0x1
 6714 7651 59760000 		.long	0x7659
 6715 7655 64760000 		.long	0x7664
 6716 7659 02       		.uleb128 0x2
 6717 765a 39D50000 		.long	0xd539
 6718 765e 01       		.uleb128 0x1
 6719 765f 50D50000 		.long	0xd550
 6720 7663 00       		.byte	0
 6721 7664 5C       		.uleb128 0x5c
 6722 7665 A4000000 		.secrel32	.LASF63
 6723 7669 03       		.byte	0x3
 6724 766a 3C02     		.word	0x23c
 6725 766c 07       		.byte	0x7
 6726 766d 5F5A4E53 		.ascii "_ZNSt6vectorISt4pairIclESaIS1_EEC4EOS3_\0"
 6726      74367665 
 6726      63746F72 
 6726      49537434 
 6726      70616972 
 6727 7695 01       		.byte	0x1
 6728 7696 01       		.byte	0x1
 6729 7697 9F760000 		.long	0x769f
 6730 769b AA760000 		.long	0x76aa
 6731 769f 02       		.uleb128 0x2
 6732 76a0 39D50000 		.long	0xd539
 6733 76a4 01       		.uleb128 0x1
 6734 76a5 56D50000 		.long	0xd556
 6735 76a9 00       		.byte	0
 6736 76aa 0C       		.uleb128 0xc
 6737 76ab A4000000 		.secrel32	.LASF63
 6738 76af 03       		.byte	0x3
 6739 76b0 3F02     		.word	0x23f
 6740 76b2 07       		.byte	0x7
 6741 76b3 5F5A4E53 		.ascii "_ZNSt6vectorISt4pairIclESaIS1_EEC4ERKS3_RKS2_\0"
 6741      74367665 
 6741      63746F72 
 6741      49537434 
 6741      70616972 
 6742 76e1 01       		.byte	0x1
 6743 76e2 EA760000 		.long	0x76ea
 6744 76e6 FA760000 		.long	0x76fa
 6745 76ea 02       		.uleb128 0x2
 6746 76eb 39D50000 		.long	0xd539
 6747 76ef 01       		.uleb128 0x1
 6748 76f0 50D50000 		.long	0xd550
 6749 76f4 01       		.uleb128 0x1
GAS LISTING C:\Users\Ilya\AppData\Local\Temp\ccxaKDG8.s 			page 182


 6750 76f5 44D50000 		.long	0xd544
 6751 76f9 00       		.byte	0
 6752 76fa 20       		.uleb128 0x20
 6753 76fb A4000000 		.secrel32	.LASF63
 6754 76ff 03       		.byte	0x3
 6755 7700 4902     		.word	0x249
 6756 7702 07       		.byte	0x7
 6757 7703 5F5A4E53 		.ascii "_ZNSt6vectorISt4pairIclESaIS1_EEC4EOS3_RKS2_St17integral_constantIbLb1EE\0"
 6757      74367665 
 6757      63746F72 
 6757      49537434 
 6757      70616972 
 6758 774c 54770000 		.long	0x7754
 6759 7750 69770000 		.long	0x7769
 6760 7754 02       		.uleb128 0x2
 6761 7755 39D50000 		.long	0xd539
 6762 7759 01       		.uleb128 0x1
 6763 775a 56D50000 		.long	0xd556
 6764 775e 01       		.uleb128 0x1
 6765 775f 44D50000 		.long	0xd544
 6766 7763 01       		.uleb128 0x1
 6767 7764 EB570000 		.long	0x57eb
 6768 7768 00       		.byte	0
 6769 7769 20       		.uleb128 0x20
 6770 776a A4000000 		.secrel32	.LASF63
 6771 776e 03       		.byte	0x3
 6772 776f 4D02     		.word	0x24d
 6773 7771 07       		.byte	0x7
 6774 7772 5F5A4E53 		.ascii "_ZNSt6vectorISt4pairIclESaIS1_EEC4EOS3_RKS2_St17integral_constantIbLb0EE\0"
 6774      74367665 
 6774      63746F72 
 6774      49537434 
 6774      70616972 
 6775 77bb C3770000 		.long	0x77c3
 6776 77bf D8770000 		.long	0x77d8
 6777 77c3 02       		.uleb128 0x2
 6778 77c4 39D50000 		.long	0xd539
 6779 77c8 01       		.uleb128 0x1
 6780 77c9 56D50000 		.long	0xd556
 6781 77cd 01       		.uleb128 0x1
 6782 77ce 44D50000 		.long	0xd544
 6783 77d2 01       		.uleb128 0x1
 6784 77d3 67510000 		.long	0x5167
 6785 77d7 00       		.byte	0
 6786 77d8 0C       		.uleb128 0xc
 6787 77d9 A4000000 		.secrel32	.LASF63
 6788 77dd 03       		.byte	0x3
 6789 77de 5F02     		.word	0x25f
 6790 77e0 07       		.byte	0x7
 6791 77e1 5F5A4E53 		.ascii "_ZNSt6vectorISt4pairIclESaIS1_EEC4EOS3_RKS2_\0"
 6791      74367665 
 6791      63746F72 
 6791      49537434 
 6791      70616972 
 6792 780e 01       		.byte	0x1
 6793 780f 17780000 		.long	0x7817
 6794 7813 27780000 		.long	0x7827
GAS LISTING C:\Users\Ilya\AppData\Local\Temp\ccxaKDG8.s 			page 183


 6795 7817 02       		.uleb128 0x2
 6796 7818 39D50000 		.long	0xd539
 6797 781c 01       		.uleb128 0x1
 6798 781d 56D50000 		.long	0xd556
 6799 7821 01       		.uleb128 0x1
 6800 7822 44D50000 		.long	0xd544
 6801 7826 00       		.byte	0
 6802 7827 0C       		.uleb128 0xc
 6803 7828 A4000000 		.secrel32	.LASF63
 6804 782c 03       		.byte	0x3
 6805 782d 7102     		.word	0x271
 6806 782f 07       		.byte	0x7
 6807 7830 5F5A4E53 		.ascii "_ZNSt6vectorISt4pairIclESaIS1_EEC4ESt16initializer_listIS1_ERKS2_\0"
 6807      74367665 
 6807      63746F72 
 6807      49537434 
 6807      70616972 
 6808 7872 01       		.byte	0x1
 6809 7873 7B780000 		.long	0x787b
 6810 7877 8B780000 		.long	0x788b
 6811 787b 02       		.uleb128 0x2
 6812 787c 39D50000 		.long	0xd539
 6813 7880 01       		.uleb128 0x1
 6814 7881 EE8E0000 		.long	0x8eee
 6815 7885 01       		.uleb128 0x1
 6816 7886 44D50000 		.long	0xd544
 6817 788a 00       		.byte	0
 6818 788b 17       		.uleb128 0x17
 6819 788c 7E766563 		.ascii "~vector\0"
 6819      746F7200 
 6820 7894 03       		.byte	0x3
 6821 7895 A602     		.word	0x2a6
 6822 7897 07       		.byte	0x7
 6823 7898 5F5A4E53 		.ascii "_ZNSt6vectorISt4pairIclESaIS1_EED4Ev\0"
 6823      74367665 
 6823      63746F72 
 6823      49537434 
 6823      70616972 
 6824 78bd 01       		.byte	0x1
 6825 78be C6780000 		.long	0x78c6
 6826 78c2 D1780000 		.long	0x78d1
 6827 78c6 02       		.uleb128 0x2
 6828 78c7 39D50000 		.long	0xd539
 6829 78cb 02       		.uleb128 0x2
 6830 78cc 9CB20000 		.long	0xb29c
 6831 78d0 00       		.byte	0
 6832 78d1 14       		.uleb128 0x14
 6833 78d2 D8000000 		.secrel32	.LASF12
 6834 78d6 1C       		.byte	0x1c
 6835 78d7 C6       		.byte	0xc6
 6836 78d8 05       		.byte	0x5
 6837 78d9 5F5A4E53 		.ascii "_ZNSt6vectorISt4pairIclESaIS1_EEaSERKS3_\0"
 6837      74367665 
 6837      63746F72 
 6837      49537434 
 6837      70616972 
 6838 7902 5CD50000 		.long	0xd55c
GAS LISTING C:\Users\Ilya\AppData\Local\Temp\ccxaKDG8.s 			page 184


 6839 7906 01       		.byte	0x1
 6840 7907 0F790000 		.long	0x790f
 6841 790b 1A790000 		.long	0x791a
 6842 790f 02       		.uleb128 0x2
 6843 7910 39D50000 		.long	0xd539
 6844 7914 01       		.uleb128 0x1
 6845 7915 50D50000 		.long	0xd550
 6846 7919 00       		.byte	0
 6847 791a 04       		.uleb128 0x4
 6848 791b D8000000 		.secrel32	.LASF12
 6849 791f 03       		.byte	0x3
 6850 7920 C502     		.word	0x2c5
 6851 7922 07       		.byte	0x7
 6852 7923 5F5A4E53 		.ascii "_ZNSt6vectorISt4pairIclESaIS1_EEaSEOS3_\0"
 6852      74367665 
 6852      63746F72 
 6852      49537434 
 6852      70616972 
 6853 794b 5CD50000 		.long	0xd55c
 6854 794f 01       		.byte	0x1
 6855 7950 58790000 		.long	0x7958
 6856 7954 63790000 		.long	0x7963
 6857 7958 02       		.uleb128 0x2
 6858 7959 39D50000 		.long	0xd539
 6859 795d 01       		.uleb128 0x1
 6860 795e 56D50000 		.long	0xd556
 6861 7962 00       		.byte	0
 6862 7963 04       		.uleb128 0x4
 6863 7964 D8000000 		.secrel32	.LASF12
 6864 7968 03       		.byte	0x3
 6865 7969 DA02     		.word	0x2da
 6866 796b 07       		.byte	0x7
 6867 796c 5F5A4E53 		.ascii "_ZNSt6vectorISt4pairIclESaIS1_EEaSESt16initializer_listIS1_E\0"
 6867      74367665 
 6867      63746F72 
 6867      49537434 
 6867      70616972 
 6868 79a9 5CD50000 		.long	0xd55c
 6869 79ad 01       		.byte	0x1
 6870 79ae B6790000 		.long	0x79b6
 6871 79b2 C1790000 		.long	0x79c1
 6872 79b6 02       		.uleb128 0x2
 6873 79b7 39D50000 		.long	0xd539
 6874 79bb 01       		.uleb128 0x1
 6875 79bc EE8E0000 		.long	0x8eee
 6876 79c0 00       		.byte	0
 6877 79c1 0C       		.uleb128 0xc
 6878 79c2 E0010000 		.secrel32	.LASF28
 6879 79c6 03       		.byte	0x3
 6880 79c7 ED02     		.word	0x2ed
 6881 79c9 07       		.byte	0x7
 6882 79ca 5F5A4E53 		.ascii "_ZNSt6vectorISt4pairIclESaIS1_EE6assignEyRKS1_\0"
 6882      74367665 
 6882      63746F72 
 6882      49537434 
 6882      70616972 
 6883 79f9 01       		.byte	0x1
GAS LISTING C:\Users\Ilya\AppData\Local\Temp\ccxaKDG8.s 			page 185


 6884 79fa 027A0000 		.long	0x7a02
 6885 79fe 127A0000 		.long	0x7a12
 6886 7a02 02       		.uleb128 0x2
 6887 7a03 39D50000 		.long	0xd539
 6888 7a07 01       		.uleb128 0x1
 6889 7a08 A7750000 		.long	0x75a7
 6890 7a0c 01       		.uleb128 0x1
 6891 7a0d 4AD50000 		.long	0xd54a
 6892 7a11 00       		.byte	0
 6893 7a12 0C       		.uleb128 0xc
 6894 7a13 E0010000 		.secrel32	.LASF28
 6895 7a17 03       		.byte	0x3
 6896 7a18 1A03     		.word	0x31a
 6897 7a1a 07       		.byte	0x7
 6898 7a1b 5F5A4E53 		.ascii "_ZNSt6vectorISt4pairIclESaIS1_EE6assignESt16initializer_listIS1_E\0"
 6898      74367665 
 6898      63746F72 
 6898      49537434 
 6898      70616972 
 6899 7a5d 01       		.byte	0x1
 6900 7a5e 667A0000 		.long	0x7a66
 6901 7a62 717A0000 		.long	0x7a71
 6902 7a66 02       		.uleb128 0x2
 6903 7a67 39D50000 		.long	0xd539
 6904 7a6b 01       		.uleb128 0x1
 6905 7a6c EE8E0000 		.long	0x8eee
 6906 7a70 00       		.byte	0
 6907 7a71 18       		.uleb128 0x18
 6908 7a72 CE020000 		.secrel32	.LASF8
 6909 7a76 03       		.byte	0x3
 6910 7a77 A301     		.word	0x1a3
 6911 7a79 3D       		.byte	0x3d
 6912 7a7a CDB00000 		.long	0xb0cd
 6913 7a7e 01       		.byte	0x1
 6914 7a7f 04       		.uleb128 0x4
 6915 7a80 B8010000 		.secrel32	.LASF13
 6916 7a84 03       		.byte	0x3
 6917 7a85 2B03     		.word	0x32b
 6918 7a87 07       		.byte	0x7
 6919 7a88 5F5A4E53 		.ascii "_ZNSt6vectorISt4pairIclESaIS1_EE5beginEv\0"
 6919      74367665 
 6919      63746F72 
 6919      49537434 
 6919      70616972 
 6920 7ab1 717A0000 		.long	0x7a71
 6921 7ab5 01       		.byte	0x1
 6922 7ab6 BE7A0000 		.long	0x7abe
 6923 7aba C47A0000 		.long	0x7ac4
 6924 7abe 02       		.uleb128 0x2
 6925 7abf 39D50000 		.long	0xd539
 6926 7ac3 00       		.byte	0
 6927 7ac4 18       		.uleb128 0x18
 6928 7ac5 4E010000 		.secrel32	.LASF9
 6929 7ac9 03       		.byte	0x3
 6930 7aca A501     		.word	0x1a5
 6931 7acc 07       		.byte	0x7
 6932 7acd 52B10000 		.long	0xb152
GAS LISTING C:\Users\Ilya\AppData\Local\Temp\ccxaKDG8.s 			page 186


 6933 7ad1 01       		.byte	0x1
 6934 7ad2 04       		.uleb128 0x4
 6935 7ad3 B8010000 		.secrel32	.LASF13
 6936 7ad7 03       		.byte	0x3
 6937 7ad8 3403     		.word	0x334
 6938 7ada 07       		.byte	0x7
 6939 7adb 5F5A4E4B 		.ascii "_ZNKSt6vectorISt4pairIclESaIS1_EE5beginEv\0"
 6939      53743676 
 6939      6563746F 
 6939      72495374 
 6939      34706169 
 6940 7b05 C47A0000 		.long	0x7ac4
 6941 7b09 01       		.byte	0x1
 6942 7b0a 127B0000 		.long	0x7b12
 6943 7b0e 187B0000 		.long	0x7b18
 6944 7b12 02       		.uleb128 0x2
 6945 7b13 62D50000 		.long	0xd562
 6946 7b17 00       		.byte	0
 6947 7b18 0B       		.uleb128 0xb
 6948 7b19 656E6400 		.ascii "end\0"
 6949 7b1d 03       		.byte	0x3
 6950 7b1e 3D03     		.word	0x33d
 6951 7b20 07       		.byte	0x7
 6952 7b21 5F5A4E53 		.ascii "_ZNSt6vectorISt4pairIclESaIS1_EE3endEv\0"
 6952      74367665 
 6952      63746F72 
 6952      49537434 
 6952      70616972 
 6953 7b48 717A0000 		.long	0x7a71
 6954 7b4c 01       		.byte	0x1
 6955 7b4d 557B0000 		.long	0x7b55
 6956 7b51 5B7B0000 		.long	0x7b5b
 6957 7b55 02       		.uleb128 0x2
 6958 7b56 39D50000 		.long	0xd539
 6959 7b5a 00       		.byte	0
 6960 7b5b 0B       		.uleb128 0xb
 6961 7b5c 656E6400 		.ascii "end\0"
 6962 7b60 03       		.byte	0x3
 6963 7b61 4603     		.word	0x346
 6964 7b63 07       		.byte	0x7
 6965 7b64 5F5A4E4B 		.ascii "_ZNKSt6vectorISt4pairIclESaIS1_EE3endEv\0"
 6965      53743676 
 6965      6563746F 
 6965      72495374 
 6965      34706169 
 6966 7b8c C47A0000 		.long	0x7ac4
 6967 7b90 01       		.byte	0x1
 6968 7b91 997B0000 		.long	0x7b99
 6969 7b95 9F7B0000 		.long	0x7b9f
 6970 7b99 02       		.uleb128 0x2
 6971 7b9a 62D50000 		.long	0xd562
 6972 7b9e 00       		.byte	0
 6973 7b9f 18       		.uleb128 0x18
 6974 7ba0 0D020000 		.secrel32	.LASF14
 6975 7ba4 03       		.byte	0x3
 6976 7ba5 A701     		.word	0x1a7
 6977 7ba7 30       		.byte	0x30
GAS LISTING C:\Users\Ilya\AppData\Local\Temp\ccxaKDG8.s 			page 187


 6978 7ba8 1C8F0000 		.long	0x8f1c
 6979 7bac 01       		.byte	0x1
 6980 7bad 04       		.uleb128 0x4
 6981 7bae A8030000 		.secrel32	.LASF15
 6982 7bb2 03       		.byte	0x3
 6983 7bb3 4F03     		.word	0x34f
 6984 7bb5 07       		.byte	0x7
 6985 7bb6 5F5A4E53 		.ascii "_ZNSt6vectorISt4pairIclESaIS1_EE6rbeginEv\0"
 6985      74367665 
 6985      63746F72 
 6985      49537434 
 6985      70616972 
 6986 7be0 9F7B0000 		.long	0x7b9f
 6987 7be4 01       		.byte	0x1
 6988 7be5 ED7B0000 		.long	0x7bed
 6989 7be9 F37B0000 		.long	0x7bf3
 6990 7bed 02       		.uleb128 0x2
 6991 7bee 39D50000 		.long	0xd539
 6992 7bf2 00       		.byte	0
 6993 7bf3 18       		.uleb128 0x18
 6994 7bf4 D7020000 		.secrel32	.LASF16
 6995 7bf8 03       		.byte	0x3
 6996 7bf9 A601     		.word	0x1a6
 6997 7bfb 35       		.byte	0x35
 6998 7bfc BF8F0000 		.long	0x8fbf
 6999 7c00 01       		.byte	0x1
 7000 7c01 04       		.uleb128 0x4
 7001 7c02 A8030000 		.secrel32	.LASF15
 7002 7c06 03       		.byte	0x3
 7003 7c07 5803     		.word	0x358
 7004 7c09 07       		.byte	0x7
 7005 7c0a 5F5A4E4B 		.ascii "_ZNKSt6vectorISt4pairIclESaIS1_EE6rbeginEv\0"
 7005      53743676 
 7005      6563746F 
 7005      72495374 
 7005      34706169 
 7006 7c35 F37B0000 		.long	0x7bf3
 7007 7c39 01       		.byte	0x1
 7008 7c3a 427C0000 		.long	0x7c42
 7009 7c3e 487C0000 		.long	0x7c48
 7010 7c42 02       		.uleb128 0x2
 7011 7c43 62D50000 		.long	0xd562
 7012 7c47 00       		.byte	0
 7013 7c48 0B       		.uleb128 0xb
 7014 7c49 72656E64 		.ascii "rend\0"
 7014      00
 7015 7c4e 03       		.byte	0x3
 7016 7c4f 6103     		.word	0x361
 7017 7c51 07       		.byte	0x7
 7018 7c52 5F5A4E53 		.ascii "_ZNSt6vectorISt4pairIclESaIS1_EE4rendEv\0"
 7018      74367665 
 7018      63746F72 
 7018      49537434 
 7018      70616972 
 7019 7c7a 9F7B0000 		.long	0x7b9f
 7020 7c7e 01       		.byte	0x1
 7021 7c7f 877C0000 		.long	0x7c87
GAS LISTING C:\Users\Ilya\AppData\Local\Temp\ccxaKDG8.s 			page 188


 7022 7c83 8D7C0000 		.long	0x7c8d
 7023 7c87 02       		.uleb128 0x2
 7024 7c88 39D50000 		.long	0xd539
 7025 7c8c 00       		.byte	0
 7026 7c8d 0B       		.uleb128 0xb
 7027 7c8e 72656E64 		.ascii "rend\0"
 7027      00
 7028 7c93 03       		.byte	0x3
 7029 7c94 6A03     		.word	0x36a
 7030 7c96 07       		.byte	0x7
 7031 7c97 5F5A4E4B 		.ascii "_ZNKSt6vectorISt4pairIclESaIS1_EE4rendEv\0"
 7031      53743676 
 7031      6563746F 
 7031      72495374 
 7031      34706169 
 7032 7cc0 F37B0000 		.long	0x7bf3
 7033 7cc4 01       		.byte	0x1
 7034 7cc5 CD7C0000 		.long	0x7ccd
 7035 7cc9 D37C0000 		.long	0x7cd3
 7036 7ccd 02       		.uleb128 0x2
 7037 7cce 62D50000 		.long	0xd562
 7038 7cd2 00       		.byte	0
 7039 7cd3 0B       		.uleb128 0xb
 7040 7cd4 63626567 		.ascii "cbegin\0"
 7040      696E00
 7041 7cdb 03       		.byte	0x3
 7042 7cdc 7403     		.word	0x374
 7043 7cde 07       		.byte	0x7
 7044 7cdf 5F5A4E4B 		.ascii "_ZNKSt6vectorISt4pairIclESaIS1_EE6cbeginEv\0"
 7044      53743676 
 7044      6563746F 
 7044      72495374 
 7044      34706169 
 7045 7d0a C47A0000 		.long	0x7ac4
 7046 7d0e 01       		.byte	0x1
 7047 7d0f 177D0000 		.long	0x7d17
 7048 7d13 1D7D0000 		.long	0x7d1d
 7049 7d17 02       		.uleb128 0x2
 7050 7d18 62D50000 		.long	0xd562
 7051 7d1c 00       		.byte	0
 7052 7d1d 0B       		.uleb128 0xb
 7053 7d1e 63656E64 		.ascii "cend\0"
 7053      00
 7054 7d23 03       		.byte	0x3
 7055 7d24 7D03     		.word	0x37d
 7056 7d26 07       		.byte	0x7
 7057 7d27 5F5A4E4B 		.ascii "_ZNKSt6vectorISt4pairIclESaIS1_EE4cendEv\0"
 7057      53743676 
 7057      6563746F 
 7057      72495374 
 7057      34706169 
 7058 7d50 C47A0000 		.long	0x7ac4
 7059 7d54 01       		.byte	0x1
 7060 7d55 5D7D0000 		.long	0x7d5d
 7061 7d59 637D0000 		.long	0x7d63
 7062 7d5d 02       		.uleb128 0x2
 7063 7d5e 62D50000 		.long	0xd562
GAS LISTING C:\Users\Ilya\AppData\Local\Temp\ccxaKDG8.s 			page 189


 7064 7d62 00       		.byte	0
 7065 7d63 0B       		.uleb128 0xb
 7066 7d64 63726265 		.ascii "crbegin\0"
 7066      67696E00 
 7067 7d6c 03       		.byte	0x3
 7068 7d6d 8603     		.word	0x386
 7069 7d6f 07       		.byte	0x7
 7070 7d70 5F5A4E4B 		.ascii "_ZNKSt6vectorISt4pairIclESaIS1_EE7crbeginEv\0"
 7070      53743676 
 7070      6563746F 
 7070      72495374 
 7070      34706169 
 7071 7d9c F37B0000 		.long	0x7bf3
 7072 7da0 01       		.byte	0x1
 7073 7da1 A97D0000 		.long	0x7da9
 7074 7da5 AF7D0000 		.long	0x7daf
 7075 7da9 02       		.uleb128 0x2
 7076 7daa 62D50000 		.long	0xd562
 7077 7dae 00       		.byte	0
 7078 7daf 0B       		.uleb128 0xb
 7079 7db0 6372656E 		.ascii "crend\0"
 7079      6400
 7080 7db6 03       		.byte	0x3
 7081 7db7 8F03     		.word	0x38f
 7082 7db9 07       		.byte	0x7
 7083 7dba 5F5A4E4B 		.ascii "_ZNKSt6vectorISt4pairIclESaIS1_EE5crendEv\0"
 7083      53743676 
 7083      6563746F 
 7083      72495374 
 7083      34706169 
 7084 7de4 F37B0000 		.long	0x7bf3
 7085 7de8 01       		.byte	0x1
 7086 7de9 F17D0000 		.long	0x7df1
 7087 7ded F77D0000 		.long	0x7df7
 7088 7df1 02       		.uleb128 0x2
 7089 7df2 62D50000 		.long	0xd562
 7090 7df6 00       		.byte	0
 7091 7df7 0B       		.uleb128 0xb
 7092 7df8 73697A65 		.ascii "size\0"
 7092      00
 7093 7dfd 03       		.byte	0x3
 7094 7dfe 9603     		.word	0x396
 7095 7e00 07       		.byte	0x7
 7096 7e01 5F5A4E4B 		.ascii "_ZNKSt6vectorISt4pairIclESaIS1_EE4sizeEv\0"
 7096      53743676 
 7096      6563746F 
 7096      72495374 
 7096      34706169 
 7097 7e2a A7750000 		.long	0x75a7
 7098 7e2e 01       		.byte	0x1
 7099 7e2f 377E0000 		.long	0x7e37
 7100 7e33 3D7E0000 		.long	0x7e3d
 7101 7e37 02       		.uleb128 0x2
 7102 7e38 62D50000 		.long	0xd562
 7103 7e3c 00       		.byte	0
 7104 7e3d 04       		.uleb128 0x4
 7105 7e3e 50040000 		.secrel32	.LASF17
GAS LISTING C:\Users\Ilya\AppData\Local\Temp\ccxaKDG8.s 			page 190


 7106 7e42 03       		.byte	0x3
 7107 7e43 9B03     		.word	0x39b
 7108 7e45 07       		.byte	0x7
 7109 7e46 5F5A4E4B 		.ascii "_ZNKSt6vectorISt4pairIclESaIS1_EE8max_sizeEv\0"
 7109      53743676 
 7109      6563746F 
 7109      72495374 
 7109      34706169 
 7110 7e73 A7750000 		.long	0x75a7
 7111 7e77 01       		.byte	0x1
 7112 7e78 807E0000 		.long	0x7e80
 7113 7e7c 867E0000 		.long	0x7e86
 7114 7e80 02       		.uleb128 0x2
 7115 7e81 62D50000 		.long	0xd562
 7116 7e85 00       		.byte	0
 7117 7e86 0C       		.uleb128 0xc
 7118 7e87 94040000 		.secrel32	.LASF18
 7119 7e8b 03       		.byte	0x3
 7120 7e8c A903     		.word	0x3a9
 7121 7e8e 07       		.byte	0x7
 7122 7e8f 5F5A4E53 		.ascii "_ZNSt6vectorISt4pairIclESaIS1_EE6resizeEy\0"
 7122      74367665 
 7122      63746F72 
 7122      49537434 
 7122      70616972 
 7123 7eb9 01       		.byte	0x1
 7124 7eba C27E0000 		.long	0x7ec2
 7125 7ebe CD7E0000 		.long	0x7ecd
 7126 7ec2 02       		.uleb128 0x2
 7127 7ec3 39D50000 		.long	0xd539
 7128 7ec7 01       		.uleb128 0x1
 7129 7ec8 A7750000 		.long	0x75a7
 7130 7ecc 00       		.byte	0
 7131 7ecd 0C       		.uleb128 0xc
 7132 7ece 94040000 		.secrel32	.LASF18
 7133 7ed2 03       		.byte	0x3
 7134 7ed3 BD03     		.word	0x3bd
 7135 7ed5 07       		.byte	0x7
 7136 7ed6 5F5A4E53 		.ascii "_ZNSt6vectorISt4pairIclESaIS1_EE6resizeEyRKS1_\0"
 7136      74367665 
 7136      63746F72 
 7136      49537434 
 7136      70616972 
 7137 7f05 01       		.byte	0x1
 7138 7f06 0E7F0000 		.long	0x7f0e
 7139 7f0a 1E7F0000 		.long	0x7f1e
 7140 7f0e 02       		.uleb128 0x2
 7141 7f0f 39D50000 		.long	0xd539
 7142 7f13 01       		.uleb128 0x1
 7143 7f14 A7750000 		.long	0x75a7
 7144 7f18 01       		.uleb128 0x1
 7145 7f19 4AD50000 		.long	0xd54a
 7146 7f1d 00       		.byte	0
 7147 7f1e 0C       		.uleb128 0xc
 7148 7f1f BE010000 		.secrel32	.LASF19
 7149 7f23 03       		.byte	0x3
 7150 7f24 DD03     		.word	0x3dd
GAS LISTING C:\Users\Ilya\AppData\Local\Temp\ccxaKDG8.s 			page 191


 7151 7f26 07       		.byte	0x7
 7152 7f27 5F5A4E53 		.ascii "_ZNSt6vectorISt4pairIclESaIS1_EE13shrink_to_fitEv\0"
 7152      74367665 
 7152      63746F72 
 7152      49537434 
 7152      70616972 
 7153 7f59 01       		.byte	0x1
 7154 7f5a 627F0000 		.long	0x7f62
 7155 7f5e 687F0000 		.long	0x7f68
 7156 7f62 02       		.uleb128 0x2
 7157 7f63 39D50000 		.long	0xd539
 7158 7f67 00       		.byte	0
 7159 7f68 04       		.uleb128 0x4
 7160 7f69 00000000 		.secrel32	.LASF20
 7161 7f6d 03       		.byte	0x3
 7162 7f6e E603     		.word	0x3e6
 7163 7f70 07       		.byte	0x7
 7164 7f71 5F5A4E4B 		.ascii "_ZNKSt6vectorISt4pairIclESaIS1_EE8capacityEv\0"
 7164      53743676 
 7164      6563746F 
 7164      72495374 
 7164      34706169 
 7165 7f9e A7750000 		.long	0x75a7
 7166 7fa2 01       		.byte	0x1
 7167 7fa3 AB7F0000 		.long	0x7fab
 7168 7fa7 B17F0000 		.long	0x7fb1
 7169 7fab 02       		.uleb128 0x2
 7170 7fac 62D50000 		.long	0xd562
 7171 7fb0 00       		.byte	0
 7172 7fb1 0B       		.uleb128 0xb
 7173 7fb2 656D7074 		.ascii "empty\0"
 7173      7900
 7174 7fb8 03       		.byte	0x3
 7175 7fb9 EF03     		.word	0x3ef
 7176 7fbb 07       		.byte	0x7
 7177 7fbc 5F5A4E4B 		.ascii "_ZNKSt6vectorISt4pairIclESaIS1_EE5emptyEv\0"
 7177      53743676 
 7177      6563746F 
 7177      72495374 
 7177      34706169 
 7178 7fe6 B0BE0000 		.long	0xbeb0
 7179 7fea 01       		.byte	0x1
 7180 7feb F37F0000 		.long	0x7ff3
 7181 7fef F97F0000 		.long	0x7ff9
 7182 7ff3 02       		.uleb128 0x2
 7183 7ff4 62D50000 		.long	0xd562
 7184 7ff8 00       		.byte	0
 7185 7ff9 35       		.uleb128 0x35
 7186 7ffa 72657365 		.ascii "reserve\0"
 7186      72766500 
 7187 8002 1C       		.byte	0x1c
 7188 8003 42       		.byte	0x42
 7189 8004 05       		.byte	0x5
 7190 8005 5F5A4E53 		.ascii "_ZNSt6vectorISt4pairIclESaIS1_EE7reserveEy\0"
 7190      74367665 
 7190      63746F72 
 7190      49537434 
GAS LISTING C:\Users\Ilya\AppData\Local\Temp\ccxaKDG8.s 			page 192


 7190      70616972 
 7191 8030 01       		.byte	0x1
 7192 8031 39800000 		.long	0x8039
 7193 8035 44800000 		.long	0x8044
 7194 8039 02       		.uleb128 0x2
 7195 803a 39D50000 		.long	0xd539
 7196 803e 01       		.uleb128 0x1
 7197 803f A7750000 		.long	0x75a7
 7198 8043 00       		.byte	0
 7199 8044 18       		.uleb128 0x18
 7200 8045 45020000 		.secrel32	.LASF23
 7201 8049 03       		.byte	0x3
 7202 804a A101     		.word	0x1a1
 7203 804c 32       		.byte	0x32
 7204 804d 67B00000 		.long	0xb067
 7205 8051 01       		.byte	0x1
 7206 8052 04       		.uleb128 0x4
 7207 8053 65040000 		.secrel32	.LASF22
 7208 8057 03       		.byte	0x3
 7209 8058 1304     		.word	0x413
 7210 805a 07       		.byte	0x7
 7211 805b 5F5A4E53 		.ascii "_ZNSt6vectorISt4pairIclESaIS1_EEixEy\0"
 7211      74367665 
 7211      63746F72 
 7211      49537434 
 7211      70616972 
 7212 8080 44800000 		.long	0x8044
 7213 8084 01       		.byte	0x1
 7214 8085 8D800000 		.long	0x808d
 7215 8089 98800000 		.long	0x8098
 7216 808d 02       		.uleb128 0x2
 7217 808e 39D50000 		.long	0xd539
 7218 8092 01       		.uleb128 0x1
 7219 8093 A7750000 		.long	0x75a7
 7220 8097 00       		.byte	0
 7221 8098 18       		.uleb128 0x18
 7222 8099 B0020000 		.secrel32	.LASF21
 7223 809d 03       		.byte	0x3
 7224 809e A201     		.word	0x1a2
 7225 80a0 37       		.byte	0x37
 7226 80a1 73B00000 		.long	0xb073
 7227 80a5 01       		.byte	0x1
 7228 80a6 04       		.uleb128 0x4
 7229 80a7 65040000 		.secrel32	.LASF22
 7230 80ab 03       		.byte	0x3
 7231 80ac 2504     		.word	0x425
 7232 80ae 07       		.byte	0x7
 7233 80af 5F5A4E4B 		.ascii "_ZNKSt6vectorISt4pairIclESaIS1_EEixEy\0"
 7233      53743676 
 7233      6563746F 
 7233      72495374 
 7233      34706169 
 7234 80d5 98800000 		.long	0x8098
 7235 80d9 01       		.byte	0x1
 7236 80da E2800000 		.long	0x80e2
 7237 80de ED800000 		.long	0x80ed
 7238 80e2 02       		.uleb128 0x2
GAS LISTING C:\Users\Ilya\AppData\Local\Temp\ccxaKDG8.s 			page 193


 7239 80e3 62D50000 		.long	0xd562
 7240 80e7 01       		.uleb128 0x1
 7241 80e8 A7750000 		.long	0x75a7
 7242 80ec 00       		.byte	0
 7243 80ed 17       		.uleb128 0x17
 7244 80ee 5F4D5F72 		.ascii "_M_range_check\0"
 7244      616E6765 
 7244      5F636865 
 7244      636B00
 7245 80fd 03       		.byte	0x3
 7246 80fe 2E04     		.word	0x42e
 7247 8100 07       		.byte	0x7
 7248 8101 5F5A4E4B 		.ascii "_ZNKSt6vectorISt4pairIclESaIS1_EE14_M_range_checkEy\0"
 7248      53743676 
 7248      6563746F 
 7248      72495374 
 7248      34706169 
 7249 8135 02       		.byte	0x2
 7250 8136 3E810000 		.long	0x813e
 7251 813a 49810000 		.long	0x8149
 7252 813e 02       		.uleb128 0x2
 7253 813f 62D50000 		.long	0xd562
 7254 8143 01       		.uleb128 0x1
 7255 8144 A7750000 		.long	0x75a7
 7256 8148 00       		.byte	0
 7257 8149 0B       		.uleb128 0xb
 7258 814a 617400   		.ascii "at\0"
 7259 814d 03       		.byte	0x3
 7260 814e 4404     		.word	0x444
 7261 8150 07       		.byte	0x7
 7262 8151 5F5A4E53 		.ascii "_ZNSt6vectorISt4pairIclESaIS1_EE2atEy\0"
 7262      74367665 
 7262      63746F72 
 7262      49537434 
 7262      70616972 
 7263 8177 44800000 		.long	0x8044
 7264 817b 01       		.byte	0x1
 7265 817c 84810000 		.long	0x8184
 7266 8180 8F810000 		.long	0x818f
 7267 8184 02       		.uleb128 0x2
 7268 8185 39D50000 		.long	0xd539
 7269 8189 01       		.uleb128 0x1
 7270 818a A7750000 		.long	0x75a7
 7271 818e 00       		.byte	0
 7272 818f 0B       		.uleb128 0xb
 7273 8190 617400   		.ascii "at\0"
 7274 8193 03       		.byte	0x3
 7275 8194 5604     		.word	0x456
 7276 8196 07       		.byte	0x7
 7277 8197 5F5A4E4B 		.ascii "_ZNKSt6vectorISt4pairIclESaIS1_EE2atEy\0"
 7277      53743676 
 7277      6563746F 
 7277      72495374 
 7277      34706169 
 7278 81be 98800000 		.long	0x8098
 7279 81c2 01       		.byte	0x1
 7280 81c3 CB810000 		.long	0x81cb
GAS LISTING C:\Users\Ilya\AppData\Local\Temp\ccxaKDG8.s 			page 194


 7281 81c7 D6810000 		.long	0x81d6
 7282 81cb 02       		.uleb128 0x2
 7283 81cc 62D50000 		.long	0xd562
 7284 81d0 01       		.uleb128 0x1
 7285 81d1 A7750000 		.long	0x75a7
 7286 81d5 00       		.byte	0
 7287 81d6 04       		.uleb128 0x4
 7288 81d7 2C030000 		.secrel32	.LASF24
 7289 81db 03       		.byte	0x3
 7290 81dc 6104     		.word	0x461
 7291 81de 07       		.byte	0x7
 7292 81df 5F5A4E53 		.ascii "_ZNSt6vectorISt4pairIclESaIS1_EE5frontEv\0"
 7292      74367665 
 7292      63746F72 
 7292      49537434 
 7292      70616972 
 7293 8208 44800000 		.long	0x8044
 7294 820c 01       		.byte	0x1
 7295 820d 15820000 		.long	0x8215
 7296 8211 1B820000 		.long	0x821b
 7297 8215 02       		.uleb128 0x2
 7298 8216 39D50000 		.long	0xd539
 7299 821a 00       		.byte	0
 7300 821b 04       		.uleb128 0x4
 7301 821c 2C030000 		.secrel32	.LASF24
 7302 8220 03       		.byte	0x3
 7303 8221 6C04     		.word	0x46c
 7304 8223 07       		.byte	0x7
 7305 8224 5F5A4E4B 		.ascii "_ZNKSt6vectorISt4pairIclESaIS1_EE5frontEv\0"
 7305      53743676 
 7305      6563746F 
 7305      72495374 
 7305      34706169 
 7306 824e 98800000 		.long	0x8098
 7307 8252 01       		.byte	0x1
 7308 8253 5B820000 		.long	0x825b
 7309 8257 61820000 		.long	0x8261
 7310 825b 02       		.uleb128 0x2
 7311 825c 62D50000 		.long	0xd562
 7312 8260 00       		.byte	0
 7313 8261 0B       		.uleb128 0xb
 7314 8262 6261636B 		.ascii "back\0"
 7314      00
 7315 8267 03       		.byte	0x3
 7316 8268 7704     		.word	0x477
 7317 826a 07       		.byte	0x7
 7318 826b 5F5A4E53 		.ascii "_ZNSt6vectorISt4pairIclESaIS1_EE4backEv\0"
 7318      74367665 
 7318      63746F72 
 7318      49537434 
 7318      70616972 
 7319 8293 44800000 		.long	0x8044
 7320 8297 01       		.byte	0x1
 7321 8298 A0820000 		.long	0x82a0
 7322 829c A6820000 		.long	0x82a6
 7323 82a0 02       		.uleb128 0x2
 7324 82a1 39D50000 		.long	0xd539
GAS LISTING C:\Users\Ilya\AppData\Local\Temp\ccxaKDG8.s 			page 195


 7325 82a5 00       		.byte	0
 7326 82a6 0B       		.uleb128 0xb
 7327 82a7 6261636B 		.ascii "back\0"
 7327      00
 7328 82ac 03       		.byte	0x3
 7329 82ad 8204     		.word	0x482
 7330 82af 07       		.byte	0x7
 7331 82b0 5F5A4E4B 		.ascii "_ZNKSt6vectorISt4pairIclESaIS1_EE4backEv\0"
 7331      53743676 
 7331      6563746F 
 7331      72495374 
 7331      34706169 
 7332 82d9 98800000 		.long	0x8098
 7333 82dd 01       		.byte	0x1
 7334 82de E6820000 		.long	0x82e6
 7335 82e2 EC820000 		.long	0x82ec
 7336 82e6 02       		.uleb128 0x2
 7337 82e7 62D50000 		.long	0xd562
 7338 82eb 00       		.byte	0
 7339 82ec 0B       		.uleb128 0xb
 7340 82ed 64617461 		.ascii "data\0"
 7340      00
 7341 82f2 03       		.byte	0x3
 7342 82f3 9004     		.word	0x490
 7343 82f5 07       		.byte	0x7
 7344 82f6 5F5A4E53 		.ascii "_ZNSt6vectorISt4pairIclESaIS1_EE4dataEv\0"
 7344      74367665 
 7344      63746F72 
 7344      49537434 
 7344      70616972 
 7345 831e 8ED40000 		.long	0xd48e
 7346 8322 01       		.byte	0x1
 7347 8323 2B830000 		.long	0x832b
 7348 8327 31830000 		.long	0x8331
 7349 832b 02       		.uleb128 0x2
 7350 832c 39D50000 		.long	0xd539
 7351 8330 00       		.byte	0
 7352 8331 0B       		.uleb128 0xb
 7353 8332 64617461 		.ascii "data\0"
 7353      00
 7354 8337 03       		.byte	0x3
 7355 8338 9404     		.word	0x494
 7356 833a 07       		.byte	0x7
 7357 833b 5F5A4E4B 		.ascii "_ZNKSt6vectorISt4pairIclESaIS1_EE4dataEv\0"
 7357      53743676 
 7357      6563746F 
 7357      72495374 
 7357      34706169 
 7358 8364 A0D40000 		.long	0xd4a0
 7359 8368 01       		.byte	0x1
 7360 8369 71830000 		.long	0x8371
 7361 836d 77830000 		.long	0x8377
 7362 8371 02       		.uleb128 0x2
 7363 8372 62D50000 		.long	0xd562
 7364 8376 00       		.byte	0
 7365 8377 0C       		.uleb128 0xc
 7366 8378 37040000 		.secrel32	.LASF27
GAS LISTING C:\Users\Ilya\AppData\Local\Temp\ccxaKDG8.s 			page 196


 7367 837c 03       		.byte	0x3
 7368 837d A304     		.word	0x4a3
 7369 837f 07       		.byte	0x7
 7370 8380 5F5A4E53 		.ascii "_ZNSt6vectorISt4pairIclESaIS1_EE9push_backERKS1_\0"
 7370      74367665 
 7370      63746F72 
 7370      49537434 
 7370      70616972 
 7371 83b1 01       		.byte	0x1
 7372 83b2 BA830000 		.long	0x83ba
 7373 83b6 C5830000 		.long	0x83c5
 7374 83ba 02       		.uleb128 0x2
 7375 83bb 39D50000 		.long	0xd539
 7376 83bf 01       		.uleb128 0x1
 7377 83c0 4AD50000 		.long	0xd54a
 7378 83c4 00       		.byte	0
 7379 83c5 0C       		.uleb128 0xc
 7380 83c6 37040000 		.secrel32	.LASF27
 7381 83ca 03       		.byte	0x3
 7382 83cb B304     		.word	0x4b3
 7383 83cd 07       		.byte	0x7
 7384 83ce 5F5A4E53 		.ascii "_ZNSt6vectorISt4pairIclESaIS1_EE9push_backEOS1_\0"
 7384      74367665 
 7384      63746F72 
 7384      49537434 
 7384      70616972 
 7385 83fe 01       		.byte	0x1
 7386 83ff 07840000 		.long	0x8407
 7387 8403 12840000 		.long	0x8412
 7388 8407 02       		.uleb128 0x2
 7389 8408 39D50000 		.long	0xd539
 7390 840c 01       		.uleb128 0x1
 7391 840d 68D50000 		.long	0xd568
 7392 8411 00       		.byte	0
 7393 8412 0C       		.uleb128 0xc
 7394 8413 15010000 		.secrel32	.LASF31
 7395 8417 03       		.byte	0x3
 7396 8418 C904     		.word	0x4c9
 7397 841a 07       		.byte	0x7
 7398 841b 5F5A4E53 		.ascii "_ZNSt6vectorISt4pairIclESaIS1_EE8pop_backEv\0"
 7398      74367665 
 7398      63746F72 
 7398      49537434 
 7398      70616972 
 7399 8447 01       		.byte	0x1
 7400 8448 50840000 		.long	0x8450
 7401 844c 56840000 		.long	0x8456
 7402 8450 02       		.uleb128 0x2
 7403 8451 39D50000 		.long	0xd539
 7404 8455 00       		.byte	0
 7405 8456 14       		.uleb128 0x14
 7406 8457 B1010000 		.secrel32	.LASF29
 7407 845b 1C       		.byte	0x1c
 7408 845c 82       		.byte	0x82
 7409 845d 05       		.byte	0x5
 7410 845e 5F5A4E53 		.ascii "_ZNSt6vectorISt4pairIclESaIS1_EE6insertEN9__gnu_cxx17__normal_iteratorIPKS1_S3_EERS6_\0"
 7410      74367665 
GAS LISTING C:\Users\Ilya\AppData\Local\Temp\ccxaKDG8.s 			page 197


 7410      63746F72 
 7410      49537434 
 7410      70616972 
 7411 84b4 717A0000 		.long	0x7a71
 7412 84b8 01       		.byte	0x1
 7413 84b9 C1840000 		.long	0x84c1
 7414 84bd D1840000 		.long	0x84d1
 7415 84c1 02       		.uleb128 0x2
 7416 84c2 39D50000 		.long	0xd539
 7417 84c6 01       		.uleb128 0x1
 7418 84c7 C47A0000 		.long	0x7ac4
 7419 84cb 01       		.uleb128 0x1
 7420 84cc 4AD50000 		.long	0xd54a
 7421 84d0 00       		.byte	0
 7422 84d1 04       		.uleb128 0x4
 7423 84d2 B1010000 		.secrel32	.LASF29
 7424 84d6 03       		.byte	0x3
 7425 84d7 0D05     		.word	0x50d
 7426 84d9 07       		.byte	0x7
 7427 84da 5F5A4E53 		.ascii "_ZNSt6vectorISt4pairIclESaIS1_EE6insertEN9__gnu_cxx17__normal_iteratorIPKS1_S3_EEOS1_\0"
 7427      74367665 
 7427      63746F72 
 7427      49537434 
 7427      70616972 
 7428 8530 717A0000 		.long	0x7a71
 7429 8534 01       		.byte	0x1
 7430 8535 3D850000 		.long	0x853d
 7431 8539 4D850000 		.long	0x854d
 7432 853d 02       		.uleb128 0x2
 7433 853e 39D50000 		.long	0xd539
 7434 8542 01       		.uleb128 0x1
 7435 8543 C47A0000 		.long	0x7ac4
 7436 8547 01       		.uleb128 0x1
 7437 8548 68D50000 		.long	0xd568
 7438 854c 00       		.byte	0
 7439 854d 04       		.uleb128 0x4
 7440 854e B1010000 		.secrel32	.LASF29
 7441 8552 03       		.byte	0x3
 7442 8553 1E05     		.word	0x51e
 7443 8555 07       		.byte	0x7
 7444 8556 5F5A4E53 		.ascii "_ZNSt6vectorISt4pairIclESaIS1_EE6insertEN9__gnu_cxx17__normal_iteratorIPKS1_S3_EESt16initi
 7444      74367665 
 7444      63746F72 
 7444      49537434 
 7444      70616972 
 7445 85c1 717A0000 		.long	0x7a71
 7446 85c5 01       		.byte	0x1
 7447 85c6 CE850000 		.long	0x85ce
 7448 85ca DE850000 		.long	0x85de
 7449 85ce 02       		.uleb128 0x2
 7450 85cf 39D50000 		.long	0xd539
 7451 85d3 01       		.uleb128 0x1
 7452 85d4 C47A0000 		.long	0x7ac4
 7453 85d8 01       		.uleb128 0x1
 7454 85d9 EE8E0000 		.long	0x8eee
 7455 85dd 00       		.byte	0
 7456 85de 04       		.uleb128 0x4
GAS LISTING C:\Users\Ilya\AppData\Local\Temp\ccxaKDG8.s 			page 198


 7457 85df B1010000 		.secrel32	.LASF29
 7458 85e3 03       		.byte	0x3
 7459 85e4 3705     		.word	0x537
 7460 85e6 07       		.byte	0x7
 7461 85e7 5F5A4E53 		.ascii "_ZNSt6vectorISt4pairIclESaIS1_EE6insertEN9__gnu_cxx17__normal_iteratorIPKS1_S3_EEyRS6_\0"
 7461      74367665 
 7461      63746F72 
 7461      49537434 
 7461      70616972 
 7462 863e 717A0000 		.long	0x7a71
 7463 8642 01       		.byte	0x1
 7464 8643 4B860000 		.long	0x864b
 7465 8647 60860000 		.long	0x8660
 7466 864b 02       		.uleb128 0x2
 7467 864c 39D50000 		.long	0xd539
 7468 8650 01       		.uleb128 0x1
 7469 8651 C47A0000 		.long	0x7ac4
 7470 8655 01       		.uleb128 0x1
 7471 8656 A7750000 		.long	0x75a7
 7472 865a 01       		.uleb128 0x1
 7473 865b 4AD50000 		.long	0xd54a
 7474 865f 00       		.byte	0
 7475 8660 04       		.uleb128 0x4
 7476 8661 E2000000 		.secrel32	.LASF30
 7477 8665 03       		.byte	0x3
 7478 8666 9605     		.word	0x596
 7479 8668 07       		.byte	0x7
 7480 8669 5F5A4E53 		.ascii "_ZNSt6vectorISt4pairIclESaIS1_EE5eraseEN9__gnu_cxx17__normal_iteratorIPKS1_S3_EE\0"
 7480      74367665 
 7480      63746F72 
 7480      49537434 
 7480      70616972 
 7481 86ba 717A0000 		.long	0x7a71
 7482 86be 01       		.byte	0x1
 7483 86bf C7860000 		.long	0x86c7
 7484 86c3 D2860000 		.long	0x86d2
 7485 86c7 02       		.uleb128 0x2
 7486 86c8 39D50000 		.long	0xd539
 7487 86cc 01       		.uleb128 0x1
 7488 86cd C47A0000 		.long	0x7ac4
 7489 86d1 00       		.byte	0
 7490 86d2 04       		.uleb128 0x4
 7491 86d3 E2000000 		.secrel32	.LASF30
 7492 86d7 03       		.byte	0x3
 7493 86d8 B105     		.word	0x5b1
 7494 86da 07       		.byte	0x7
 7495 86db 5F5A4E53 		.ascii "_ZNSt6vectorISt4pairIclESaIS1_EE5eraseEN9__gnu_cxx17__normal_iteratorIPKS1_S3_EES8_\0"
 7495      74367665 
 7495      63746F72 
 7495      49537434 
 7495      70616972 
 7496 872f 717A0000 		.long	0x7a71
 7497 8733 01       		.byte	0x1
 7498 8734 3C870000 		.long	0x873c
 7499 8738 4C870000 		.long	0x874c
 7500 873c 02       		.uleb128 0x2
 7501 873d 39D50000 		.long	0xd539
GAS LISTING C:\Users\Ilya\AppData\Local\Temp\ccxaKDG8.s 			page 199


 7502 8741 01       		.uleb128 0x1
 7503 8742 C47A0000 		.long	0x7ac4
 7504 8746 01       		.uleb128 0x1
 7505 8747 C47A0000 		.long	0x7ac4
 7506 874b 00       		.byte	0
 7507 874c 17       		.uleb128 0x17
 7508 874d 73776170 		.ascii "swap\0"
 7508      00
 7509 8752 03       		.byte	0x3
 7510 8753 C805     		.word	0x5c8
 7511 8755 07       		.byte	0x7
 7512 8756 5F5A4E53 		.ascii "_ZNSt6vectorISt4pairIclESaIS1_EE4swapERS3_\0"
 7512      74367665 
 7512      63746F72 
 7512      49537434 
 7512      70616972 
 7513 8781 01       		.byte	0x1
 7514 8782 8A870000 		.long	0x878a
 7515 8786 95870000 		.long	0x8795
 7516 878a 02       		.uleb128 0x2
 7517 878b 39D50000 		.long	0xd539
 7518 878f 01       		.uleb128 0x1
 7519 8790 5CD50000 		.long	0xd55c
 7520 8794 00       		.byte	0
 7521 8795 17       		.uleb128 0x17
 7522 8796 636C6561 		.ascii "clear\0"
 7522      7200
 7523 879c 03       		.byte	0x3
 7524 879d DA05     		.word	0x5da
 7525 879f 07       		.byte	0x7
 7526 87a0 5F5A4E53 		.ascii "_ZNSt6vectorISt4pairIclESaIS1_EE5clearEv\0"
 7526      74367665 
 7526      63746F72 
 7526      49537434 
 7526      70616972 
 7527 87c9 01       		.byte	0x1
 7528 87ca D2870000 		.long	0x87d2
 7529 87ce D8870000 		.long	0x87d8
 7530 87d2 02       		.uleb128 0x2
 7531 87d3 39D50000 		.long	0xd539
 7532 87d7 00       		.byte	0
 7533 87d8 17       		.uleb128 0x17
 7534 87d9 5F4D5F66 		.ascii "_M_fill_initialize\0"
 7534      696C6C5F 
 7534      696E6974 
 7534      69616C69 
 7534      7A6500
 7535 87ec 03       		.byte	0x3
 7536 87ed 3906     		.word	0x639
 7537 87ef 07       		.byte	0x7
 7538 87f0 5F5A4E53 		.ascii "_ZNSt6vectorISt4pairIclESaIS1_EE18_M_fill_initializeEyRKS1_\0"
 7538      74367665 
 7538      63746F72 
 7538      49537434 
 7538      70616972 
 7539 882c 02       		.byte	0x2
 7540 882d 35880000 		.long	0x8835
GAS LISTING C:\Users\Ilya\AppData\Local\Temp\ccxaKDG8.s 			page 200


 7541 8831 45880000 		.long	0x8845
 7542 8835 02       		.uleb128 0x2
 7543 8836 39D50000 		.long	0xd539
 7544 883a 01       		.uleb128 0x1
 7545 883b A7750000 		.long	0x75a7
 7546 883f 01       		.uleb128 0x1
 7547 8840 4AD50000 		.long	0xd54a
 7548 8844 00       		.byte	0
 7549 8845 17       		.uleb128 0x17
 7550 8846 5F4D5F64 		.ascii "_M_default_initialize\0"
 7550      65666175 
 7550      6C745F69 
 7550      6E697469 
 7550      616C697A 
 7551 885c 03       		.byte	0x3
 7552 885d 4306     		.word	0x643
 7553 885f 07       		.byte	0x7
 7554 8860 5F5A4E53 		.ascii "_ZNSt6vectorISt4pairIclESaIS1_EE21_M_default_initializeEy\0"
 7554      74367665 
 7554      63746F72 
 7554      49537434 
 7554      70616972 
 7555 889a 02       		.byte	0x2
 7556 889b A3880000 		.long	0x88a3
 7557 889f AE880000 		.long	0x88ae
 7558 88a3 02       		.uleb128 0x2
 7559 88a4 39D50000 		.long	0xd539
 7560 88a8 01       		.uleb128 0x1
 7561 88a9 A7750000 		.long	0x75a7
 7562 88ad 00       		.byte	0
 7563 88ae 17       		.uleb128 0x17
 7564 88af 5F4D5F66 		.ascii "_M_fill_assign\0"
 7564      696C6C5F 
 7564      61737369 
 7564      676E00
 7565 88be 1C       		.byte	0x1c
 7566 88bf 0101     		.word	0x101
 7567 88c1 05       		.byte	0x5
 7568 88c2 5F5A4E53 		.ascii "_ZNSt6vectorISt4pairIclESaIS1_EE14_M_fill_assignEyRKS1_\0"
 7568      74367665 
 7568      63746F72 
 7568      49537434 
 7568      70616972 
 7569 88fa 02       		.byte	0x2
 7570 88fb 03890000 		.long	0x8903
 7571 88ff 13890000 		.long	0x8913
 7572 8903 02       		.uleb128 0x2
 7573 8904 39D50000 		.long	0xd539
 7574 8908 01       		.uleb128 0x1
 7575 8909 7A510000 		.long	0x517a
 7576 890d 01       		.uleb128 0x1
 7577 890e 4AD50000 		.long	0xd54a
 7578 8912 00       		.byte	0
 7579 8913 17       		.uleb128 0x17
 7580 8914 5F4D5F66 		.ascii "_M_fill_insert\0"
 7580      696C6C5F 
 7580      696E7365 
GAS LISTING C:\Users\Ilya\AppData\Local\Temp\ccxaKDG8.s 			page 201


 7580      727400
 7581 8923 1C       		.byte	0x1c
 7582 8924 FD01     		.word	0x1fd
 7583 8926 05       		.byte	0x5
 7584 8927 5F5A4E53 		.ascii "_ZNSt6vectorISt4pairIclESaIS1_EE14_M_fill_insertEN9__gnu_cxx17__normal_iteratorIPS1_S3_EEy
 7584      74367665 
 7584      63746F72 
 7584      49537434 
 7584      70616972 
 7585 8987 02       		.byte	0x2
 7586 8988 90890000 		.long	0x8990
 7587 898c A5890000 		.long	0x89a5
 7588 8990 02       		.uleb128 0x2
 7589 8991 39D50000 		.long	0xd539
 7590 8995 01       		.uleb128 0x1
 7591 8996 717A0000 		.long	0x7a71
 7592 899a 01       		.uleb128 0x1
 7593 899b A7750000 		.long	0x75a7
 7594 899f 01       		.uleb128 0x1
 7595 89a0 4AD50000 		.long	0xd54a
 7596 89a4 00       		.byte	0
 7597 89a5 17       		.uleb128 0x17
 7598 89a6 5F4D5F64 		.ascii "_M_default_append\0"
 7598      65666175 
 7598      6C745F61 
 7598      7070656E 
 7598      6400
 7599 89b8 1C       		.byte	0x1c
 7600 89b9 6302     		.word	0x263
 7601 89bb 05       		.byte	0x5
 7602 89bc 5F5A4E53 		.ascii "_ZNSt6vectorISt4pairIclESaIS1_EE17_M_default_appendEy\0"
 7602      74367665 
 7602      63746F72 
 7602      49537434 
 7602      70616972 
 7603 89f2 02       		.byte	0x2
 7604 89f3 FB890000 		.long	0x89fb
 7605 89f7 068A0000 		.long	0x8a06
 7606 89fb 02       		.uleb128 0x2
 7607 89fc 39D50000 		.long	0xd539
 7608 8a00 01       		.uleb128 0x1
 7609 8a01 A7750000 		.long	0x75a7
 7610 8a05 00       		.byte	0
 7611 8a06 0B       		.uleb128 0xb
 7612 8a07 5F4D5F73 		.ascii "_M_shrink_to_fit\0"
 7612      6872696E 
 7612      6B5F746F 
 7612      5F666974 
 7612      00
 7613 8a18 1C       		.byte	0x1c
 7614 8a19 AF02     		.word	0x2af
 7615 8a1b 05       		.byte	0x5
 7616 8a1c 5F5A4E53 		.ascii "_ZNSt6vectorISt4pairIclESaIS1_EE16_M_shrink_to_fitEv\0"
 7616      74367665 
 7616      63746F72 
 7616      49537434 
 7616      70616972 
GAS LISTING C:\Users\Ilya\AppData\Local\Temp\ccxaKDG8.s 			page 202


 7617 8a51 B0BE0000 		.long	0xbeb0
 7618 8a55 02       		.byte	0x2
 7619 8a56 5E8A0000 		.long	0x8a5e
 7620 8a5a 648A0000 		.long	0x8a64
 7621 8a5e 02       		.uleb128 0x2
 7622 8a5f 39D50000 		.long	0xd539
 7623 8a63 00       		.byte	0
 7624 8a64 0B       		.uleb128 0xb
 7625 8a65 5F4D5F69 		.ascii "_M_insert_rval\0"
 7625      6E736572 
 7625      745F7276 
 7625      616C00
 7626 8a74 1C       		.byte	0x1c
 7627 8a75 5401     		.word	0x154
 7628 8a77 05       		.byte	0x5
 7629 8a78 5F5A4E53 		.ascii "_ZNSt6vectorISt4pairIclESaIS1_EE14_M_insert_rvalEN9__gnu_cxx17__normal_iteratorIPKS1_S3_EE
 7629      74367665 
 7629      63746F72 
 7629      49537434 
 7629      70616972 
 7630 8ad7 717A0000 		.long	0x7a71
 7631 8adb 02       		.byte	0x2
 7632 8adc E48A0000 		.long	0x8ae4
 7633 8ae0 F48A0000 		.long	0x8af4
 7634 8ae4 02       		.uleb128 0x2
 7635 8ae5 39D50000 		.long	0xd539
 7636 8ae9 01       		.uleb128 0x1
 7637 8aea C47A0000 		.long	0x7ac4
 7638 8aee 01       		.uleb128 0x1
 7639 8aef 68D50000 		.long	0xd568
 7640 8af3 00       		.byte	0
 7641 8af4 0B       		.uleb128 0xb
 7642 8af5 5F4D5F65 		.ascii "_M_emplace_aux\0"
 7642      6D706C61 
 7642      63655F61 
 7642      757800
 7643 8b04 03       		.byte	0x3
 7644 8b05 D606     		.word	0x6d6
 7645 8b07 07       		.byte	0x7
 7646 8b08 5F5A4E53 		.ascii "_ZNSt6vectorISt4pairIclESaIS1_EE14_M_emplace_auxEN9__gnu_cxx17__normal_iteratorIPKS1_S3_EE
 7646      74367665 
 7646      63746F72 
 7646      49537434 
 7646      70616972 
 7647 8b67 717A0000 		.long	0x7a71
 7648 8b6b 02       		.byte	0x2
 7649 8b6c 748B0000 		.long	0x8b74
 7650 8b70 848B0000 		.long	0x8b84
 7651 8b74 02       		.uleb128 0x2
 7652 8b75 39D50000 		.long	0xd539
 7653 8b79 01       		.uleb128 0x1
 7654 8b7a C47A0000 		.long	0x7ac4
 7655 8b7e 01       		.uleb128 0x1
 7656 8b7f 68D50000 		.long	0xd568
 7657 8b83 00       		.byte	0
 7658 8b84 0B       		.uleb128 0xb
 7659 8b85 5F4D5F63 		.ascii "_M_check_len\0"
GAS LISTING C:\Users\Ilya\AppData\Local\Temp\ccxaKDG8.s 			page 203


 7659      6865636B 
 7659      5F6C656E 
 7659      00
 7660 8b92 03       		.byte	0x3
 7661 8b93 DC06     		.word	0x6dc
 7662 8b95 07       		.byte	0x7
 7663 8b96 5F5A4E4B 		.ascii "_ZNKSt6vectorISt4pairIclESaIS1_EE12_M_check_lenEyPKc\0"
 7663      53743676 
 7663      6563746F 
 7663      72495374 
 7663      34706169 
 7664 8bcb A7750000 		.long	0x75a7
 7665 8bcf 02       		.byte	0x2
 7666 8bd0 D88B0000 		.long	0x8bd8
 7667 8bd4 E88B0000 		.long	0x8be8
 7668 8bd8 02       		.uleb128 0x2
 7669 8bd9 62D50000 		.long	0xd562
 7670 8bdd 01       		.uleb128 0x1
 7671 8bde A7750000 		.long	0x75a7
 7672 8be2 01       		.uleb128 0x1
 7673 8be3 89B70000 		.long	0xb789
 7674 8be7 00       		.byte	0
 7675 8be8 5D       		.uleb128 0x5d
 7676 8be9 5F535F63 		.ascii "_S_check_init_len\0"
 7676      6865636B 
 7676      5F696E69 
 7676      745F6C65 
 7676      6E00
 7677 8bfb 03       		.byte	0x3
 7678 8bfc E706     		.word	0x6e7
 7679 8bfe 07       		.byte	0x7
 7680 8bff 5F5A4E53 		.ascii "_ZNSt6vectorISt4pairIclESaIS1_EE17_S_check_init_lenEyRKS2_\0"
 7680      74367665 
 7680      63746F72 
 7680      49537434 
 7680      70616972 
 7681 8c3a A7750000 		.long	0x75a7
 7682 8c3e 02       		.byte	0x2
 7683 8c3f 4E8C0000 		.long	0x8c4e
 7684 8c43 01       		.uleb128 0x1
 7685 8c44 A7750000 		.long	0x75a7
 7686 8c48 01       		.uleb128 0x1
 7687 8c49 44D50000 		.long	0xd544
 7688 8c4d 00       		.byte	0
 7689 8c4e 5D       		.uleb128 0x5d
 7690 8c4f 5F535F6D 		.ascii "_S_max_size\0"
 7690      61785F73 
 7690      697A6500 
 7691 8c5b 03       		.byte	0x3
 7692 8c5c F006     		.word	0x6f0
 7693 8c5e 07       		.byte	0x7
 7694 8c5f 5F5A4E53 		.ascii "_ZNSt6vectorISt4pairIclESaIS1_EE11_S_max_sizeERKS2_\0"
 7694      74367665 
 7694      63746F72 
 7694      49537434 
 7694      70616972 
 7695 8c93 A7750000 		.long	0x75a7
GAS LISTING C:\Users\Ilya\AppData\Local\Temp\ccxaKDG8.s 			page 204


 7696 8c97 02       		.byte	0x2
 7697 8c98 A28C0000 		.long	0x8ca2
 7698 8c9c 01       		.uleb128 0x1
 7699 8c9d 6ED50000 		.long	0xd56e
 7700 8ca1 00       		.byte	0
 7701 8ca2 17       		.uleb128 0x17
 7702 8ca3 5F4D5F65 		.ascii "_M_erase_at_end\0"
 7702      72617365 
 7702      5F61745F 
 7702      656E6400 
 7703 8cb3 03       		.byte	0x3
 7704 8cb4 0007     		.word	0x700
 7705 8cb6 07       		.byte	0x7
 7706 8cb7 5F5A4E53 		.ascii "_ZNSt6vectorISt4pairIclESaIS1_EE15_M_erase_at_endEPS1_\0"
 7706      74367665 
 7706      63746F72 
 7706      49537434 
 7706      70616972 
 7707 8cee 02       		.byte	0x2
 7708 8cef F78C0000 		.long	0x8cf7
 7709 8cf3 028D0000 		.long	0x8d02
 7710 8cf7 02       		.uleb128 0x2
 7711 8cf8 39D50000 		.long	0xd539
 7712 8cfc 01       		.uleb128 0x1
 7713 8cfd 2B730000 		.long	0x732b
 7714 8d01 00       		.byte	0
 7715 8d02 14       		.uleb128 0x14
 7716 8d03 10040000 		.secrel32	.LASF10
 7717 8d07 1C       		.byte	0x1c
 7718 8d08 AB       		.byte	0xab
 7719 8d09 05       		.byte	0x5
 7720 8d0a 5F5A4E53 		.ascii "_ZNSt6vectorISt4pairIclESaIS1_EE8_M_eraseEN9__gnu_cxx17__normal_iteratorIPS1_S3_EE\0"
 7720      74367665 
 7720      63746F72 
 7720      49537434 
 7720      70616972 
 7721 8d5d 717A0000 		.long	0x7a71
 7722 8d61 02       		.byte	0x2
 7723 8d62 6A8D0000 		.long	0x8d6a
 7724 8d66 758D0000 		.long	0x8d75
 7725 8d6a 02       		.uleb128 0x2
 7726 8d6b 39D50000 		.long	0xd539
 7727 8d6f 01       		.uleb128 0x1
 7728 8d70 717A0000 		.long	0x7a71
 7729 8d74 00       		.byte	0
 7730 8d75 14       		.uleb128 0x14
 7731 8d76 10040000 		.secrel32	.LASF10
 7732 8d7a 1C       		.byte	0x1c
 7733 8d7b B8       		.byte	0xb8
 7734 8d7c 05       		.byte	0x5
 7735 8d7d 5F5A4E53 		.ascii "_ZNSt6vectorISt4pairIclESaIS1_EE8_M_eraseEN9__gnu_cxx17__normal_iteratorIPS1_S3_EES7_\0"
 7735      74367665 
 7735      63746F72 
 7735      49537434 
 7735      70616972 
 7736 8dd3 717A0000 		.long	0x7a71
 7737 8dd7 02       		.byte	0x2
GAS LISTING C:\Users\Ilya\AppData\Local\Temp\ccxaKDG8.s 			page 205


 7738 8dd8 E08D0000 		.long	0x8de0
 7739 8ddc F08D0000 		.long	0x8df0
 7740 8de0 02       		.uleb128 0x2
 7741 8de1 39D50000 		.long	0xd539
 7742 8de5 01       		.uleb128 0x1
 7743 8de6 717A0000 		.long	0x7a71
 7744 8dea 01       		.uleb128 0x1
 7745 8deb 717A0000 		.long	0x7a71
 7746 8def 00       		.byte	0
 7747 8df0 20       		.uleb128 0x20
 7748 8df1 3F010000 		.secrel32	.LASF64
 7749 8df5 03       		.byte	0x3
 7750 8df6 1707     		.word	0x717
 7751 8df8 07       		.byte	0x7
 7752 8df9 5F5A4E53 		.ascii "_ZNSt6vectorISt4pairIclESaIS1_EE14_M_move_assignEOS3_St17integral_constantIbLb1EE\0"
 7752      74367665 
 7752      63746F72 
 7752      49537434 
 7752      70616972 
 7753 8e4b 538E0000 		.long	0x8e53
 7754 8e4f 638E0000 		.long	0x8e63
 7755 8e53 02       		.uleb128 0x2
 7756 8e54 39D50000 		.long	0xd539
 7757 8e58 01       		.uleb128 0x1
 7758 8e59 56D50000 		.long	0xd556
 7759 8e5d 01       		.uleb128 0x1
 7760 8e5e EB570000 		.long	0x57eb
 7761 8e62 00       		.byte	0
 7762 8e63 20       		.uleb128 0x20
 7763 8e64 3F010000 		.secrel32	.LASF64
 7764 8e68 03       		.byte	0x3
 7765 8e69 2207     		.word	0x722
 7766 8e6b 07       		.byte	0x7
 7767 8e6c 5F5A4E53 		.ascii "_ZNSt6vectorISt4pairIclESaIS1_EE14_M_move_assignEOS3_St17integral_constantIbLb0EE\0"
 7767      74367665 
 7767      63746F72 
 7767      49537434 
 7767      70616972 
 7768 8ebe C68E0000 		.long	0x8ec6
 7769 8ec2 D68E0000 		.long	0x8ed6
 7770 8ec6 02       		.uleb128 0x2
 7771 8ec7 39D50000 		.long	0xd539
 7772 8ecb 01       		.uleb128 0x1
 7773 8ecc 56D50000 		.long	0xd556
 7774 8ed0 01       		.uleb128 0x1
 7775 8ed1 67510000 		.long	0x5167
 7776 8ed5 00       		.byte	0
 7777 8ed6 16       		.uleb128 0x16
 7778 8ed7 5F547000 		.ascii "_Tp\0"
 7779 8edb D4620000 		.long	0x62d4
 7780 8edf 50       		.uleb128 0x50
 7781 8ee0 9B040000 		.secrel32	.LASF40
 7782 8ee4 3C640000 		.long	0x643c
 7783 8ee8 00       		.byte	0
 7784 8ee9 07       		.uleb128 0x7
 7785 8eea 74710000 		.long	0x7174
 7786 8eee 25       		.uleb128 0x25
GAS LISTING C:\Users\Ilya\AppData\Local\Temp\ccxaKDG8.s 			page 206


 7787 8eef 696E6974 		.ascii "initializer_list<std::pair<char, long int> >\0"
 7787      69616C69 
 7787      7A65725F 
 7787      6C697374 
 7787      3C737464 
 7788 8f1c 25       		.uleb128 0x25
 7789 8f1d 72657665 		.ascii "reverse_iterator<__gnu_cxx::__normal_iterator<std::pair<char, long int>*, std::vector<std:
 7789      7273655F 
 7789      69746572 
 7789      61746F72 
 7789      3C5F5F67 
 7790 8fbf 25       		.uleb128 0x25
 7791 8fc0 72657665 		.ascii "reverse_iterator<__gnu_cxx::__normal_iterator<const std::pair<char, long int>*, std::vecto
 7791      7273655F 
 7791      69746572 
 7791      61746F72 
 7791      3C5F5F67 
 7792 9068 15       		.uleb128 0x15
 7793 9069 69746572 		.ascii "iterator_traits<char*>\0"
 7793      61746F72 
 7793      5F747261 
 7793      6974733C 
 7793      63686172 
 7794 9080 01       		.byte	0x1
 7795 9081 1D       		.byte	0x1d
 7796 9082 D2       		.byte	0xd2
 7797 9083 0C       		.byte	0xc
 7798 9084 AD900000 		.long	0x90ad
 7799 9088 10       		.uleb128 0x10
 7800 9089 A1010000 		.secrel32	.LASF65
 7801 908d 1D       		.byte	0x1d
 7802 908e D6       		.byte	0xd6
 7803 908f 2B       		.byte	0x2b
 7804 9090 D8570000 		.long	0x57d8
 7805 9094 10       		.uleb128 0x10
 7806 9095 AB000000 		.secrel32	.LASF1
 7807 9099 1D       		.byte	0x1d
 7808 909a D7       		.byte	0xd7
 7809 909b 2B       		.byte	0x2b
 7810 909c B4B20000 		.long	0xb2b4
 7811 90a0 10       		.uleb128 0x10
 7812 90a1 45020000 		.secrel32	.LASF23
 7813 90a5 1D       		.byte	0x1d
 7814 90a6 D8       		.byte	0xd8
 7815 90a7 2B       		.byte	0x2b
 7816 90a8 DEC10000 		.long	0xc1de
 7817 90ac 00       		.byte	0
 7818 90ad 15       		.uleb128 0x15
 7819 90ae 69746572 		.ascii "iterator_traits<char const*>\0"
 7819      61746F72 
 7819      5F747261 
 7819      6974733C 
 7819      63686172 
 7820 90cb 01       		.byte	0x1
 7821 90cc 1D       		.byte	0x1d
 7822 90cd DD       		.byte	0xdd
 7823 90ce 0C       		.byte	0xc
GAS LISTING C:\Users\Ilya\AppData\Local\Temp\ccxaKDG8.s 			page 207


 7824 90cf F8900000 		.long	0x90f8
 7825 90d3 10       		.uleb128 0x10
 7826 90d4 A1010000 		.secrel32	.LASF65
 7827 90d8 1D       		.byte	0x1d
 7828 90d9 E1       		.byte	0xe1
 7829 90da 2B       		.byte	0x2b
 7830 90db D8570000 		.long	0x57d8
 7831 90df 10       		.uleb128 0x10
 7832 90e0 AB000000 		.secrel32	.LASF1
 7833 90e4 1D       		.byte	0x1d
 7834 90e5 E2       		.byte	0xe2
 7835 90e6 2B       		.byte	0x2b
 7836 90e7 89B70000 		.long	0xb789
 7837 90eb 10       		.uleb128 0x10
 7838 90ec 45020000 		.secrel32	.LASF23
 7839 90f0 1D       		.byte	0x1d
 7840 90f1 E3       		.byte	0xe3
 7841 90f2 2B       		.byte	0x2b
 7842 90f3 E4C10000 		.long	0xc1e4
 7843 90f7 00       		.byte	0
 7844 90f8 28       		.uleb128 0x28
 7845 90f9 5F5F7061 		.ascii "__pair_base<char, long int>\0"
 7845      69725F62 
 7845      6173653C 
 7845      63686172 
 7845      2C206C6F 
 7846 9115 01       		.byte	0x1
 7847 9116 0F       		.byte	0xf
 7848 9117 BD       		.byte	0xbd
 7849 9118 2E       		.byte	0x2e
 7850 9119 1B920000 		.long	0x921b
 7851 911d 5E       		.uleb128 0x5e
 7852 911e 59040000 		.secrel32	.LASF66
 7853 9122 0F       		.byte	0xf
 7854 9123 C1       		.byte	0xc1
 7855 9124 05       		.byte	0x5
 7856 9125 5F5A4E53 		.ascii "_ZNSt11__pair_baseIclEC4Ev\0"
 7856      7431315F 
 7856      5F706169 
 7856      725F6261 
 7856      73654963 
 7857 9140 01       		.byte	0x1
 7858 9141 49910000 		.long	0x9149
 7859 9145 4F910000 		.long	0x914f
 7860 9149 02       		.uleb128 0x2
 7861 914a DBD50000 		.long	0xd5db
 7862 914e 00       		.byte	0
 7863 914f 7B       		.uleb128 0x7b
 7864 9150 7E5F5F70 		.ascii "~__pair_base\0"
 7864      6169725F 
 7864      62617365 
 7864      00
 7865 915d 0F       		.byte	0xf
 7866 915e C2       		.byte	0xc2
 7867 915f 05       		.byte	0x5
 7868 9160 5F5A4E53 		.ascii "_ZNSt11__pair_baseIclED4Ev\0"
 7868      7431315F 
GAS LISTING C:\Users\Ilya\AppData\Local\Temp\ccxaKDG8.s 			page 208


 7868      5F706169 
 7868      725F6261 
 7868      73654963 
 7869 917b 01       		.byte	0x1
 7870 917c 84910000 		.long	0x9184
 7871 9180 8F910000 		.long	0x918f
 7872 9184 02       		.uleb128 0x2
 7873 9185 DBD50000 		.long	0xd5db
 7874 9189 02       		.uleb128 0x2
 7875 918a 9CB20000 		.long	0xb29c
 7876 918e 00       		.byte	0
 7877 918f 5E       		.uleb128 0x5e
 7878 9190 59040000 		.secrel32	.LASF66
 7879 9194 0F       		.byte	0xf
 7880 9195 C3       		.byte	0xc3
 7881 9196 05       		.byte	0x5
 7882 9197 5F5A4E53 		.ascii "_ZNSt11__pair_baseIclEC4ERKS0_\0"
 7882      7431315F 
 7882      5F706169 
 7882      725F6261 
 7882      73654963 
 7883 91b6 01       		.byte	0x1
 7884 91b7 BF910000 		.long	0x91bf
 7885 91bb CA910000 		.long	0x91ca
 7886 91bf 02       		.uleb128 0x2
 7887 91c0 DBD50000 		.long	0xd5db
 7888 91c4 01       		.uleb128 0x1
 7889 91c5 E1D50000 		.long	0xd5e1
 7890 91c9 00       		.byte	0
 7891 91ca 7C       		.uleb128 0x7c
 7892 91cb D8000000 		.secrel32	.LASF12
 7893 91cf 0F       		.byte	0xf
 7894 91d0 C4       		.byte	0xc4
 7895 91d1 12       		.byte	0x12
 7896 91d2 5F5A4E53 		.ascii "_ZNSt11__pair_baseIclEaSERKS0_\0"
 7896      7431315F 
 7896      5F706169 
 7896      725F6261 
 7896      73654963 
 7897 91f1 E7D50000 		.long	0xd5e7
 7898 91f5 FD910000 		.long	0x91fd
 7899 91f9 08920000 		.long	0x9208
 7900 91fd 02       		.uleb128 0x2
 7901 91fe DBD50000 		.long	0xd5db
 7902 9202 01       		.uleb128 0x1
 7903 9203 E1D50000 		.long	0xd5e1
 7904 9207 00       		.byte	0
 7905 9208 16       		.uleb128 0x16
 7906 9209 5F553100 		.ascii "_U1\0"
 7907 920d F7B10000 		.long	0xb1f7
 7908 9211 16       		.uleb128 0x16
 7909 9212 5F553200 		.ascii "_U2\0"
 7910 9216 A8B20000 		.long	0xb2a8
 7911 921a 00       		.byte	0
 7912 921b 07       		.uleb128 0x7
 7913 921c F8900000 		.long	0x90f8
 7914 9220 2E       		.uleb128 0x2e
GAS LISTING C:\Users\Ilya\AppData\Local\Temp\ccxaKDG8.s 			page 209


 7915 9221 636F6E64 		.ascii "conditional<true, const std::pair<char, long int>&, const std::__nonesuch&>\0"
 7915      6974696F 
 7915      6E616C3C 
 7915      74727565 
 7915      2C20636F 
 7916 926d 01       		.byte	0x1
 7917 926e 0D       		.byte	0xd
 7918 926f 9808     		.word	0x898
 7919 9271 0C       		.byte	0xc
 7920 9272 85920000 		.long	0x9285
 7921 9276 24       		.uleb128 0x24
 7922 9277 74797065 		.ascii "type\0"
 7922      00
 7923 927c 0D       		.byte	0xd
 7924 927d 9908     		.word	0x899
 7925 927f 17       		.byte	0x17
 7926 9280 A6D40000 		.long	0xd4a6
 7927 9284 00       		.byte	0
 7928 9285 2E       		.uleb128 0x2e
 7929 9286 636F6E64 		.ascii "conditional<true, std::pair<char, long int>&&, std::__nonesuch&&>\0"
 7929      6974696F 
 7929      6E616C3C 
 7929      74727565 
 7929      2C207374 
 7930 92c8 01       		.byte	0x1
 7931 92c9 0D       		.byte	0xd
 7932 92ca 9808     		.word	0x898
 7933 92cc 0C       		.byte	0xc
 7934 92cd E0920000 		.long	0x92e0
 7935 92d1 24       		.uleb128 0x24
 7936 92d2 74797065 		.ascii "type\0"
 7936      00
 7937 92d7 0D       		.byte	0xd
 7938 92d8 9908     		.word	0x899
 7939 92da 17       		.byte	0x17
 7940 92db EDD50000 		.long	0xd5ed
 7941 92df 00       		.byte	0
 7942 92e0 7D       		.uleb128 0x7d
 7943 92e1 5F446573 		.ascii "_Destroy<std::pair<char, long int>*>\0"
 7943      74726F79 
 7943      3C737464 
 7943      3A3A7061 
 7943      69723C63 
 7944 9306 06       		.byte	0x6
 7945 9307 AB       		.byte	0xab
 7946 9308 05       		.byte	0x5
 7947 9309 5F5A5374 		.ascii "_ZSt8_DestroyIPSt4pairIclEEvT_S3_\0"
 7947      385F4465 
 7947      7374726F 
 7947      79495053 
 7947      74347061 
 7948 932b 43930000 		.long	0x9343
 7949 932f 12       		.uleb128 0x12
 7950 9330 FC010000 		.secrel32	.LASF49
 7951 9334 8ED40000 		.long	0xd48e
 7952 9338 01       		.uleb128 0x1
 7953 9339 8ED40000 		.long	0xd48e
GAS LISTING C:\Users\Ilya\AppData\Local\Temp\ccxaKDG8.s 			page 210


 7954 933d 01       		.uleb128 0x1
 7955 933e 8ED40000 		.long	0xd48e
 7956 9342 00       		.byte	0
 7957 9343 7E       		.uleb128 0x7e
 7958 9344 5F446573 		.ascii "_Destroy<std::pair<char, long int>*, std::pair<char, long int> >\0"
 7958      74726F79 
 7958      3C737464 
 7958      3A3A7061 
 7958      69723C63 
 7959 9385 04       		.byte	0x4
 7960 9386 DF02     		.word	0x2df
 7961 9388 05       		.byte	0x5
 7962 9389 5F5A5374 		.ascii "_ZSt8_DestroyIPSt4pairIclES1_EvT_S3_RSaIT0_E\0"
 7962      385F4465 
 7962      7374726F 
 7962      79495053 
 7962      74347061 
 7963 93b6 12       		.uleb128 0x12
 7964 93b7 FC010000 		.secrel32	.LASF49
 7965 93bb 8ED40000 		.long	0xd48e
 7966 93bf 16       		.uleb128 0x16
 7967 93c0 5F547000 		.ascii "_Tp\0"
 7968 93c4 D4620000 		.long	0x62d4
 7969 93c8 01       		.uleb128 0x1
 7970 93c9 8ED40000 		.long	0xd48e
 7971 93cd 01       		.uleb128 0x1
 7972 93ce 8ED40000 		.long	0xd48e
 7973 93d2 01       		.uleb128 0x1
 7974 93d3 BDD40000 		.long	0xd4bd
 7975 93d7 00       		.byte	0
 7976 93d8 00       		.byte	0
 7977 93d9 7F       		.uleb128 0x7f
 7978 93da 5F5F676E 		.ascii "__gnu_cxx\0"
 7978      755F6378 
 7978      7800
 7979 93e4 0C       		.byte	0xc
 7980 93e5 1C01     		.word	0x11c
 7981 93e7 0B       		.byte	0xb
 7982 93e8 DEB10000 		.long	0xb1de
 7983 93ec 57       		.uleb128 0x57
 7984 93ed 5F5F6378 		.ascii "__cxx11\0"
 7984      78313100 
 7985 93f5 0C       		.byte	0xc
 7986 93f6 1E01     		.word	0x11e
 7987 93f8 41       		.byte	0x41
 7988 93f9 3A       		.uleb128 0x3a
 7989 93fa 0C       		.byte	0xc
 7990 93fb 1E01     		.word	0x11e
 7991 93fd 41       		.byte	0x41
 7992 93fe EC930000 		.long	0x93ec
 7993 9402 03       		.uleb128 0x3
 7994 9403 0A       		.byte	0xa
 7995 9404 FB       		.byte	0xfb
 7996 9405 0B       		.byte	0xb
 7997 9406 01BE0000 		.long	0xbe01
 7998 940a 13       		.uleb128 0x13
 7999 940b 0A       		.byte	0xa
GAS LISTING C:\Users\Ilya\AppData\Local\Temp\ccxaKDG8.s 			page 211


 8000 940c 0401     		.word	0x104
 8001 940e 0B       		.byte	0xb
 8002 940f 30BE0000 		.long	0xbe30
 8003 9413 13       		.uleb128 0x13
 8004 9414 0A       		.byte	0xa
 8005 9415 0501     		.word	0x105
 8006 9417 0B       		.byte	0xb
 8007 9418 55BE0000 		.long	0xbe55
 8008 941c 54       		.uleb128 0x54
 8009 941d 5F5F6F70 		.ascii "__ops\0"
 8009      7300
 8010 9423 1E       		.byte	0x1e
 8011 9424 23       		.byte	0x23
 8012 9425 0B       		.byte	0xb
 8013 9426 28       		.uleb128 0x28
 8014 9427 6E65775F 		.ascii "new_allocator<char>\0"
 8014      616C6C6F 
 8014      6361746F 
 8014      723C6368 
 8014      61723E00 
 8015 943b 01       		.byte	0x1
 8016 943c 07       		.byte	0x7
 8017 943d 37       		.byte	0x37
 8018 943e 0B       		.byte	0xb
 8019 943f 1B970000 		.long	0x971b
 8020 9443 0F       		.uleb128 0xf
 8021 9444 FC030000 		.secrel32	.LASF67
 8022 9448 07       		.byte	0x7
 8023 9449 4F       		.byte	0x4f
 8024 944a 07       		.byte	0x7
 8025 944b 5F5A4E39 		.ascii "_ZN9__gnu_cxx13new_allocatorIcEC4Ev\0"
 8025      5F5F676E 
 8025      755F6378 
 8025      7831336E 
 8025      65775F61 
 8026 946f 01       		.byte	0x1
 8027 9470 78940000 		.long	0x9478
 8028 9474 7E940000 		.long	0x947e
 8029 9478 02       		.uleb128 0x2
 8030 9479 CCC10000 		.long	0xc1cc
 8031 947d 00       		.byte	0
 8032 947e 0F       		.uleb128 0xf
 8033 947f FC030000 		.secrel32	.LASF67
 8034 9483 07       		.byte	0x7
 8035 9484 52       		.byte	0x52
 8036 9485 07       		.byte	0x7
 8037 9486 5F5A4E39 		.ascii "_ZN9__gnu_cxx13new_allocatorIcEC4ERKS1_\0"
 8037      5F5F676E 
 8037      755F6378 
 8037      7831336E 
 8037      65775F61 
 8038 94ae 01       		.byte	0x1
 8039 94af B7940000 		.long	0x94b7
 8040 94b3 C2940000 		.long	0x94c2
 8041 94b7 02       		.uleb128 0x2
 8042 94b8 CCC10000 		.long	0xc1cc
 8043 94bc 01       		.uleb128 0x1
GAS LISTING C:\Users\Ilya\AppData\Local\Temp\ccxaKDG8.s 			page 212


 8044 94bd D2C10000 		.long	0xc1d2
 8045 94c1 00       		.byte	0
 8046 94c2 0F       		.uleb128 0xf
 8047 94c3 85040000 		.secrel32	.LASF68
 8048 94c7 07       		.byte	0x7
 8049 94c8 59       		.byte	0x59
 8050 94c9 07       		.byte	0x7
 8051 94ca 5F5A4E39 		.ascii "_ZN9__gnu_cxx13new_allocatorIcED4Ev\0"
 8051      5F5F676E 
 8051      755F6378 
 8051      7831336E 
 8051      65775F61 
 8052 94ee 01       		.byte	0x1
 8053 94ef F7940000 		.long	0x94f7
 8054 94f3 02950000 		.long	0x9502
 8055 94f7 02       		.uleb128 0x2
 8056 94f8 CCC10000 		.long	0xc1cc
 8057 94fc 02       		.uleb128 0x2
 8058 94fd 9CB20000 		.long	0xb29c
 8059 9501 00       		.byte	0
 8060 9502 0E       		.uleb128 0xe
 8061 9503 AB000000 		.secrel32	.LASF1
 8062 9507 07       		.byte	0x7
 8063 9508 3E       		.byte	0x3e
 8064 9509 1A       		.byte	0x1a
 8065 950a B4B20000 		.long	0xb2b4
 8066 950e 01       		.byte	0x1
 8067 950f 14       		.uleb128 0x14
 8068 9510 7A020000 		.secrel32	.LASF69
 8069 9514 07       		.byte	0x7
 8070 9515 5C       		.byte	0x5c
 8071 9516 07       		.byte	0x7
 8072 9517 5F5A4E4B 		.ascii "_ZNK9__gnu_cxx13new_allocatorIcE7addressERc\0"
 8072      395F5F67 
 8072      6E755F63 
 8072      78783133 
 8072      6E65775F 
 8073 9543 02950000 		.long	0x9502
 8074 9547 01       		.byte	0x1
 8075 9548 50950000 		.long	0x9550
 8076 954c 5B950000 		.long	0x955b
 8077 9550 02       		.uleb128 0x2
 8078 9551 D8C10000 		.long	0xc1d8
 8079 9555 01       		.uleb128 0x1
 8080 9556 5B950000 		.long	0x955b
 8081 955a 00       		.byte	0
 8082 955b 0E       		.uleb128 0xe
 8083 955c 45020000 		.secrel32	.LASF23
 8084 9560 07       		.byte	0x7
 8085 9561 40       		.byte	0x40
 8086 9562 1A       		.byte	0x1a
 8087 9563 DEC10000 		.long	0xc1de
 8088 9567 01       		.byte	0x1
 8089 9568 0E       		.uleb128 0xe
 8090 9569 6B000000 		.secrel32	.LASF4
 8091 956d 07       		.byte	0x7
 8092 956e 3F       		.byte	0x3f
GAS LISTING C:\Users\Ilya\AppData\Local\Temp\ccxaKDG8.s 			page 213


 8093 956f 1A       		.byte	0x1a
 8094 9570 89B70000 		.long	0xb789
 8095 9574 01       		.byte	0x1
 8096 9575 14       		.uleb128 0x14
 8097 9576 7A020000 		.secrel32	.LASF69
 8098 957a 07       		.byte	0x7
 8099 957b 60       		.byte	0x60
 8100 957c 07       		.byte	0x7
 8101 957d 5F5A4E4B 		.ascii "_ZNK9__gnu_cxx13new_allocatorIcE7addressERKc\0"
 8101      395F5F67 
 8101      6E755F63 
 8101      78783133 
 8101      6E65775F 
 8102 95aa 68950000 		.long	0x9568
 8103 95ae 01       		.byte	0x1
 8104 95af B7950000 		.long	0x95b7
 8105 95b3 C2950000 		.long	0x95c2
 8106 95b7 02       		.uleb128 0x2
 8107 95b8 D8C10000 		.long	0xc1d8
 8108 95bc 01       		.uleb128 0x1
 8109 95bd C2950000 		.long	0x95c2
 8110 95c1 00       		.byte	0
 8111 95c2 0E       		.uleb128 0xe
 8112 95c3 B0020000 		.secrel32	.LASF21
 8113 95c7 07       		.byte	0x7
 8114 95c8 41       		.byte	0x41
 8115 95c9 1A       		.byte	0x1a
 8116 95ca E4C10000 		.long	0xc1e4
 8117 95ce 01       		.byte	0x1
 8118 95cf 14       		.uleb128 0x14
 8119 95d0 AD040000 		.secrel32	.LASF50
 8120 95d4 07       		.byte	0x7
 8121 95d5 67       		.byte	0x67
 8122 95d6 07       		.byte	0x7
 8123 95d7 5F5A4E39 		.ascii "_ZN9__gnu_cxx13new_allocatorIcE8allocateEyPKv\0"
 8123      5F5F676E 
 8123      755F6378 
 8123      7831336E 
 8123      65775F61 
 8124 9605 B4B20000 		.long	0xb2b4
 8125 9609 01       		.byte	0x1
 8126 960a 12960000 		.long	0x9612
 8127 960e 22960000 		.long	0x9622
 8128 9612 02       		.uleb128 0x2
 8129 9613 CCC10000 		.long	0xc1cc
 8130 9617 01       		.uleb128 0x1
 8131 9618 22960000 		.long	0x9622
 8132 961c 01       		.uleb128 0x1
 8133 961d C4C10000 		.long	0xc1c4
 8134 9621 00       		.byte	0
 8135 9622 0E       		.uleb128 0xe
 8136 9623 B3000000 		.secrel32	.LASF2
 8137 9627 07       		.byte	0x7
 8138 9628 3B       		.byte	0x3b
 8139 9629 1F       		.byte	0x1f
 8140 962a 7A510000 		.long	0x517a
 8141 962e 01       		.byte	0x1
GAS LISTING C:\Users\Ilya\AppData\Local\Temp\ccxaKDG8.s 			page 214


 8142 962f 0F       		.uleb128 0xf
 8143 9630 1E020000 		.secrel32	.LASF52
 8144 9634 07       		.byte	0x7
 8145 9635 78       		.byte	0x78
 8146 9636 07       		.byte	0x7
 8147 9637 5F5A4E39 		.ascii "_ZN9__gnu_cxx13new_allocatorIcE10deallocateEPcy\0"
 8147      5F5F676E 
 8147      755F6378 
 8147      7831336E 
 8147      65775F61 
 8148 9667 01       		.byte	0x1
 8149 9668 70960000 		.long	0x9670
 8150 966c 80960000 		.long	0x9680
 8151 9670 02       		.uleb128 0x2
 8152 9671 CCC10000 		.long	0xc1cc
 8153 9675 01       		.uleb128 0x1
 8154 9676 B4B20000 		.long	0xb2b4
 8155 967a 01       		.uleb128 0x1
 8156 967b 22960000 		.long	0x9622
 8157 967f 00       		.byte	0
 8158 9680 14       		.uleb128 0x14
 8159 9681 50040000 		.secrel32	.LASF17
 8160 9685 07       		.byte	0x7
 8161 9686 8E       		.byte	0x8e
 8162 9687 07       		.byte	0x7
 8163 9688 5F5A4E4B 		.ascii "_ZNK9__gnu_cxx13new_allocatorIcE8max_sizeEv\0"
 8163      395F5F67 
 8163      6E755F63 
 8163      78783133 
 8163      6E65775F 
 8164 96b4 22960000 		.long	0x9622
 8165 96b8 01       		.byte	0x1
 8166 96b9 C1960000 		.long	0x96c1
 8167 96bd C7960000 		.long	0x96c7
 8168 96c1 02       		.uleb128 0x2
 8169 96c2 D8C10000 		.long	0xc1d8
 8170 96c6 00       		.byte	0
 8171 96c7 2D       		.uleb128 0x2d
 8172 96c8 E7010000 		.secrel32	.LASF70
 8173 96cc 07       		.byte	0x7
 8174 96cd B9       		.byte	0xb9
 8175 96ce 07       		.byte	0x7
 8176 96cf 5F5A4E4B 		.ascii "_ZNK9__gnu_cxx13new_allocatorIcE11_M_max_sizeEv\0"
 8176      395F5F67 
 8176      6E755F63 
 8176      78783133 
 8176      6E65775F 
 8177 96ff 22960000 		.long	0x9622
 8178 9703 0B970000 		.long	0x970b
 8179 9707 11970000 		.long	0x9711
 8180 970b 02       		.uleb128 0x2
 8181 970c D8C10000 		.long	0xc1d8
 8182 9710 00       		.byte	0
 8183 9711 16       		.uleb128 0x16
 8184 9712 5F547000 		.ascii "_Tp\0"
 8185 9716 F7B10000 		.long	0xb1f7
 8186 971a 00       		.byte	0
GAS LISTING C:\Users\Ilya\AppData\Local\Temp\ccxaKDG8.s 			page 215


 8187 971b 07       		.uleb128 0x7
 8188 971c 26940000 		.long	0x9426
 8189 9720 03       		.uleb128 0x3
 8190 9721 14       		.byte	0x14
 8191 9722 C8       		.byte	0xc8
 8192 9723 0B       		.byte	0xb
 8193 9724 AAC20000 		.long	0xc2aa
 8194 9728 03       		.uleb128 0x3
 8195 9729 14       		.byte	0x14
 8196 972a D8       		.byte	0xd8
 8197 972b 0B       		.byte	0xb
 8198 972c 2FC50000 		.long	0xc52f
 8199 9730 03       		.uleb128 0x3
 8200 9731 14       		.byte	0x14
 8201 9732 E3       		.byte	0xe3
 8202 9733 0B       		.byte	0xb
 8203 9734 4DC50000 		.long	0xc54d
 8204 9738 03       		.uleb128 0x3
 8205 9739 14       		.byte	0x14
 8206 973a E4       		.byte	0xe4
 8207 973b 0B       		.byte	0xb
 8208 973c 66C50000 		.long	0xc566
 8209 9740 03       		.uleb128 0x3
 8210 9741 14       		.byte	0x14
 8211 9742 E5       		.byte	0xe5
 8212 9743 0B       		.byte	0xb
 8213 9744 8BC50000 		.long	0xc58b
 8214 9748 03       		.uleb128 0x3
 8215 9749 14       		.byte	0x14
 8216 974a E7       		.byte	0xe7
 8217 974b 0B       		.byte	0xb
 8218 974c B1C50000 		.long	0xc5b1
 8219 9750 03       		.uleb128 0x3
 8220 9751 14       		.byte	0x14
 8221 9752 E8       		.byte	0xe8
 8222 9753 0B       		.byte	0xb
 8223 9754 D0C50000 		.long	0xc5d0
 8224 9758 8001     		.uleb128 0x80
 8225 975a 64697600 		.ascii "div\0"
 8226 975e 14       		.byte	0x14
 8227 975f D5       		.byte	0xd5
 8228 9760 03       		.byte	0x3
 8229 9761 5F5A4E39 		.ascii "_ZN9__gnu_cxx3divExx\0"
 8229      5F5F676E 
 8229      755F6378 
 8229      78336469 
 8229      76457878 
 8230 9776 AAC20000 		.long	0xc2aa
 8231 977a 89970000 		.long	0x9789
 8232 977e 01       		.uleb128 0x1
 8233 977f 32B20000 		.long	0xb232
 8234 9783 01       		.uleb128 0x1
 8235 9784 32B20000 		.long	0xb232
 8236 9788 00       		.byte	0
 8237 9789 03       		.uleb128 0x3
 8238 978a 15       		.byte	0x15
 8239 978b AF       		.byte	0xaf
GAS LISTING C:\Users\Ilya\AppData\Local\Temp\ccxaKDG8.s 			page 216


 8240 978c 0B       		.byte	0xb
 8241 978d DDC90000 		.long	0xc9dd
 8242 9791 03       		.uleb128 0x3
 8243 9792 15       		.byte	0x15
 8244 9793 B0       		.byte	0xb0
 8245 9794 0B       		.byte	0xb
 8246 9795 04CA0000 		.long	0xca04
 8247 9799 03       		.uleb128 0x3
 8248 979a 15       		.byte	0x15
 8249 979b B1       		.byte	0xb1
 8250 979c 0B       		.byte	0xb
 8251 979d 29CA0000 		.long	0xca29
 8252 97a1 03       		.uleb128 0x3
 8253 97a2 15       		.byte	0x15
 8254 97a3 B2       		.byte	0xb2
 8255 97a4 0B       		.byte	0xb
 8256 97a5 48CA0000 		.long	0xca48
 8257 97a9 03       		.uleb128 0x3
 8258 97aa 15       		.byte	0x15
 8259 97ab B3       		.byte	0xb3
 8260 97ac 0B       		.byte	0xb
 8261 97ad 74CA0000 		.long	0xca74
 8262 97b1 15       		.uleb128 0x15
 8263 97b2 5F5F616C 		.ascii "__alloc_traits<std::allocator<char>, char>\0"
 8263      6C6F635F 
 8263      74726169 
 8263      74733C73 
 8263      74643A3A 
 8264 97dd 01       		.byte	0x1
 8265 97de 1F       		.byte	0x1f
 8266 97df 30       		.byte	0x30
 8267 97e0 0A       		.byte	0xa
 8268 97e1 AC9A0000 		.long	0x9aac
 8269 97e5 03       		.uleb128 0x3
 8270 97e6 1F       		.byte	0x1f
 8271 97e7 30       		.byte	0x30
 8272 97e8 0A       		.byte	0xa
 8273 97e9 3D5C0000 		.long	0x5c3d
 8274 97ed 03       		.uleb128 0x3
 8275 97ee 1F       		.byte	0x1f
 8276 97ef 30       		.byte	0x30
 8277 97f0 0A       		.byte	0xa
 8278 97f1 D45B0000 		.long	0x5bd4
 8279 97f5 03       		.uleb128 0x3
 8280 97f6 1F       		.byte	0x1f
 8281 97f7 30       		.byte	0x30
 8282 97f8 0A       		.byte	0xa
 8283 97f9 9C5C0000 		.long	0x5c9c
 8284 97fd 03       		.uleb128 0x3
 8285 97fe 1F       		.byte	0x1f
 8286 97ff 30       		.byte	0x30
 8287 9800 0A       		.byte	0xa
 8288 9801 EC5C0000 		.long	0x5cec
 8289 9805 33       		.uleb128 0x33
 8290 9806 955B0000 		.long	0x5b95
 8291 980a 00       		.byte	0
 8292 980b 5F       		.uleb128 0x5f
GAS LISTING C:\Users\Ilya\AppData\Local\Temp\ccxaKDG8.s 			page 217


 8293 980c F9020000 		.secrel32	.LASF71
 8294 9810 1F       		.byte	0x1f
 8295 9811 61       		.byte	0x61
 8296 9812 1D       		.byte	0x1d
 8297 9813 5F5A4E39 		.ascii "_ZN9__gnu_cxx14__alloc_traitsISaIcEcE17_S_select_on_copyERKS1_\0"
 8297      5F5F676E 
 8297      755F6378 
 8297      7831345F 
 8297      5F616C6C 
 8298 9852 FD570000 		.long	0x57fd
 8299 9856 60980000 		.long	0x9860
 8300 985a 01       		.uleb128 0x1
 8301 985b F0C10000 		.long	0xc1f0
 8302 985f 00       		.byte	0
 8303 9860 60       		.uleb128 0x60
 8304 9861 CD000000 		.secrel32	.LASF72
 8305 9865 1F       		.byte	0x1f
 8306 9866 64       		.byte	0x64
 8307 9867 26       		.byte	0x26
 8308 9868 5F5A4E39 		.ascii "_ZN9__gnu_cxx14__alloc_traitsISaIcEcE10_S_on_swapERS1_S3_\0"
 8308      5F5F676E 
 8308      755F6378 
 8308      7831345F 
 8308      5F616C6C 
 8309 98a2 B1980000 		.long	0x98b1
 8310 98a6 01       		.uleb128 0x1
 8311 98a7 F6C10000 		.long	0xc1f6
 8312 98ab 01       		.uleb128 0x1
 8313 98ac F6C10000 		.long	0xc1f6
 8314 98b0 00       		.byte	0
 8315 98b1 22       		.uleb128 0x22
 8316 98b2 29020000 		.secrel32	.LASF73
 8317 98b6 1F       		.byte	0x1f
 8318 98b7 67       		.byte	0x67
 8319 98b8 1B       		.byte	0x1b
 8320 98b9 5F5A4E39 		.ascii "_ZN9__gnu_cxx14__alloc_traitsISaIcEcE27_S_propagate_on_copy_assignEv\0"
 8320      5F5F676E 
 8320      755F6378 
 8320      7831345F 
 8320      5F616C6C 
 8321 98fe B0BE0000 		.long	0xbeb0
 8322 9902 22       		.uleb128 0x22
 8323 9903 E8000000 		.secrel32	.LASF74
 8324 9907 1F       		.byte	0x1f
 8325 9908 6A       		.byte	0x6a
 8326 9909 1B       		.byte	0x1b
 8327 990a 5F5A4E39 		.ascii "_ZN9__gnu_cxx14__alloc_traitsISaIcEcE27_S_propagate_on_move_assignEv\0"
 8327      5F5F676E 
 8327      755F6378 
 8327      7831345F 
 8327      5F616C6C 
 8328 994f B0BE0000 		.long	0xbeb0
 8329 9953 22       		.uleb128 0x22
 8330 9954 70040000 		.secrel32	.LASF75
 8331 9958 1F       		.byte	0x1f
 8332 9959 6D       		.byte	0x6d
 8333 995a 1B       		.byte	0x1b
GAS LISTING C:\Users\Ilya\AppData\Local\Temp\ccxaKDG8.s 			page 218


 8334 995b 5F5A4E39 		.ascii "_ZN9__gnu_cxx14__alloc_traitsISaIcEcE20_S_propagate_on_swapEv\0"
 8334      5F5F676E 
 8334      755F6378 
 8334      7831345F 
 8334      5F616C6C 
 8335 9999 B0BE0000 		.long	0xbeb0
 8336 999d 22       		.uleb128 0x22
 8337 999e BD000000 		.secrel32	.LASF76
 8338 99a2 1F       		.byte	0x1f
 8339 99a3 70       		.byte	0x70
 8340 99a4 1B       		.byte	0x1b
 8341 99a5 5F5A4E39 		.ascii "_ZN9__gnu_cxx14__alloc_traitsISaIcEcE15_S_always_equalEv\0"
 8341      5F5F676E 
 8341      755F6378 
 8341      7831345F 
 8341      5F616C6C 
 8342 99de B0BE0000 		.long	0xbeb0
 8343 99e2 22       		.uleb128 0x22
 8344 99e3 5D010000 		.secrel32	.LASF77
 8345 99e7 1F       		.byte	0x1f
 8346 99e8 73       		.byte	0x73
 8347 99e9 1B       		.byte	0x1b
 8348 99ea 5F5A4E39 		.ascii "_ZN9__gnu_cxx14__alloc_traitsISaIcEcE15_S_nothrow_moveEv\0"
 8348      5F5F676E 
 8348      755F6378 
 8348      7831345F 
 8348      5F616C6C 
 8349 9a23 B0BE0000 		.long	0xbeb0
 8350 9a27 10       		.uleb128 0x10
 8351 9a28 A2040000 		.secrel32	.LASF42
 8352 9a2c 1F       		.byte	0x1f
 8353 9a2d 38       		.byte	0x38
 8354 9a2e 35       		.byte	0x35
 8355 9a2f 945D0000 		.long	0x5d94
 8356 9a33 07       		.uleb128 0x7
 8357 9a34 279A0000 		.long	0x9a27
 8358 9a38 10       		.uleb128 0x10
 8359 9a39 AB000000 		.secrel32	.LASF1
 8360 9a3d 1F       		.byte	0x1f
 8361 9a3e 39       		.byte	0x39
 8362 9a3f 35       		.byte	0x35
 8363 9a40 C75B0000 		.long	0x5bc7
 8364 9a44 10       		.uleb128 0x10
 8365 9a45 6B000000 		.secrel32	.LASF4
 8366 9a49 1F       		.byte	0x1f
 8367 9a4a 3A       		.byte	0x3a
 8368 9a4b 35       		.byte	0x35
 8369 9a4c A15D0000 		.long	0x5da1
 8370 9a50 10       		.uleb128 0x10
 8371 9a51 B3000000 		.secrel32	.LASF2
 8372 9a55 1F       		.byte	0x1f
 8373 9a56 3B       		.byte	0x3b
 8374 9a57 35       		.byte	0x35
 8375 9a58 305C0000 		.long	0x5c30
 8376 9a5c 10       		.uleb128 0x10
 8377 9a5d 45020000 		.secrel32	.LASF23
 8378 9a61 1F       		.byte	0x1f
GAS LISTING C:\Users\Ilya\AppData\Local\Temp\ccxaKDG8.s 			page 219


 8379 9a62 3E       		.byte	0x3e
 8380 9a63 35       		.byte	0x35
 8381 9a64 A5CA0000 		.long	0xcaa5
 8382 9a68 10       		.uleb128 0x10
 8383 9a69 B0020000 		.secrel32	.LASF21
 8384 9a6d 1F       		.byte	0x1f
 8385 9a6e 3F       		.byte	0x3f
 8386 9a6f 35       		.byte	0x35
 8387 9a70 ABCA0000 		.long	0xcaab
 8388 9a74 15       		.uleb128 0x15
 8389 9a75 72656269 		.ascii "rebind<char>\0"
 8389      6E643C63 
 8389      6861723E 
 8389      00
 8390 9a82 01       		.byte	0x1
 8391 9a83 1F       		.byte	0x1f
 8392 9a84 77       		.byte	0x77
 8393 9a85 0E       		.byte	0xe
 8394 9a86 A29A0000 		.long	0x9aa2
 8395 9a8a 0A       		.uleb128 0xa
 8396 9a8b 6F746865 		.ascii "other\0"
 8396      7200
 8397 9a91 1F       		.byte	0x1f
 8398 9a92 78       		.byte	0x78
 8399 9a93 41       		.byte	0x41
 8400 9a94 AE5D0000 		.long	0x5dae
 8401 9a98 16       		.uleb128 0x16
 8402 9a99 5F547000 		.ascii "_Tp\0"
 8403 9a9d F7B10000 		.long	0xb1f7
 8404 9aa1 00       		.byte	0
 8405 9aa2 12       		.uleb128 0x12
 8406 9aa3 9B040000 		.secrel32	.LASF40
 8407 9aa7 FD570000 		.long	0x57fd
 8408 9aab 00       		.byte	0
 8409 9aac 48       		.uleb128 0x48
 8410 9aad 5F5F6E6F 		.ascii "__normal_iterator<char*, std::__cxx11::basic_string<char, std::char_traits<char>, std::all
 8410      726D616C 
 8410      5F697465 
 8410      7261746F 
 8410      723C6368 
 8411 9b18 08       		.byte	0x8
 8412 9b19 20       		.byte	0x20
 8413 9b1a A203     		.word	0x3a2
 8414 9b1c 0B       		.byte	0xb
 8415 9b1d 39A20000 		.long	0xa239
 8416 9b21 61       		.uleb128 0x61
 8417 9b22 6D010000 		.secrel32	.LASF78
 8418 9b26 20       		.byte	0x20
 8419 9b27 A503     		.word	0x3a5
 8420 9b29 11       		.byte	0x11
 8421 9b2a B4B20000 		.long	0xb2b4
 8422 9b2e 00       		.byte	0
 8423 9b2f 02       		.byte	0x2
 8424 9b30 0C       		.uleb128 0xc
 8425 9b31 82020000 		.secrel32	.LASF79
 8426 9b35 20       		.byte	0x20
 8427 9b36 B503     		.word	0x3b5
GAS LISTING C:\Users\Ilya\AppData\Local\Temp\ccxaKDG8.s 			page 220


 8428 9b38 1A       		.byte	0x1a
 8429 9b39 5F5A4E39 		.ascii "_ZN9__gnu_cxx17__normal_iteratorIPcNSt7__cxx1112basic_stringIcSt11char_traitsIcESaIcEEEEC4
 8429      5F5F676E 
 8429      755F6378 
 8429      7831375F 
 8429      5F6E6F72 
 8430 9b96 01       		.byte	0x1
 8431 9b97 9F9B0000 		.long	0x9b9f
 8432 9b9b A59B0000 		.long	0x9ba5
 8433 9b9f 02       		.uleb128 0x2
 8434 9ba0 F3D50000 		.long	0xd5f3
 8435 9ba4 00       		.byte	0
 8436 9ba5 34       		.uleb128 0x34
 8437 9ba6 82020000 		.secrel32	.LASF79
 8438 9baa 20       		.byte	0x20
 8439 9bab B903     		.word	0x3b9
 8440 9bad 07       		.byte	0x7
 8441 9bae 5F5A4E39 		.ascii "_ZN9__gnu_cxx17__normal_iteratorIPcNSt7__cxx1112basic_stringIcSt11char_traitsIcESaIcEEEEC4
 8441      5F5F676E 
 8441      755F6378 
 8441      7831375F 
 8441      5F6E6F72 
 8442 9c0f 01       		.byte	0x1
 8443 9c10 189C0000 		.long	0x9c18
 8444 9c14 239C0000 		.long	0x9c23
 8445 9c18 02       		.uleb128 0x2
 8446 9c19 F3D50000 		.long	0xd5f3
 8447 9c1d 01       		.uleb128 0x1
 8448 9c1e F9D50000 		.long	0xd5f9
 8449 9c22 00       		.byte	0
 8450 9c23 18       		.uleb128 0x18
 8451 9c24 45020000 		.secrel32	.LASF23
 8452 9c28 20       		.byte	0x20
 8453 9c29 AE03     		.word	0x3ae
 8454 9c2b 32       		.byte	0x32
 8455 9c2c A0900000 		.long	0x90a0
 8456 9c30 01       		.byte	0x1
 8457 9c31 04       		.uleb128 0x4
 8458 9c32 8F000000 		.secrel32	.LASF80
 8459 9c36 20       		.byte	0x20
 8460 9c37 C803     		.word	0x3c8
 8461 9c39 07       		.byte	0x7
 8462 9c3a 5F5A4E4B 		.ascii "_ZNK9__gnu_cxx17__normal_iteratorIPcNSt7__cxx1112basic_stringIcSt11char_traitsIcESaIcEEEEd
 8462      395F5F67 
 8462      6E755F63 
 8462      78783137 
 8462      5F5F6E6F 
 8463 9c98 239C0000 		.long	0x9c23
 8464 9c9c 01       		.byte	0x1
 8465 9c9d A59C0000 		.long	0x9ca5
 8466 9ca1 AB9C0000 		.long	0x9cab
 8467 9ca5 02       		.uleb128 0x2
 8468 9ca6 FFD50000 		.long	0xd5ff
 8469 9caa 00       		.byte	0
 8470 9cab 18       		.uleb128 0x18
 8471 9cac AB000000 		.secrel32	.LASF1
 8472 9cb0 20       		.byte	0x20
GAS LISTING C:\Users\Ilya\AppData\Local\Temp\ccxaKDG8.s 			page 221


 8473 9cb1 AF03     		.word	0x3af
 8474 9cb3 32       		.byte	0x32
 8475 9cb4 94900000 		.long	0x9094
 8476 9cb8 01       		.byte	0x1
 8477 9cb9 04       		.uleb128 0x4
 8478 9cba CD030000 		.secrel32	.LASF81
 8479 9cbe 20       		.byte	0x20
 8480 9cbf CD03     		.word	0x3cd
 8481 9cc1 07       		.byte	0x7
 8482 9cc2 5F5A4E4B 		.ascii "_ZNK9__gnu_cxx17__normal_iteratorIPcNSt7__cxx1112basic_stringIcSt11char_traitsIcESaIcEEEEp
 8482      395F5F67 
 8482      6E755F63 
 8482      78783137 
 8482      5F5F6E6F 
 8483 9d20 AB9C0000 		.long	0x9cab
 8484 9d24 01       		.byte	0x1
 8485 9d25 2D9D0000 		.long	0x9d2d
 8486 9d29 339D0000 		.long	0x9d33
 8487 9d2d 02       		.uleb128 0x2
 8488 9d2e FFD50000 		.long	0xd5ff
 8489 9d32 00       		.byte	0
 8490 9d33 04       		.uleb128 0x4
 8491 9d34 4F020000 		.secrel32	.LASF82
 8492 9d38 20       		.byte	0x20
 8493 9d39 D203     		.word	0x3d2
 8494 9d3b 07       		.byte	0x7
 8495 9d3c 5F5A4E39 		.ascii "_ZN9__gnu_cxx17__normal_iteratorIPcNSt7__cxx1112basic_stringIcSt11char_traitsIcESaIcEEEEpp
 8495      5F5F676E 
 8495      755F6378 
 8495      7831375F 
 8495      5F6E6F72 
 8496 9d99 05D60000 		.long	0xd605
 8497 9d9d 01       		.byte	0x1
 8498 9d9e A69D0000 		.long	0x9da6
 8499 9da2 AC9D0000 		.long	0x9dac
 8500 9da6 02       		.uleb128 0x2
 8501 9da7 F3D50000 		.long	0xd5f3
 8502 9dab 00       		.byte	0
 8503 9dac 04       		.uleb128 0x4
 8504 9dad 4F020000 		.secrel32	.LASF82
 8505 9db1 20       		.byte	0x20
 8506 9db2 DA03     		.word	0x3da
 8507 9db4 07       		.byte	0x7
 8508 9db5 5F5A4E39 		.ascii "_ZN9__gnu_cxx17__normal_iteratorIPcNSt7__cxx1112basic_stringIcSt11char_traitsIcESaIcEEEEpp
 8508      5F5F676E 
 8508      755F6378 
 8508      7831375F 
 8508      5F6E6F72 
 8509 9e12 AC9A0000 		.long	0x9aac
 8510 9e16 01       		.byte	0x1
 8511 9e17 1F9E0000 		.long	0x9e1f
 8512 9e1b 2A9E0000 		.long	0x9e2a
 8513 9e1f 02       		.uleb128 0x2
 8514 9e20 F3D50000 		.long	0xd5f3
 8515 9e24 01       		.uleb128 0x1
 8516 9e25 9CB20000 		.long	0xb29c
 8517 9e29 00       		.byte	0
GAS LISTING C:\Users\Ilya\AppData\Local\Temp\ccxaKDG8.s 			page 222


 8518 9e2a 04       		.uleb128 0x4
 8519 9e2b AF030000 		.secrel32	.LASF83
 8520 9e2f 20       		.byte	0x20
 8521 9e30 E003     		.word	0x3e0
 8522 9e32 07       		.byte	0x7
 8523 9e33 5F5A4E39 		.ascii "_ZN9__gnu_cxx17__normal_iteratorIPcNSt7__cxx1112basic_stringIcSt11char_traitsIcESaIcEEEEmm
 8523      5F5F676E 
 8523      755F6378 
 8523      7831375F 
 8523      5F6E6F72 
 8524 9e90 05D60000 		.long	0xd605
 8525 9e94 01       		.byte	0x1
 8526 9e95 9D9E0000 		.long	0x9e9d
 8527 9e99 A39E0000 		.long	0x9ea3
 8528 9e9d 02       		.uleb128 0x2
 8529 9e9e F3D50000 		.long	0xd5f3
 8530 9ea2 00       		.byte	0
 8531 9ea3 04       		.uleb128 0x4
 8532 9ea4 AF030000 		.secrel32	.LASF83
 8533 9ea8 20       		.byte	0x20
 8534 9ea9 E803     		.word	0x3e8
 8535 9eab 07       		.byte	0x7
 8536 9eac 5F5A4E39 		.ascii "_ZN9__gnu_cxx17__normal_iteratorIPcNSt7__cxx1112basic_stringIcSt11char_traitsIcESaIcEEEEmm
 8536      5F5F676E 
 8536      755F6378 
 8536      7831375F 
 8536      5F6E6F72 
 8537 9f09 AC9A0000 		.long	0x9aac
 8538 9f0d 01       		.byte	0x1
 8539 9f0e 169F0000 		.long	0x9f16
 8540 9f12 219F0000 		.long	0x9f21
 8541 9f16 02       		.uleb128 0x2
 8542 9f17 F3D50000 		.long	0xd5f3
 8543 9f1b 01       		.uleb128 0x1
 8544 9f1c 9CB20000 		.long	0xb29c
 8545 9f20 00       		.byte	0
 8546 9f21 04       		.uleb128 0x4
 8547 9f22 65040000 		.secrel32	.LASF22
 8548 9f26 20       		.byte	0x20
 8549 9f27 EE03     		.word	0x3ee
 8550 9f29 07       		.byte	0x7
 8551 9f2a 5F5A4E4B 		.ascii "_ZNK9__gnu_cxx17__normal_iteratorIPcNSt7__cxx1112basic_stringIcSt11char_traitsIcESaIcEEEEi
 8551      395F5F67 
 8551      6E755F63 
 8551      78783137 
 8551      5F5F6E6F 
 8552 9f88 239C0000 		.long	0x9c23
 8553 9f8c 01       		.byte	0x1
 8554 9f8d 959F0000 		.long	0x9f95
 8555 9f91 A09F0000 		.long	0x9fa0
 8556 9f95 02       		.uleb128 0x2
 8557 9f96 FFD50000 		.long	0xd5ff
 8558 9f9a 01       		.uleb128 0x1
 8559 9f9b A09F0000 		.long	0x9fa0
 8560 9f9f 00       		.byte	0
 8561 9fa0 18       		.uleb128 0x18
 8562 9fa1 A1010000 		.secrel32	.LASF65
GAS LISTING C:\Users\Ilya\AppData\Local\Temp\ccxaKDG8.s 			page 223


 8563 9fa5 20       		.byte	0x20
 8564 9fa6 AD03     		.word	0x3ad
 8565 9fa8 38       		.byte	0x38
 8566 9fa9 88900000 		.long	0x9088
 8567 9fad 01       		.byte	0x1
 8568 9fae 04       		.uleb128 0x4
 8569 9faf 88030000 		.secrel32	.LASF25
 8570 9fb3 20       		.byte	0x20
 8571 9fb4 F303     		.word	0x3f3
 8572 9fb6 07       		.byte	0x7
 8573 9fb7 5F5A4E39 		.ascii "_ZN9__gnu_cxx17__normal_iteratorIPcNSt7__cxx1112basic_stringIcSt11char_traitsIcESaIcEEEEpL
 8573      5F5F676E 
 8573      755F6378 
 8573      7831375F 
 8573      5F6E6F72 
 8574 a014 05D60000 		.long	0xd605
 8575 a018 01       		.byte	0x1
 8576 a019 21A00000 		.long	0xa021
 8577 a01d 2CA00000 		.long	0xa02c
 8578 a021 02       		.uleb128 0x2
 8579 a022 F3D50000 		.long	0xd5f3
 8580 a026 01       		.uleb128 0x1
 8581 a027 A09F0000 		.long	0x9fa0
 8582 a02b 00       		.byte	0
 8583 a02c 04       		.uleb128 0x4
 8584 a02d 0B030000 		.secrel32	.LASF84
 8585 a031 20       		.byte	0x20
 8586 a032 F803     		.word	0x3f8
 8587 a034 07       		.byte	0x7
 8588 a035 5F5A4E4B 		.ascii "_ZNK9__gnu_cxx17__normal_iteratorIPcNSt7__cxx1112basic_stringIcSt11char_traitsIcESaIcEEEEp
 8588      395F5F67 
 8588      6E755F63 
 8588      78783137 
 8588      5F5F6E6F 
 8589 a093 AC9A0000 		.long	0x9aac
 8590 a097 01       		.byte	0x1
 8591 a098 A0A00000 		.long	0xa0a0
 8592 a09c ABA00000 		.long	0xa0ab
 8593 a0a0 02       		.uleb128 0x2
 8594 a0a1 FFD50000 		.long	0xd5ff
 8595 a0a5 01       		.uleb128 0x1
 8596 a0a6 A09F0000 		.long	0x9fa0
 8597 a0aa 00       		.byte	0
 8598 a0ab 04       		.uleb128 0x4
 8599 a0ac C2030000 		.secrel32	.LASF85
 8600 a0b0 20       		.byte	0x20
 8601 a0b1 FD03     		.word	0x3fd
 8602 a0b3 07       		.byte	0x7
 8603 a0b4 5F5A4E39 		.ascii "_ZN9__gnu_cxx17__normal_iteratorIPcNSt7__cxx1112basic_stringIcSt11char_traitsIcESaIcEEEEmI
 8603      5F5F676E 
 8603      755F6378 
 8603      7831375F 
 8603      5F6E6F72 
 8604 a111 05D60000 		.long	0xd605
 8605 a115 01       		.byte	0x1
 8606 a116 1EA10000 		.long	0xa11e
 8607 a11a 29A10000 		.long	0xa129
GAS LISTING C:\Users\Ilya\AppData\Local\Temp\ccxaKDG8.s 			page 224


 8608 a11e 02       		.uleb128 0x2
 8609 a11f F3D50000 		.long	0xd5f3
 8610 a123 01       		.uleb128 0x1
 8611 a124 A09F0000 		.long	0x9fa0
 8612 a128 00       		.byte	0
 8613 a129 04       		.uleb128 0x4
 8614 a12a 15030000 		.secrel32	.LASF86
 8615 a12e 20       		.byte	0x20
 8616 a12f 0204     		.word	0x402
 8617 a131 07       		.byte	0x7
 8618 a132 5F5A4E4B 		.ascii "_ZNK9__gnu_cxx17__normal_iteratorIPcNSt7__cxx1112basic_stringIcSt11char_traitsIcESaIcEEEEm
 8618      395F5F67 
 8618      6E755F63 
 8618      78783137 
 8618      5F5F6E6F 
 8619 a190 AC9A0000 		.long	0x9aac
 8620 a194 01       		.byte	0x1
 8621 a195 9DA10000 		.long	0xa19d
 8622 a199 A8A10000 		.long	0xa1a8
 8623 a19d 02       		.uleb128 0x2
 8624 a19e FFD50000 		.long	0xd5ff
 8625 a1a2 01       		.uleb128 0x1
 8626 a1a3 A09F0000 		.long	0x9fa0
 8627 a1a7 00       		.byte	0
 8628 a1a8 0B       		.uleb128 0xb
 8629 a1a9 62617365 		.ascii "base\0"
 8629      00
 8630 a1ae 20       		.byte	0x20
 8631 a1af 0704     		.word	0x407
 8632 a1b1 07       		.byte	0x7
 8633 a1b2 5F5A4E4B 		.ascii "_ZNK9__gnu_cxx17__normal_iteratorIPcNSt7__cxx1112basic_stringIcSt11char_traitsIcESaIcEEEE4
 8633      395F5F67 
 8633      6E755F63 
 8633      78783137 
 8633      5F5F6E6F 
 8634 a213 F9D50000 		.long	0xd5f9
 8635 a217 01       		.byte	0x1
 8636 a218 20A20000 		.long	0xa220
 8637 a21c 26A20000 		.long	0xa226
 8638 a220 02       		.uleb128 0x2
 8639 a221 FFD50000 		.long	0xd5ff
 8640 a225 00       		.byte	0
 8641 a226 12       		.uleb128 0x12
 8642 a227 A6020000 		.secrel32	.LASF87
 8643 a22b B4B20000 		.long	0xb2b4
 8644 a22f 12       		.uleb128 0x12
 8645 a230 2C040000 		.secrel32	.LASF88
 8646 a234 B0000000 		.long	0xb0
 8647 a238 00       		.byte	0
 8648 a239 07       		.uleb128 0x7
 8649 a23a AC9A0000 		.long	0x9aac
 8650 a23e 48       		.uleb128 0x48
 8651 a23f 5F5F6E6F 		.ascii "__normal_iterator<char const*, std::__cxx11::basic_string<char, std::char_traits<char>, st
 8651      726D616C 
 8651      5F697465 
 8651      7261746F 
 8651      723C6368 
GAS LISTING C:\Users\Ilya\AppData\Local\Temp\ccxaKDG8.s 			page 225


 8652 a2b0 08       		.byte	0x8
 8653 a2b1 20       		.byte	0x20
 8654 a2b2 A203     		.word	0x3a2
 8655 a2b4 0B       		.byte	0xb
 8656 a2b5 DFA90000 		.long	0xa9df
 8657 a2b9 61       		.uleb128 0x61
 8658 a2ba 6D010000 		.secrel32	.LASF78
 8659 a2be 20       		.byte	0x20
 8660 a2bf A503     		.word	0x3a5
 8661 a2c1 11       		.byte	0x11
 8662 a2c2 89B70000 		.long	0xb789
 8663 a2c6 00       		.byte	0
 8664 a2c7 02       		.byte	0x2
 8665 a2c8 0C       		.uleb128 0xc
 8666 a2c9 82020000 		.secrel32	.LASF79
 8667 a2cd 20       		.byte	0x20
 8668 a2ce B503     		.word	0x3b5
 8669 a2d0 1A       		.byte	0x1a
 8670 a2d1 5F5A4E39 		.ascii "_ZN9__gnu_cxx17__normal_iteratorIPKcNSt7__cxx1112basic_stringIcSt11char_traitsIcESaIcEEEEC
 8670      5F5F676E 
 8670      755F6378 
 8670      7831375F 
 8670      5F6E6F72 
 8671 a32f 01       		.byte	0x1
 8672 a330 38A30000 		.long	0xa338
 8673 a334 3EA30000 		.long	0xa33e
 8674 a338 02       		.uleb128 0x2
 8675 a339 C3D50000 		.long	0xd5c3
 8676 a33d 00       		.byte	0
 8677 a33e 34       		.uleb128 0x34
 8678 a33f 82020000 		.secrel32	.LASF79
 8679 a343 20       		.byte	0x20
 8680 a344 B903     		.word	0x3b9
 8681 a346 07       		.byte	0x7
 8682 a347 5F5A4E39 		.ascii "_ZN9__gnu_cxx17__normal_iteratorIPKcNSt7__cxx1112basic_stringIcSt11char_traitsIcESaIcEEEEC
 8682      5F5F676E 
 8682      755F6378 
 8682      7831375F 
 8682      5F6E6F72 
 8683 a3a9 01       		.byte	0x1
 8684 a3aa B2A30000 		.long	0xa3b2
 8685 a3ae BDA30000 		.long	0xa3bd
 8686 a3b2 02       		.uleb128 0x2
 8687 a3b3 C3D50000 		.long	0xd5c3
 8688 a3b7 01       		.uleb128 0x1
 8689 a3b8 C9D50000 		.long	0xd5c9
 8690 a3bc 00       		.byte	0
 8691 a3bd 18       		.uleb128 0x18
 8692 a3be 45020000 		.secrel32	.LASF23
 8693 a3c2 20       		.byte	0x20
 8694 a3c3 AE03     		.word	0x3ae
 8695 a3c5 32       		.byte	0x32
 8696 a3c6 EB900000 		.long	0x90eb
 8697 a3ca 01       		.byte	0x1
 8698 a3cb 04       		.uleb128 0x4
 8699 a3cc 8F000000 		.secrel32	.LASF80
 8700 a3d0 20       		.byte	0x20
GAS LISTING C:\Users\Ilya\AppData\Local\Temp\ccxaKDG8.s 			page 226


 8701 a3d1 C803     		.word	0x3c8
 8702 a3d3 07       		.byte	0x7
 8703 a3d4 5F5A4E4B 		.ascii "_ZNK9__gnu_cxx17__normal_iteratorIPKcNSt7__cxx1112basic_stringIcSt11char_traitsIcESaIcEEEE
 8703      395F5F67 
 8703      6E755F63 
 8703      78783137 
 8703      5F5F6E6F 
 8704 a433 BDA30000 		.long	0xa3bd
 8705 a437 01       		.byte	0x1
 8706 a438 40A40000 		.long	0xa440
 8707 a43c 46A40000 		.long	0xa446
 8708 a440 02       		.uleb128 0x2
 8709 a441 CFD50000 		.long	0xd5cf
 8710 a445 00       		.byte	0
 8711 a446 18       		.uleb128 0x18
 8712 a447 AB000000 		.secrel32	.LASF1
 8713 a44b 20       		.byte	0x20
 8714 a44c AF03     		.word	0x3af
 8715 a44e 32       		.byte	0x32
 8716 a44f DF900000 		.long	0x90df
 8717 a453 01       		.byte	0x1
 8718 a454 04       		.uleb128 0x4
 8719 a455 CD030000 		.secrel32	.LASF81
 8720 a459 20       		.byte	0x20
 8721 a45a CD03     		.word	0x3cd
 8722 a45c 07       		.byte	0x7
 8723 a45d 5F5A4E4B 		.ascii "_ZNK9__gnu_cxx17__normal_iteratorIPKcNSt7__cxx1112basic_stringIcSt11char_traitsIcESaIcEEEE
 8723      395F5F67 
 8723      6E755F63 
 8723      78783137 
 8723      5F5F6E6F 
 8724 a4bc 46A40000 		.long	0xa446
 8725 a4c0 01       		.byte	0x1
 8726 a4c1 C9A40000 		.long	0xa4c9
 8727 a4c5 CFA40000 		.long	0xa4cf
 8728 a4c9 02       		.uleb128 0x2
 8729 a4ca CFD50000 		.long	0xd5cf
 8730 a4ce 00       		.byte	0
 8731 a4cf 04       		.uleb128 0x4
 8732 a4d0 4F020000 		.secrel32	.LASF82
 8733 a4d4 20       		.byte	0x20
 8734 a4d5 D203     		.word	0x3d2
 8735 a4d7 07       		.byte	0x7
 8736 a4d8 5F5A4E39 		.ascii "_ZN9__gnu_cxx17__normal_iteratorIPKcNSt7__cxx1112basic_stringIcSt11char_traitsIcESaIcEEEEp
 8736      5F5F676E 
 8736      755F6378 
 8736      7831375F 
 8736      5F6E6F72 
 8737 a536 D5D50000 		.long	0xd5d5
 8738 a53a 01       		.byte	0x1
 8739 a53b 43A50000 		.long	0xa543
 8740 a53f 49A50000 		.long	0xa549
 8741 a543 02       		.uleb128 0x2
 8742 a544 C3D50000 		.long	0xd5c3
 8743 a548 00       		.byte	0
 8744 a549 04       		.uleb128 0x4
 8745 a54a 4F020000 		.secrel32	.LASF82
GAS LISTING C:\Users\Ilya\AppData\Local\Temp\ccxaKDG8.s 			page 227


 8746 a54e 20       		.byte	0x20
 8747 a54f DA03     		.word	0x3da
 8748 a551 07       		.byte	0x7
 8749 a552 5F5A4E39 		.ascii "_ZN9__gnu_cxx17__normal_iteratorIPKcNSt7__cxx1112basic_stringIcSt11char_traitsIcESaIcEEEEp
 8749      5F5F676E 
 8749      755F6378 
 8749      7831375F 
 8749      5F6E6F72 
 8750 a5b0 3EA20000 		.long	0xa23e
 8751 a5b4 01       		.byte	0x1
 8752 a5b5 BDA50000 		.long	0xa5bd
 8753 a5b9 C8A50000 		.long	0xa5c8
 8754 a5bd 02       		.uleb128 0x2
 8755 a5be C3D50000 		.long	0xd5c3
 8756 a5c2 01       		.uleb128 0x1
 8757 a5c3 9CB20000 		.long	0xb29c
 8758 a5c7 00       		.byte	0
 8759 a5c8 04       		.uleb128 0x4
 8760 a5c9 AF030000 		.secrel32	.LASF83
 8761 a5cd 20       		.byte	0x20
 8762 a5ce E003     		.word	0x3e0
 8763 a5d0 07       		.byte	0x7
 8764 a5d1 5F5A4E39 		.ascii "_ZN9__gnu_cxx17__normal_iteratorIPKcNSt7__cxx1112basic_stringIcSt11char_traitsIcESaIcEEEEm
 8764      5F5F676E 
 8764      755F6378 
 8764      7831375F 
 8764      5F6E6F72 
 8765 a62f D5D50000 		.long	0xd5d5
 8766 a633 01       		.byte	0x1
 8767 a634 3CA60000 		.long	0xa63c
 8768 a638 42A60000 		.long	0xa642
 8769 a63c 02       		.uleb128 0x2
 8770 a63d C3D50000 		.long	0xd5c3
 8771 a641 00       		.byte	0
 8772 a642 04       		.uleb128 0x4
 8773 a643 AF030000 		.secrel32	.LASF83
 8774 a647 20       		.byte	0x20
 8775 a648 E803     		.word	0x3e8
 8776 a64a 07       		.byte	0x7
 8777 a64b 5F5A4E39 		.ascii "_ZN9__gnu_cxx17__normal_iteratorIPKcNSt7__cxx1112basic_stringIcSt11char_traitsIcESaIcEEEEm
 8777      5F5F676E 
 8777      755F6378 
 8777      7831375F 
 8777      5F6E6F72 
 8778 a6a9 3EA20000 		.long	0xa23e
 8779 a6ad 01       		.byte	0x1
 8780 a6ae B6A60000 		.long	0xa6b6
 8781 a6b2 C1A60000 		.long	0xa6c1
 8782 a6b6 02       		.uleb128 0x2
 8783 a6b7 C3D50000 		.long	0xd5c3
 8784 a6bb 01       		.uleb128 0x1
 8785 a6bc 9CB20000 		.long	0xb29c
 8786 a6c0 00       		.byte	0
 8787 a6c1 04       		.uleb128 0x4
 8788 a6c2 65040000 		.secrel32	.LASF22
 8789 a6c6 20       		.byte	0x20
 8790 a6c7 EE03     		.word	0x3ee
GAS LISTING C:\Users\Ilya\AppData\Local\Temp\ccxaKDG8.s 			page 228


 8791 a6c9 07       		.byte	0x7
 8792 a6ca 5F5A4E4B 		.ascii "_ZNK9__gnu_cxx17__normal_iteratorIPKcNSt7__cxx1112basic_stringIcSt11char_traitsIcESaIcEEEE
 8792      395F5F67 
 8792      6E755F63 
 8792      78783137 
 8792      5F5F6E6F 
 8793 a729 BDA30000 		.long	0xa3bd
 8794 a72d 01       		.byte	0x1
 8795 a72e 36A70000 		.long	0xa736
 8796 a732 41A70000 		.long	0xa741
 8797 a736 02       		.uleb128 0x2
 8798 a737 CFD50000 		.long	0xd5cf
 8799 a73b 01       		.uleb128 0x1
 8800 a73c 41A70000 		.long	0xa741
 8801 a740 00       		.byte	0
 8802 a741 18       		.uleb128 0x18
 8803 a742 A1010000 		.secrel32	.LASF65
 8804 a746 20       		.byte	0x20
 8805 a747 AD03     		.word	0x3ad
 8806 a749 38       		.byte	0x38
 8807 a74a D3900000 		.long	0x90d3
 8808 a74e 01       		.byte	0x1
 8809 a74f 04       		.uleb128 0x4
 8810 a750 88030000 		.secrel32	.LASF25
 8811 a754 20       		.byte	0x20
 8812 a755 F303     		.word	0x3f3
 8813 a757 07       		.byte	0x7
 8814 a758 5F5A4E39 		.ascii "_ZN9__gnu_cxx17__normal_iteratorIPKcNSt7__cxx1112basic_stringIcSt11char_traitsIcESaIcEEEEp
 8814      5F5F676E 
 8814      755F6378 
 8814      7831375F 
 8814      5F6E6F72 
 8815 a7b6 D5D50000 		.long	0xd5d5
 8816 a7ba 01       		.byte	0x1
 8817 a7bb C3A70000 		.long	0xa7c3
 8818 a7bf CEA70000 		.long	0xa7ce
 8819 a7c3 02       		.uleb128 0x2
 8820 a7c4 C3D50000 		.long	0xd5c3
 8821 a7c8 01       		.uleb128 0x1
 8822 a7c9 41A70000 		.long	0xa741
 8823 a7cd 00       		.byte	0
 8824 a7ce 04       		.uleb128 0x4
 8825 a7cf 0B030000 		.secrel32	.LASF84
 8826 a7d3 20       		.byte	0x20
 8827 a7d4 F803     		.word	0x3f8
 8828 a7d6 07       		.byte	0x7
 8829 a7d7 5F5A4E4B 		.ascii "_ZNK9__gnu_cxx17__normal_iteratorIPKcNSt7__cxx1112basic_stringIcSt11char_traitsIcESaIcEEEE
 8829      395F5F67 
 8829      6E755F63 
 8829      78783137 
 8829      5F5F6E6F 
 8830 a836 3EA20000 		.long	0xa23e
 8831 a83a 01       		.byte	0x1
 8832 a83b 43A80000 		.long	0xa843
 8833 a83f 4EA80000 		.long	0xa84e
 8834 a843 02       		.uleb128 0x2
 8835 a844 CFD50000 		.long	0xd5cf
GAS LISTING C:\Users\Ilya\AppData\Local\Temp\ccxaKDG8.s 			page 229


 8836 a848 01       		.uleb128 0x1
 8837 a849 41A70000 		.long	0xa741
 8838 a84d 00       		.byte	0
 8839 a84e 04       		.uleb128 0x4
 8840 a84f C2030000 		.secrel32	.LASF85
 8841 a853 20       		.byte	0x20
 8842 a854 FD03     		.word	0x3fd
 8843 a856 07       		.byte	0x7
 8844 a857 5F5A4E39 		.ascii "_ZN9__gnu_cxx17__normal_iteratorIPKcNSt7__cxx1112basic_stringIcSt11char_traitsIcESaIcEEEEm
 8844      5F5F676E 
 8844      755F6378 
 8844      7831375F 
 8844      5F6E6F72 
 8845 a8b5 D5D50000 		.long	0xd5d5
 8846 a8b9 01       		.byte	0x1
 8847 a8ba C2A80000 		.long	0xa8c2
 8848 a8be CDA80000 		.long	0xa8cd
 8849 a8c2 02       		.uleb128 0x2
 8850 a8c3 C3D50000 		.long	0xd5c3
 8851 a8c7 01       		.uleb128 0x1
 8852 a8c8 41A70000 		.long	0xa741
 8853 a8cc 00       		.byte	0
 8854 a8cd 04       		.uleb128 0x4
 8855 a8ce 15030000 		.secrel32	.LASF86
 8856 a8d2 20       		.byte	0x20
 8857 a8d3 0204     		.word	0x402
 8858 a8d5 07       		.byte	0x7
 8859 a8d6 5F5A4E4B 		.ascii "_ZNK9__gnu_cxx17__normal_iteratorIPKcNSt7__cxx1112basic_stringIcSt11char_traitsIcESaIcEEEE
 8859      395F5F67 
 8859      6E755F63 
 8859      78783137 
 8859      5F5F6E6F 
 8860 a935 3EA20000 		.long	0xa23e
 8861 a939 01       		.byte	0x1
 8862 a93a 42A90000 		.long	0xa942
 8863 a93e 4DA90000 		.long	0xa94d
 8864 a942 02       		.uleb128 0x2
 8865 a943 CFD50000 		.long	0xd5cf
 8866 a947 01       		.uleb128 0x1
 8867 a948 41A70000 		.long	0xa741
 8868 a94c 00       		.byte	0
 8869 a94d 0B       		.uleb128 0xb
 8870 a94e 62617365 		.ascii "base\0"
 8870      00
 8871 a953 20       		.byte	0x20
 8872 a954 0704     		.word	0x407
 8873 a956 07       		.byte	0x7
 8874 a957 5F5A4E4B 		.ascii "_ZNK9__gnu_cxx17__normal_iteratorIPKcNSt7__cxx1112basic_stringIcSt11char_traitsIcESaIcEEEE
 8874      395F5F67 
 8874      6E755F63 
 8874      78783137 
 8874      5F5F6E6F 
 8875 a9b9 C9D50000 		.long	0xd5c9
 8876 a9bd 01       		.byte	0x1
 8877 a9be C6A90000 		.long	0xa9c6
 8878 a9c2 CCA90000 		.long	0xa9cc
 8879 a9c6 02       		.uleb128 0x2
GAS LISTING C:\Users\Ilya\AppData\Local\Temp\ccxaKDG8.s 			page 230


 8880 a9c7 CFD50000 		.long	0xd5cf
 8881 a9cb 00       		.byte	0
 8882 a9cc 12       		.uleb128 0x12
 8883 a9cd A6020000 		.secrel32	.LASF87
 8884 a9d1 89B70000 		.long	0xb789
 8885 a9d5 12       		.uleb128 0x12
 8886 a9d6 2C040000 		.secrel32	.LASF88
 8887 a9da B0000000 		.long	0xb0
 8888 a9de 00       		.byte	0
 8889 a9df 07       		.uleb128 0x7
 8890 a9e0 3EA20000 		.long	0xa23e
 8891 a9e4 28       		.uleb128 0x28
 8892 a9e5 6E65775F 		.ascii "new_allocator<std::pair<char, long int> >\0"
 8892      616C6C6F 
 8892      6361746F 
 8892      723C7374 
 8892      643A3A70 
 8893 aa0f 01       		.byte	0x1
 8894 aa10 07       		.byte	0x7
 8895 aa11 37       		.byte	0x37
 8896 aa12 0B       		.byte	0xb
 8897 aa13 4FAD0000 		.long	0xad4f
 8898 aa17 0F       		.uleb128 0xf
 8899 aa18 FC030000 		.secrel32	.LASF67
 8900 aa1c 07       		.byte	0x7
 8901 aa1d 4F       		.byte	0x4f
 8902 aa1e 07       		.byte	0x7
 8903 aa1f 5F5A4E39 		.ascii "_ZN9__gnu_cxx13new_allocatorISt4pairIclEEC4Ev\0"
 8903      5F5F676E 
 8903      755F6378 
 8903      7831336E 
 8903      65775F61 
 8904 aa4d 01       		.byte	0x1
 8905 aa4e 56AA0000 		.long	0xaa56
 8906 aa52 5CAA0000 		.long	0xaa5c
 8907 aa56 02       		.uleb128 0x2
 8908 aa57 7DD40000 		.long	0xd47d
 8909 aa5b 00       		.byte	0
 8910 aa5c 0F       		.uleb128 0xf
 8911 aa5d FC030000 		.secrel32	.LASF67
 8912 aa61 07       		.byte	0x7
 8913 aa62 52       		.byte	0x52
 8914 aa63 07       		.byte	0x7
 8915 aa64 5F5A4E39 		.ascii "_ZN9__gnu_cxx13new_allocatorISt4pairIclEEC4ERKS3_\0"
 8915      5F5F676E 
 8915      755F6378 
 8915      7831336E 
 8915      65775F61 
 8916 aa96 01       		.byte	0x1
 8917 aa97 9FAA0000 		.long	0xaa9f
 8918 aa9b AAAA0000 		.long	0xaaaa
 8919 aa9f 02       		.uleb128 0x2
 8920 aaa0 7DD40000 		.long	0xd47d
 8921 aaa4 01       		.uleb128 0x1
 8922 aaa5 88D40000 		.long	0xd488
 8923 aaa9 00       		.byte	0
 8924 aaaa 0F       		.uleb128 0xf
GAS LISTING C:\Users\Ilya\AppData\Local\Temp\ccxaKDG8.s 			page 231


 8925 aaab 85040000 		.secrel32	.LASF68
 8926 aaaf 07       		.byte	0x7
 8927 aab0 59       		.byte	0x59
 8928 aab1 07       		.byte	0x7
 8929 aab2 5F5A4E39 		.ascii "_ZN9__gnu_cxx13new_allocatorISt4pairIclEED4Ev\0"
 8929      5F5F676E 
 8929      755F6378 
 8929      7831336E 
 8929      65775F61 
 8930 aae0 01       		.byte	0x1
 8931 aae1 E9AA0000 		.long	0xaae9
 8932 aae5 F4AA0000 		.long	0xaaf4
 8933 aae9 02       		.uleb128 0x2
 8934 aaea 7DD40000 		.long	0xd47d
 8935 aaee 02       		.uleb128 0x2
 8936 aaef 9CB20000 		.long	0xb29c
 8937 aaf3 00       		.byte	0
 8938 aaf4 0E       		.uleb128 0xe
 8939 aaf5 AB000000 		.secrel32	.LASF1
 8940 aaf9 07       		.byte	0x7
 8941 aafa 3E       		.byte	0x3e
 8942 aafb 1A       		.byte	0x1a
 8943 aafc 8ED40000 		.long	0xd48e
 8944 ab00 01       		.byte	0x1
 8945 ab01 14       		.uleb128 0x14
 8946 ab02 7A020000 		.secrel32	.LASF69
 8947 ab06 07       		.byte	0x7
 8948 ab07 5C       		.byte	0x5c
 8949 ab08 07       		.byte	0x7
 8950 ab09 5F5A4E4B 		.ascii "_ZNK9__gnu_cxx13new_allocatorISt4pairIclEE7addressERS2_\0"
 8950      395F5F67 
 8950      6E755F63 
 8950      78783133 
 8950      6E65775F 
 8951 ab41 F4AA0000 		.long	0xaaf4
 8952 ab45 01       		.byte	0x1
 8953 ab46 4EAB0000 		.long	0xab4e
 8954 ab4a 59AB0000 		.long	0xab59
 8955 ab4e 02       		.uleb128 0x2
 8956 ab4f 94D40000 		.long	0xd494
 8957 ab53 01       		.uleb128 0x1
 8958 ab54 59AB0000 		.long	0xab59
 8959 ab58 00       		.byte	0
 8960 ab59 0E       		.uleb128 0xe
 8961 ab5a 45020000 		.secrel32	.LASF23
 8962 ab5e 07       		.byte	0x7
 8963 ab5f 40       		.byte	0x40
 8964 ab60 1A       		.byte	0x1a
 8965 ab61 9AD40000 		.long	0xd49a
 8966 ab65 01       		.byte	0x1
 8967 ab66 0E       		.uleb128 0xe
 8968 ab67 6B000000 		.secrel32	.LASF4
 8969 ab6b 07       		.byte	0x7
 8970 ab6c 3F       		.byte	0x3f
 8971 ab6d 1A       		.byte	0x1a
 8972 ab6e A0D40000 		.long	0xd4a0
 8973 ab72 01       		.byte	0x1
GAS LISTING C:\Users\Ilya\AppData\Local\Temp\ccxaKDG8.s 			page 232


 8974 ab73 14       		.uleb128 0x14
 8975 ab74 7A020000 		.secrel32	.LASF69
 8976 ab78 07       		.byte	0x7
 8977 ab79 60       		.byte	0x60
 8978 ab7a 07       		.byte	0x7
 8979 ab7b 5F5A4E4B 		.ascii "_ZNK9__gnu_cxx13new_allocatorISt4pairIclEE7addressERKS2_\0"
 8979      395F5F67 
 8979      6E755F63 
 8979      78783133 
 8979      6E65775F 
 8980 abb4 66AB0000 		.long	0xab66
 8981 abb8 01       		.byte	0x1
 8982 abb9 C1AB0000 		.long	0xabc1
 8983 abbd CCAB0000 		.long	0xabcc
 8984 abc1 02       		.uleb128 0x2
 8985 abc2 94D40000 		.long	0xd494
 8986 abc6 01       		.uleb128 0x1
 8987 abc7 CCAB0000 		.long	0xabcc
 8988 abcb 00       		.byte	0
 8989 abcc 0E       		.uleb128 0xe
 8990 abcd B0020000 		.secrel32	.LASF21
 8991 abd1 07       		.byte	0x7
 8992 abd2 41       		.byte	0x41
 8993 abd3 1A       		.byte	0x1a
 8994 abd4 A6D40000 		.long	0xd4a6
 8995 abd8 01       		.byte	0x1
 8996 abd9 14       		.uleb128 0x14
 8997 abda AD040000 		.secrel32	.LASF50
 8998 abde 07       		.byte	0x7
 8999 abdf 67       		.byte	0x67
 9000 abe0 07       		.byte	0x7
 9001 abe1 5F5A4E39 		.ascii "_ZN9__gnu_cxx13new_allocatorISt4pairIclEE8allocateEyPKv\0"
 9001      5F5F676E 
 9001      755F6378 
 9001      7831336E 
 9001      65775F61 
 9002 ac19 8ED40000 		.long	0xd48e
 9003 ac1d 01       		.byte	0x1
 9004 ac1e 26AC0000 		.long	0xac26
 9005 ac22 36AC0000 		.long	0xac36
 9006 ac26 02       		.uleb128 0x2
 9007 ac27 7DD40000 		.long	0xd47d
 9008 ac2b 01       		.uleb128 0x1
 9009 ac2c 36AC0000 		.long	0xac36
 9010 ac30 01       		.uleb128 0x1
 9011 ac31 C4C10000 		.long	0xc1c4
 9012 ac35 00       		.byte	0
 9013 ac36 0E       		.uleb128 0xe
 9014 ac37 B3000000 		.secrel32	.LASF2
 9015 ac3b 07       		.byte	0x7
 9016 ac3c 3B       		.byte	0x3b
 9017 ac3d 1F       		.byte	0x1f
 9018 ac3e 7A510000 		.long	0x517a
 9019 ac42 01       		.byte	0x1
 9020 ac43 0F       		.uleb128 0xf
 9021 ac44 1E020000 		.secrel32	.LASF52
 9022 ac48 07       		.byte	0x7
GAS LISTING C:\Users\Ilya\AppData\Local\Temp\ccxaKDG8.s 			page 233


 9023 ac49 78       		.byte	0x78
 9024 ac4a 07       		.byte	0x7
 9025 ac4b 5F5A4E39 		.ascii "_ZN9__gnu_cxx13new_allocatorISt4pairIclEE10deallocateEPS2_y\0"
 9025      5F5F676E 
 9025      755F6378 
 9025      7831336E 
 9025      65775F61 
 9026 ac87 01       		.byte	0x1
 9027 ac88 90AC0000 		.long	0xac90
 9028 ac8c A0AC0000 		.long	0xaca0
 9029 ac90 02       		.uleb128 0x2
 9030 ac91 7DD40000 		.long	0xd47d
 9031 ac95 01       		.uleb128 0x1
 9032 ac96 8ED40000 		.long	0xd48e
 9033 ac9a 01       		.uleb128 0x1
 9034 ac9b 36AC0000 		.long	0xac36
 9035 ac9f 00       		.byte	0
 9036 aca0 14       		.uleb128 0x14
 9037 aca1 50040000 		.secrel32	.LASF17
 9038 aca5 07       		.byte	0x7
 9039 aca6 8E       		.byte	0x8e
 9040 aca7 07       		.byte	0x7
 9041 aca8 5F5A4E4B 		.ascii "_ZNK9__gnu_cxx13new_allocatorISt4pairIclEE8max_sizeEv\0"
 9041      395F5F67 
 9041      6E755F63 
 9041      78783133 
 9041      6E65775F 
 9042 acde 36AC0000 		.long	0xac36
 9043 ace2 01       		.byte	0x1
 9044 ace3 EBAC0000 		.long	0xaceb
 9045 ace7 F1AC0000 		.long	0xacf1
 9046 aceb 02       		.uleb128 0x2
 9047 acec 94D40000 		.long	0xd494
 9048 acf0 00       		.byte	0
 9049 acf1 2D       		.uleb128 0x2d
 9050 acf2 E7010000 		.secrel32	.LASF70
 9051 acf6 07       		.byte	0x7
 9052 acf7 B9       		.byte	0xb9
 9053 acf8 07       		.byte	0x7
 9054 acf9 5F5A4E4B 		.ascii "_ZNK9__gnu_cxx13new_allocatorISt4pairIclEE11_M_max_sizeEv\0"
 9054      395F5F67 
 9054      6E755F63 
 9054      78783133 
 9054      6E65775F 
 9055 ad33 36AC0000 		.long	0xac36
 9056 ad37 3FAD0000 		.long	0xad3f
 9057 ad3b 45AD0000 		.long	0xad45
 9058 ad3f 02       		.uleb128 0x2
 9059 ad40 94D40000 		.long	0xd494
 9060 ad44 00       		.byte	0
 9061 ad45 16       		.uleb128 0x16
 9062 ad46 5F547000 		.ascii "_Tp\0"
 9063 ad4a D4620000 		.long	0x62d4
 9064 ad4e 00       		.byte	0
 9065 ad4f 07       		.uleb128 0x7
 9066 ad50 E4A90000 		.long	0xa9e4
 9067 ad54 15       		.uleb128 0x15
GAS LISTING C:\Users\Ilya\AppData\Local\Temp\ccxaKDG8.s 			page 234


 9068 ad55 5F5F616C 		.ascii "__alloc_traits<std::allocator<std::pair<char, long int> >, std::pair<char, long int> >\0"
 9068      6C6F635F 
 9068      74726169 
 9068      74733C73 
 9068      74643A3A 
 9069 adac 01       		.byte	0x1
 9070 adad 1F       		.byte	0x1f
 9071 adae 30       		.byte	0x30
 9072 adaf 0A       		.byte	0xa
 9073 adb0 CDB00000 		.long	0xb0cd
 9074 adb4 03       		.uleb128 0x3
 9075 adb5 1F       		.byte	0x1f
 9076 adb6 30       		.byte	0x30
 9077 adb7 0A       		.byte	0xa
 9078 adb8 10660000 		.long	0x6610
 9079 adbc 03       		.uleb128 0x3
 9080 adbd 1F       		.byte	0x1f
 9081 adbe 30       		.byte	0x30
 9082 adbf 0A       		.byte	0xa
 9083 adc0 9D650000 		.long	0x659d
 9084 adc4 03       		.uleb128 0x3
 9085 adc5 1F       		.byte	0x1f
 9086 adc6 30       		.byte	0x30
 9087 adc7 0A       		.byte	0xa
 9088 adc8 79660000 		.long	0x6679
 9089 adcc 03       		.uleb128 0x3
 9090 adcd 1F       		.byte	0x1f
 9091 adce 30       		.byte	0x30
 9092 adcf 0A       		.byte	0xa
 9093 add0 D5660000 		.long	0x66d5
 9094 add4 33       		.uleb128 0x33
 9095 add5 48650000 		.long	0x6548
 9096 add9 00       		.byte	0
 9097 adda 5F       		.uleb128 0x5f
 9098 addb F9020000 		.secrel32	.LASF71
 9099 addf 1F       		.byte	0x1f
 9100 ade0 61       		.byte	0x61
 9101 ade1 1D       		.byte	0x1d
 9102 ade2 5F5A4E39 		.ascii "_ZN9__gnu_cxx14__alloc_traitsISaISt4pairIclEES2_E17_S_select_on_copyERKS3_\0"
 9102      5F5F676E 
 9102      755F6378 
 9102      7831345F 
 9102      5F616C6C 
 9103 ae2d 3C640000 		.long	0x643c
 9104 ae31 3BAE0000 		.long	0xae3b
 9105 ae35 01       		.uleb128 0x1
 9106 ae36 B7D40000 		.long	0xd4b7
 9107 ae3a 00       		.byte	0
 9108 ae3b 60       		.uleb128 0x60
 9109 ae3c CD000000 		.secrel32	.LASF72
 9110 ae40 1F       		.byte	0x1f
 9111 ae41 64       		.byte	0x64
 9112 ae42 26       		.byte	0x26
 9113 ae43 5F5A4E39 		.ascii "_ZN9__gnu_cxx14__alloc_traitsISaISt4pairIclEES2_E10_S_on_swapERS3_S5_\0"
 9113      5F5F676E 
 9113      755F6378 
 9113      7831345F 
GAS LISTING C:\Users\Ilya\AppData\Local\Temp\ccxaKDG8.s 			page 235


 9113      5F616C6C 
 9114 ae89 98AE0000 		.long	0xae98
 9115 ae8d 01       		.uleb128 0x1
 9116 ae8e BDD40000 		.long	0xd4bd
 9117 ae92 01       		.uleb128 0x1
 9118 ae93 BDD40000 		.long	0xd4bd
 9119 ae97 00       		.byte	0
 9120 ae98 22       		.uleb128 0x22
 9121 ae99 29020000 		.secrel32	.LASF73
 9122 ae9d 1F       		.byte	0x1f
 9123 ae9e 67       		.byte	0x67
 9124 ae9f 1B       		.byte	0x1b
 9125 aea0 5F5A4E39 		.ascii "_ZN9__gnu_cxx14__alloc_traitsISaISt4pairIclEES2_E27_S_propagate_on_copy_assignEv\0"
 9125      5F5F676E 
 9125      755F6378 
 9125      7831345F 
 9125      5F616C6C 
 9126 aef1 B0BE0000 		.long	0xbeb0
 9127 aef5 22       		.uleb128 0x22
 9128 aef6 E8000000 		.secrel32	.LASF74
 9129 aefa 1F       		.byte	0x1f
 9130 aefb 6A       		.byte	0x6a
 9131 aefc 1B       		.byte	0x1b
 9132 aefd 5F5A4E39 		.ascii "_ZN9__gnu_cxx14__alloc_traitsISaISt4pairIclEES2_E27_S_propagate_on_move_assignEv\0"
 9132      5F5F676E 
 9132      755F6378 
 9132      7831345F 
 9132      5F616C6C 
 9133 af4e B0BE0000 		.long	0xbeb0
 9134 af52 22       		.uleb128 0x22
 9135 af53 70040000 		.secrel32	.LASF75
 9136 af57 1F       		.byte	0x1f
 9137 af58 6D       		.byte	0x6d
 9138 af59 1B       		.byte	0x1b
 9139 af5a 5F5A4E39 		.ascii "_ZN9__gnu_cxx14__alloc_traitsISaISt4pairIclEES2_E20_S_propagate_on_swapEv\0"
 9139      5F5F676E 
 9139      755F6378 
 9139      7831345F 
 9139      5F616C6C 
 9140 afa4 B0BE0000 		.long	0xbeb0
 9141 afa8 22       		.uleb128 0x22
 9142 afa9 BD000000 		.secrel32	.LASF76
 9143 afad 1F       		.byte	0x1f
 9144 afae 70       		.byte	0x70
 9145 afaf 1B       		.byte	0x1b
 9146 afb0 5F5A4E39 		.ascii "_ZN9__gnu_cxx14__alloc_traitsISaISt4pairIclEES2_E15_S_always_equalEv\0"
 9146      5F5F676E 
 9146      755F6378 
 9146      7831345F 
 9146      5F616C6C 
 9147 aff5 B0BE0000 		.long	0xbeb0
 9148 aff9 22       		.uleb128 0x22
 9149 affa 5D010000 		.secrel32	.LASF77
 9150 affe 1F       		.byte	0x1f
 9151 afff 73       		.byte	0x73
 9152 b000 1B       		.byte	0x1b
 9153 b001 5F5A4E39 		.ascii "_ZN9__gnu_cxx14__alloc_traitsISaISt4pairIclEES2_E15_S_nothrow_moveEv\0"
GAS LISTING C:\Users\Ilya\AppData\Local\Temp\ccxaKDG8.s 			page 236


 9153      5F5F676E 
 9153      755F6378 
 9153      7831345F 
 9153      5F616C6C 
 9154 b046 B0BE0000 		.long	0xbeb0
 9155 b04a 10       		.uleb128 0x10
 9156 b04b A2040000 		.secrel32	.LASF42
 9157 b04f 1F       		.byte	0x1f
 9158 b050 38       		.byte	0x38
 9159 b051 35       		.byte	0x35
 9160 b052 91670000 		.long	0x6791
 9161 b056 07       		.uleb128 0x7
 9162 b057 4AB00000 		.long	0xb04a
 9163 b05b 10       		.uleb128 0x10
 9164 b05c AB000000 		.secrel32	.LASF1
 9165 b060 1F       		.byte	0x1f
 9166 b061 39       		.byte	0x39
 9167 b062 35       		.byte	0x35
 9168 b063 90650000 		.long	0x6590
 9169 b067 10       		.uleb128 0x10
 9170 b068 45020000 		.secrel32	.LASF23
 9171 b06c 1F       		.byte	0x1f
 9172 b06d 3E       		.byte	0x3e
 9173 b06e 35       		.byte	0x35
 9174 b06f CFD40000 		.long	0xd4cf
 9175 b073 10       		.uleb128 0x10
 9176 b074 B0020000 		.secrel32	.LASF21
 9177 b078 1F       		.byte	0x1f
 9178 b079 3F       		.byte	0x3f
 9179 b07a 35       		.byte	0x35
 9180 b07b D5D40000 		.long	0xd4d5
 9181 b07f 15       		.uleb128 0x15
 9182 b080 72656269 		.ascii "rebind<std::pair<char, long int> >\0"
 9182      6E643C73 
 9182      74643A3A 
 9182      70616972 
 9182      3C636861 
 9183 b0a3 01       		.byte	0x1
 9184 b0a4 1F       		.byte	0x1f
 9185 b0a5 77       		.byte	0x77
 9186 b0a6 0E       		.byte	0xe
 9187 b0a7 C3B00000 		.long	0xb0c3
 9188 b0ab 0A       		.uleb128 0xa
 9189 b0ac 6F746865 		.ascii "other\0"
 9189      7200
 9190 b0b2 1F       		.byte	0x1f
 9191 b0b3 78       		.byte	0x78
 9192 b0b4 41       		.byte	0x41
 9193 b0b5 9E670000 		.long	0x679e
 9194 b0b9 16       		.uleb128 0x16
 9195 b0ba 5F547000 		.ascii "_Tp\0"
 9196 b0be D4620000 		.long	0x62d4
 9197 b0c2 00       		.byte	0
 9198 b0c3 12       		.uleb128 0x12
 9199 b0c4 9B040000 		.secrel32	.LASF40
 9200 b0c8 3C640000 		.long	0x643c
 9201 b0cc 00       		.byte	0
GAS LISTING C:\Users\Ilya\AppData\Local\Temp\ccxaKDG8.s 			page 237


 9202 b0cd 25       		.uleb128 0x25
 9203 b0ce 5F5F6E6F 		.ascii "__normal_iterator<std::pair<char, long int>*, std::vector<std::pair<char, long int>, std::
 9203      726D616C 
 9203      5F697465 
 9203      7261746F 
 9203      723C7374 
 9204 b152 25       		.uleb128 0x25
 9205 b153 5F5F6E6F 		.ascii "__normal_iterator<const std::pair<char, long int>*, std::vector<std::pair<char, long int>,
 9205      726D616C 
 9205      5F697465 
 9205      7261746F 
 9205      723C636F 
 9206 b1dd 00       		.byte	0
 9207 b1de 8101     		.uleb128 0x81
 9208 b1e0 08       		.byte	0x8
 9209 b1e1 5F5F6275 		.ascii "__builtin_va_list\0"
 9209      696C7469 
 9209      6E5F7661 
 9209      5F6C6973 
 9209      7400
 9210 b1f3 F7B10000 		.long	0xb1f7
 9211 b1f7 11       		.uleb128 0x11
 9212 b1f8 01       		.byte	0x1
 9213 b1f9 06       		.byte	0x6
 9214 b1fa 63686172 		.ascii "char\0"
 9214      00
 9215 b1ff 07       		.uleb128 0x7
 9216 b200 F7B10000 		.long	0xb1f7
 9217 b204 0A       		.uleb128 0xa
 9218 b205 73697A65 		.ascii "size_t\0"
 9218      5F7400
 9219 b20c 21       		.byte	0x21
 9220 b20d 28       		.byte	0x28
 9221 b20e 2C       		.byte	0x2c
 9222 b20f 18B20000 		.long	0xb218
 9223 b213 07       		.uleb128 0x7
 9224 b214 04B20000 		.long	0xb204
 9225 b218 11       		.uleb128 0x11
 9226 b219 08       		.byte	0x8
 9227 b21a 07       		.byte	0x7
 9228 b21b 6C6F6E67 		.ascii "long long unsigned int\0"
 9228      206C6F6E 
 9228      6720756E 
 9228      7369676E 
 9228      65642069 
 9229 b232 11       		.uleb128 0x11
 9230 b233 08       		.byte	0x8
 9231 b234 05       		.byte	0x5
 9232 b235 6C6F6E67 		.ascii "long long int\0"
 9232      206C6F6E 
 9232      6720696E 
 9232      7400
 9233 b243 0A       		.uleb128 0xa
 9234 b244 696E7470 		.ascii "intptr_t\0"
 9234      74725F74 
 9234      00
 9235 b24d 21       		.byte	0x21
GAS LISTING C:\Users\Ilya\AppData\Local\Temp\ccxaKDG8.s 			page 238


 9236 b24e 43       		.byte	0x43
 9237 b24f 23       		.byte	0x23
 9238 b250 32B20000 		.long	0xb232
 9239 b254 0A       		.uleb128 0xa
 9240 b255 75696E74 		.ascii "uintptr_t\0"
 9240      7074725F 
 9240      7400
 9241 b25f 21       		.byte	0x21
 9242 b260 50       		.byte	0x50
 9243 b261 2C       		.byte	0x2c
 9244 b262 18B20000 		.long	0xb218
 9245 b266 0A       		.uleb128 0xa
 9246 b267 77696E74 		.ascii "wint_t\0"
 9246      5F7400
 9247 b26e 21       		.byte	0x21
 9248 b26f 6F       		.byte	0x6f
 9249 b270 18       		.byte	0x18
 9250 b271 75B20000 		.long	0xb275
 9251 b275 11       		.uleb128 0x11
 9252 b276 02       		.byte	0x2
 9253 b277 07       		.byte	0x7
 9254 b278 73686F72 		.ascii "short unsigned int\0"
 9254      7420756E 
 9254      7369676E 
 9254      65642069 
 9254      6E7400
 9255 b28b 0A       		.uleb128 0xa
 9256 b28c 77637479 		.ascii "wctype_t\0"
 9256      70655F74 
 9256      00
 9257 b295 21       		.byte	0x21
 9258 b296 70       		.byte	0x70
 9259 b297 18       		.byte	0x18
 9260 b298 75B20000 		.long	0xb275
 9261 b29c 11       		.uleb128 0x11
 9262 b29d 04       		.byte	0x4
 9263 b29e 05       		.byte	0x5
 9264 b29f 696E7400 		.ascii "int\0"
 9265 b2a3 07       		.uleb128 0x7
 9266 b2a4 9CB20000 		.long	0xb29c
 9267 b2a8 11       		.uleb128 0x11
 9268 b2a9 04       		.byte	0x4
 9269 b2aa 05       		.byte	0x5
 9270 b2ab 6C6F6E67 		.ascii "long int\0"
 9270      20696E74 
 9270      00
 9271 b2b4 06       		.uleb128 0x6
 9272 b2b5 08       		.byte	0x8
 9273 b2b6 F7B10000 		.long	0xb1f7
 9274 b2ba 07       		.uleb128 0x7
 9275 b2bb B4B20000 		.long	0xb2b4
 9276 b2bf 06       		.uleb128 0x6
 9277 b2c0 08       		.byte	0x8
 9278 b2c1 C5B20000 		.long	0xb2c5
 9279 b2c5 11       		.uleb128 0x11
 9280 b2c6 02       		.byte	0x2
 9281 b2c7 07       		.byte	0x7
GAS LISTING C:\Users\Ilya\AppData\Local\Temp\ccxaKDG8.s 			page 239


 9282 b2c8 77636861 		.ascii "wchar_t\0"
 9282      725F7400 
 9283 b2d0 07       		.uleb128 0x7
 9284 b2d1 C5B20000 		.long	0xb2c5
 9285 b2d5 11       		.uleb128 0x11
 9286 b2d6 04       		.byte	0x4
 9287 b2d7 07       		.byte	0x7
 9288 b2d8 756E7369 		.ascii "unsigned int\0"
 9288      676E6564 
 9288      20696E74 
 9288      00
 9289 b2e5 11       		.uleb128 0x11
 9290 b2e6 04       		.byte	0x4
 9291 b2e7 07       		.byte	0x7
 9292 b2e8 6C6F6E67 		.ascii "long unsigned int\0"
 9292      20756E73 
 9292      69676E65 
 9292      6420696E 
 9292      7400
 9293 b2fa 15       		.uleb128 0x15
 9294 b2fb 6C636F6E 		.ascii "lconv\0"
 9294      7600
 9295 b301 58       		.byte	0x58
 9296 b302 22       		.byte	0x22
 9297 b303 2D       		.byte	0x2d
 9298 b304 0A       		.byte	0xa
 9299 b305 ACB40000 		.long	0xb4ac
 9300 b309 09       		.uleb128 0x9
 9301 b30a 64656369 		.ascii "decimal_point\0"
 9301      6D616C5F 
 9301      706F696E 
 9301      7400
 9302 b318 22       		.byte	0x22
 9303 b319 2E       		.byte	0x2e
 9304 b31a 0B       		.byte	0xb
 9305 b31b B4B20000 		.long	0xb2b4
 9306 b31f 00       		.byte	0
 9307 b320 09       		.uleb128 0x9
 9308 b321 74686F75 		.ascii "thousands_sep\0"
 9308      73616E64 
 9308      735F7365 
 9308      7000
 9309 b32f 22       		.byte	0x22
 9310 b330 2F       		.byte	0x2f
 9311 b331 0B       		.byte	0xb
 9312 b332 B4B20000 		.long	0xb2b4
 9313 b336 08       		.byte	0x8
 9314 b337 09       		.uleb128 0x9
 9315 b338 67726F75 		.ascii "grouping\0"
 9315      70696E67 
 9315      00
 9316 b341 22       		.byte	0x22
 9317 b342 30       		.byte	0x30
 9318 b343 0B       		.byte	0xb
 9319 b344 B4B20000 		.long	0xb2b4
 9320 b348 10       		.byte	0x10
 9321 b349 09       		.uleb128 0x9
GAS LISTING C:\Users\Ilya\AppData\Local\Temp\ccxaKDG8.s 			page 240


 9322 b34a 696E745F 		.ascii "int_curr_symbol\0"
 9322      63757272 
 9322      5F73796D 
 9322      626F6C00 
 9323 b35a 22       		.byte	0x22
 9324 b35b 31       		.byte	0x31
 9325 b35c 0B       		.byte	0xb
 9326 b35d B4B20000 		.long	0xb2b4
 9327 b361 18       		.byte	0x18
 9328 b362 09       		.uleb128 0x9
 9329 b363 63757272 		.ascii "currency_symbol\0"
 9329      656E6379 
 9329      5F73796D 
 9329      626F6C00 
 9330 b373 22       		.byte	0x22
 9331 b374 32       		.byte	0x32
 9332 b375 0B       		.byte	0xb
 9333 b376 B4B20000 		.long	0xb2b4
 9334 b37a 20       		.byte	0x20
 9335 b37b 09       		.uleb128 0x9
 9336 b37c 6D6F6E5F 		.ascii "mon_decimal_point\0"
 9336      64656369 
 9336      6D616C5F 
 9336      706F696E 
 9336      7400
 9337 b38e 22       		.byte	0x22
 9338 b38f 33       		.byte	0x33
 9339 b390 0B       		.byte	0xb
 9340 b391 B4B20000 		.long	0xb2b4
 9341 b395 28       		.byte	0x28
 9342 b396 09       		.uleb128 0x9
 9343 b397 6D6F6E5F 		.ascii "mon_thousands_sep\0"
 9343      74686F75 
 9343      73616E64 
 9343      735F7365 
 9343      7000
 9344 b3a9 22       		.byte	0x22
 9345 b3aa 34       		.byte	0x34
 9346 b3ab 0B       		.byte	0xb
 9347 b3ac B4B20000 		.long	0xb2b4
 9348 b3b0 30       		.byte	0x30
 9349 b3b1 09       		.uleb128 0x9
 9350 b3b2 6D6F6E5F 		.ascii "mon_grouping\0"
 9350      67726F75 
 9350      70696E67 
 9350      00
 9351 b3bf 22       		.byte	0x22
 9352 b3c0 35       		.byte	0x35
 9353 b3c1 0B       		.byte	0xb
 9354 b3c2 B4B20000 		.long	0xb2b4
 9355 b3c6 38       		.byte	0x38
 9356 b3c7 09       		.uleb128 0x9
 9357 b3c8 706F7369 		.ascii "positive_sign\0"
 9357      74697665 
 9357      5F736967 
 9357      6E00
 9358 b3d6 22       		.byte	0x22
GAS LISTING C:\Users\Ilya\AppData\Local\Temp\ccxaKDG8.s 			page 241


 9359 b3d7 36       		.byte	0x36
 9360 b3d8 0B       		.byte	0xb
 9361 b3d9 B4B20000 		.long	0xb2b4
 9362 b3dd 40       		.byte	0x40
 9363 b3de 09       		.uleb128 0x9
 9364 b3df 6E656761 		.ascii "negative_sign\0"
 9364      74697665 
 9364      5F736967 
 9364      6E00
 9365 b3ed 22       		.byte	0x22
 9366 b3ee 37       		.byte	0x37
 9367 b3ef 0B       		.byte	0xb
 9368 b3f0 B4B20000 		.long	0xb2b4
 9369 b3f4 48       		.byte	0x48
 9370 b3f5 09       		.uleb128 0x9
 9371 b3f6 696E745F 		.ascii "int_frac_digits\0"
 9371      66726163 
 9371      5F646967 
 9371      69747300 
 9372 b406 22       		.byte	0x22
 9373 b407 38       		.byte	0x38
 9374 b408 0A       		.byte	0xa
 9375 b409 F7B10000 		.long	0xb1f7
 9376 b40d 50       		.byte	0x50
 9377 b40e 09       		.uleb128 0x9
 9378 b40f 66726163 		.ascii "frac_digits\0"
 9378      5F646967 
 9378      69747300 
 9379 b41b 22       		.byte	0x22
 9380 b41c 39       		.byte	0x39
 9381 b41d 0A       		.byte	0xa
 9382 b41e F7B10000 		.long	0xb1f7
 9383 b422 51       		.byte	0x51
 9384 b423 09       		.uleb128 0x9
 9385 b424 705F6373 		.ascii "p_cs_precedes\0"
 9385      5F707265 
 9385      63656465 
 9385      7300
 9386 b432 22       		.byte	0x22
 9387 b433 3A       		.byte	0x3a
 9388 b434 0A       		.byte	0xa
 9389 b435 F7B10000 		.long	0xb1f7
 9390 b439 52       		.byte	0x52
 9391 b43a 09       		.uleb128 0x9
 9392 b43b 705F7365 		.ascii "p_sep_by_space\0"
 9392      705F6279 
 9392      5F737061 
 9392      636500
 9393 b44a 22       		.byte	0x22
 9394 b44b 3B       		.byte	0x3b
 9395 b44c 0A       		.byte	0xa
 9396 b44d F7B10000 		.long	0xb1f7
 9397 b451 53       		.byte	0x53
 9398 b452 09       		.uleb128 0x9
 9399 b453 6E5F6373 		.ascii "n_cs_precedes\0"
 9399      5F707265 
 9399      63656465 
GAS LISTING C:\Users\Ilya\AppData\Local\Temp\ccxaKDG8.s 			page 242


 9399      7300
 9400 b461 22       		.byte	0x22
 9401 b462 3C       		.byte	0x3c
 9402 b463 0A       		.byte	0xa
 9403 b464 F7B10000 		.long	0xb1f7
 9404 b468 54       		.byte	0x54
 9405 b469 09       		.uleb128 0x9
 9406 b46a 6E5F7365 		.ascii "n_sep_by_space\0"
 9406      705F6279 
 9406      5F737061 
 9406      636500
 9407 b479 22       		.byte	0x22
 9408 b47a 3D       		.byte	0x3d
 9409 b47b 0A       		.byte	0xa
 9410 b47c F7B10000 		.long	0xb1f7
 9411 b480 55       		.byte	0x55
 9412 b481 09       		.uleb128 0x9
 9413 b482 705F7369 		.ascii "p_sign_posn\0"
 9413      676E5F70 
 9413      6F736E00 
 9414 b48e 22       		.byte	0x22
 9415 b48f 3E       		.byte	0x3e
 9416 b490 0A       		.byte	0xa
 9417 b491 F7B10000 		.long	0xb1f7
 9418 b495 56       		.byte	0x56
 9419 b496 09       		.uleb128 0x9
 9420 b497 6E5F7369 		.ascii "n_sign_posn\0"
 9420      676E5F70 
 9420      6F736E00 
 9421 b4a3 22       		.byte	0x22
 9422 b4a4 3F       		.byte	0x3f
 9423 b4a5 0A       		.byte	0xa
 9424 b4a6 F7B10000 		.long	0xb1f7
 9425 b4aa 57       		.byte	0x57
 9426 b4ab 00       		.byte	0
 9427 b4ac 06       		.uleb128 0x6
 9428 b4ad 08       		.byte	0x8
 9429 b4ae FAB20000 		.long	0xb2fa
 9430 b4b2 11       		.uleb128 0x11
 9431 b4b3 01       		.byte	0x1
 9432 b4b4 08       		.byte	0x8
 9433 b4b5 756E7369 		.ascii "unsigned char\0"
 9433      676E6564 
 9433      20636861 
 9433      7200
 9434 b4c3 15       		.uleb128 0x15
 9435 b4c4 5F696F62 		.ascii "_iobuf\0"
 9435      756600
 9436 b4cb 30       		.byte	0x30
 9437 b4cc 23       		.byte	0x23
 9438 b4cd 29       		.byte	0x29
 9439 b4ce 0A       		.byte	0xa
 9440 b4cf 53B50000 		.long	0xb553
 9441 b4d3 09       		.uleb128 0x9
 9442 b4d4 5F707472 		.ascii "_ptr\0"
 9442      00
 9443 b4d9 23       		.byte	0x23
GAS LISTING C:\Users\Ilya\AppData\Local\Temp\ccxaKDG8.s 			page 243


 9444 b4da 2A       		.byte	0x2a
 9445 b4db 0B       		.byte	0xb
 9446 b4dc B4B20000 		.long	0xb2b4
 9447 b4e0 00       		.byte	0
 9448 b4e1 09       		.uleb128 0x9
 9449 b4e2 5F636E74 		.ascii "_cnt\0"
 9449      00
 9450 b4e7 23       		.byte	0x23
 9451 b4e8 2B       		.byte	0x2b
 9452 b4e9 09       		.byte	0x9
 9453 b4ea 9CB20000 		.long	0xb29c
 9454 b4ee 08       		.byte	0x8
 9455 b4ef 09       		.uleb128 0x9
 9456 b4f0 5F626173 		.ascii "_base\0"
 9456      6500
 9457 b4f6 23       		.byte	0x23
 9458 b4f7 2C       		.byte	0x2c
 9459 b4f8 0B       		.byte	0xb
 9460 b4f9 B4B20000 		.long	0xb2b4
 9461 b4fd 10       		.byte	0x10
 9462 b4fe 09       		.uleb128 0x9
 9463 b4ff 5F666C61 		.ascii "_flag\0"
 9463      6700
 9464 b505 23       		.byte	0x23
 9465 b506 2D       		.byte	0x2d
 9466 b507 09       		.byte	0x9
 9467 b508 9CB20000 		.long	0xb29c
 9468 b50c 18       		.byte	0x18
 9469 b50d 09       		.uleb128 0x9
 9470 b50e 5F66696C 		.ascii "_file\0"
 9470      6500
 9471 b514 23       		.byte	0x23
 9472 b515 2E       		.byte	0x2e
 9473 b516 09       		.byte	0x9
 9474 b517 9CB20000 		.long	0xb29c
 9475 b51b 1C       		.byte	0x1c
 9476 b51c 09       		.uleb128 0x9
 9477 b51d 5F636861 		.ascii "_charbuf\0"
 9477      72627566 
 9477      00
 9478 b526 23       		.byte	0x23
 9479 b527 2F       		.byte	0x2f
 9480 b528 09       		.byte	0x9
 9481 b529 9CB20000 		.long	0xb29c
 9482 b52d 20       		.byte	0x20
 9483 b52e 09       		.uleb128 0x9
 9484 b52f 5F627566 		.ascii "_bufsiz\0"
 9484      73697A00 
 9485 b537 23       		.byte	0x23
 9486 b538 30       		.byte	0x30
 9487 b539 09       		.byte	0x9
 9488 b53a 9CB20000 		.long	0xb29c
 9489 b53e 24       		.byte	0x24
 9490 b53f 09       		.uleb128 0x9
 9491 b540 5F746D70 		.ascii "_tmpfname\0"
 9491      666E616D 
 9491      6500
GAS LISTING C:\Users\Ilya\AppData\Local\Temp\ccxaKDG8.s 			page 244


 9492 b54a 23       		.byte	0x23
 9493 b54b 31       		.byte	0x31
 9494 b54c 0B       		.byte	0xb
 9495 b54d B4B20000 		.long	0xb2b4
 9496 b551 28       		.byte	0x28
 9497 b552 00       		.byte	0
 9498 b553 0A       		.uleb128 0xa
 9499 b554 46494C45 		.ascii "FILE\0"
 9499      00
 9500 b559 23       		.byte	0x23
 9501 b55a 33       		.byte	0x33
 9502 b55b 19       		.byte	0x19
 9503 b55c C3B40000 		.long	0xb4c3
 9504 b560 11       		.uleb128 0x11
 9505 b561 02       		.byte	0x2
 9506 b562 05       		.byte	0x5
 9507 b563 73686F72 		.ascii "short int\0"
 9507      7420696E 
 9507      7400
 9508 b56d 2E       		.uleb128 0x2e
 9509 b56e 746D00   		.ascii "tm\0"
 9510 b571 24       		.byte	0x24
 9511 b572 23       		.byte	0x23
 9512 b573 6F05     		.word	0x56f
 9513 b575 0A       		.byte	0xa
 9514 b576 1BB60000 		.long	0xb61b
 9515 b57a 1D       		.uleb128 0x1d
 9516 b57b 746D5F73 		.ascii "tm_sec\0"
 9516      656300
 9517 b582 23       		.byte	0x23
 9518 b583 7005     		.word	0x570
 9519 b585 09       		.byte	0x9
 9520 b586 9CB20000 		.long	0xb29c
 9521 b58a 00       		.byte	0
 9522 b58b 1D       		.uleb128 0x1d
 9523 b58c 746D5F6D 		.ascii "tm_min\0"
 9523      696E00
 9524 b593 23       		.byte	0x23
 9525 b594 7105     		.word	0x571
 9526 b596 09       		.byte	0x9
 9527 b597 9CB20000 		.long	0xb29c
 9528 b59b 04       		.byte	0x4
 9529 b59c 1D       		.uleb128 0x1d
 9530 b59d 746D5F68 		.ascii "tm_hour\0"
 9530      6F757200 
 9531 b5a5 23       		.byte	0x23
 9532 b5a6 7205     		.word	0x572
 9533 b5a8 09       		.byte	0x9
 9534 b5a9 9CB20000 		.long	0xb29c
 9535 b5ad 08       		.byte	0x8
 9536 b5ae 1D       		.uleb128 0x1d
 9537 b5af 746D5F6D 		.ascii "tm_mday\0"
 9537      64617900 
 9538 b5b7 23       		.byte	0x23
 9539 b5b8 7305     		.word	0x573
 9540 b5ba 09       		.byte	0x9
 9541 b5bb 9CB20000 		.long	0xb29c
GAS LISTING C:\Users\Ilya\AppData\Local\Temp\ccxaKDG8.s 			page 245


 9542 b5bf 0C       		.byte	0xc
 9543 b5c0 1D       		.uleb128 0x1d
 9544 b5c1 746D5F6D 		.ascii "tm_mon\0"
 9544      6F6E00
 9545 b5c8 23       		.byte	0x23
 9546 b5c9 7405     		.word	0x574
 9547 b5cb 09       		.byte	0x9
 9548 b5cc 9CB20000 		.long	0xb29c
 9549 b5d0 10       		.byte	0x10
 9550 b5d1 1D       		.uleb128 0x1d
 9551 b5d2 746D5F79 		.ascii "tm_year\0"
 9551      65617200 
 9552 b5da 23       		.byte	0x23
 9553 b5db 7505     		.word	0x575
 9554 b5dd 09       		.byte	0x9
 9555 b5de 9CB20000 		.long	0xb29c
 9556 b5e2 14       		.byte	0x14
 9557 b5e3 1D       		.uleb128 0x1d
 9558 b5e4 746D5F77 		.ascii "tm_wday\0"
 9558      64617900 
 9559 b5ec 23       		.byte	0x23
 9560 b5ed 7605     		.word	0x576
 9561 b5ef 09       		.byte	0x9
 9562 b5f0 9CB20000 		.long	0xb29c
 9563 b5f4 18       		.byte	0x18
 9564 b5f5 1D       		.uleb128 0x1d
 9565 b5f6 746D5F79 		.ascii "tm_yday\0"
 9565      64617900 
 9566 b5fe 23       		.byte	0x23
 9567 b5ff 7705     		.word	0x577
 9568 b601 09       		.byte	0x9
 9569 b602 9CB20000 		.long	0xb29c
 9570 b606 1C       		.byte	0x1c
 9571 b607 1D       		.uleb128 0x1d
 9572 b608 746D5F69 		.ascii "tm_isdst\0"
 9572      73647374 
 9572      00
 9573 b611 23       		.byte	0x23
 9574 b612 7805     		.word	0x578
 9575 b614 09       		.byte	0x9
 9576 b615 9CB20000 		.long	0xb29c
 9577 b619 20       		.byte	0x20
 9578 b61a 00       		.byte	0
 9579 b61b 07       		.uleb128 0x7
 9580 b61c 6DB50000 		.long	0xb56d
 9581 b620 24       		.uleb128 0x24
 9582 b621 6D627374 		.ascii "mbstate_t\0"
 9582      6174655F 
 9582      7400
 9583 b62b 23       		.byte	0x23
 9584 b62c AD05     		.word	0x5ad
 9585 b62e 0F       		.byte	0xf
 9586 b62f 9CB20000 		.long	0xb29c
 9587 b633 07       		.uleb128 0x7
 9588 b634 20B60000 		.long	0xb620
 9589 b638 05       		.uleb128 0x5
 9590 b639 62746F77 		.ascii "btowc\0"
GAS LISTING C:\Users\Ilya\AppData\Local\Temp\ccxaKDG8.s 			page 246


 9590      6300
 9591 b63f 23       		.byte	0x23
 9592 b640 B105     		.word	0x5b1
 9593 b642 12       		.byte	0x12
 9594 b643 66B20000 		.long	0xb266
 9595 b647 51B60000 		.long	0xb651
 9596 b64b 01       		.uleb128 0x1
 9597 b64c 9CB20000 		.long	0xb29c
 9598 b650 00       		.byte	0
 9599 b651 05       		.uleb128 0x5
 9600 b652 66676574 		.ascii "fgetwc\0"
 9600      776300
 9601 b659 23       		.byte	0x23
 9602 b65a 2303     		.word	0x323
 9603 b65c 12       		.byte	0x12
 9604 b65d 66B20000 		.long	0xb266
 9605 b661 6BB60000 		.long	0xb66b
 9606 b665 01       		.uleb128 0x1
 9607 b666 6BB60000 		.long	0xb66b
 9608 b66a 00       		.byte	0
 9609 b66b 06       		.uleb128 0x6
 9610 b66c 08       		.byte	0x8
 9611 b66d 53B50000 		.long	0xb553
 9612 b671 05       		.uleb128 0x5
 9613 b672 66676574 		.ascii "fgetws\0"
 9613      777300
 9614 b679 23       		.byte	0x23
 9615 b67a 2C03     		.word	0x32c
 9616 b67c 14       		.byte	0x14
 9617 b67d BFB20000 		.long	0xb2bf
 9618 b681 95B60000 		.long	0xb695
 9619 b685 01       		.uleb128 0x1
 9620 b686 BFB20000 		.long	0xb2bf
 9621 b68a 01       		.uleb128 0x1
 9622 b68b 9CB20000 		.long	0xb29c
 9623 b68f 01       		.uleb128 0x1
 9624 b690 6BB60000 		.long	0xb66b
 9625 b694 00       		.byte	0
 9626 b695 05       		.uleb128 0x5
 9627 b696 66707574 		.ascii "fputwc\0"
 9627      776300
 9628 b69d 23       		.byte	0x23
 9629 b69e 2503     		.word	0x325
 9630 b6a0 12       		.byte	0x12
 9631 b6a1 66B20000 		.long	0xb266
 9632 b6a5 B4B60000 		.long	0xb6b4
 9633 b6a9 01       		.uleb128 0x1
 9634 b6aa C5B20000 		.long	0xb2c5
 9635 b6ae 01       		.uleb128 0x1
 9636 b6af 6BB60000 		.long	0xb66b
 9637 b6b3 00       		.byte	0
 9638 b6b4 05       		.uleb128 0x5
 9639 b6b5 66707574 		.ascii "fputws\0"
 9639      777300
 9640 b6bc 23       		.byte	0x23
 9641 b6bd 2D03     		.word	0x32d
 9642 b6bf 0F       		.byte	0xf
GAS LISTING C:\Users\Ilya\AppData\Local\Temp\ccxaKDG8.s 			page 247


 9643 b6c0 9CB20000 		.long	0xb29c
 9644 b6c4 D3B60000 		.long	0xb6d3
 9645 b6c8 01       		.uleb128 0x1
 9646 b6c9 D3B60000 		.long	0xb6d3
 9647 b6cd 01       		.uleb128 0x1
 9648 b6ce 6BB60000 		.long	0xb66b
 9649 b6d2 00       		.byte	0
 9650 b6d3 06       		.uleb128 0x6
 9651 b6d4 08       		.byte	0x8
 9652 b6d5 D0B20000 		.long	0xb2d0
 9653 b6d9 05       		.uleb128 0x5
 9654 b6da 66776964 		.ascii "fwide\0"
 9654      6500
 9655 b6e0 23       		.byte	0x23
 9656 b6e1 C005     		.word	0x5c0
 9657 b6e3 0F       		.byte	0xf
 9658 b6e4 9CB20000 		.long	0xb29c
 9659 b6e8 F7B60000 		.long	0xb6f7
 9660 b6ec 01       		.uleb128 0x1
 9661 b6ed 6BB60000 		.long	0xb66b
 9662 b6f1 01       		.uleb128 0x1
 9663 b6f2 9CB20000 		.long	0xb29c
 9664 b6f6 00       		.byte	0
 9665 b6f7 0D       		.uleb128 0xd
 9666 b6f8 66777072 		.ascii "fwprintf\0"
 9666      696E7466 
 9666      00
 9667 b701 23       		.byte	0x23
 9668 b702 6902     		.word	0x269
 9669 b704 05       		.byte	0x5
 9670 b705 9CB20000 		.long	0xb29c
 9671 b709 19B70000 		.long	0xb719
 9672 b70d 01       		.uleb128 0x1
 9673 b70e 6BB60000 		.long	0xb66b
 9674 b712 01       		.uleb128 0x1
 9675 b713 D3B60000 		.long	0xb6d3
 9676 b717 1B       		.uleb128 0x1b
 9677 b718 00       		.byte	0
 9678 b719 0D       		.uleb128 0xd
 9679 b71a 66777363 		.ascii "fwscanf\0"
 9679      616E6600 
 9680 b722 23       		.byte	0x23
 9681 b723 4502     		.word	0x245
 9682 b725 05       		.byte	0x5
 9683 b726 9CB20000 		.long	0xb29c
 9684 b72a 3AB70000 		.long	0xb73a
 9685 b72e 01       		.uleb128 0x1
 9686 b72f 6BB60000 		.long	0xb66b
 9687 b733 01       		.uleb128 0x1
 9688 b734 D3B60000 		.long	0xb6d3
 9689 b738 1B       		.uleb128 0x1b
 9690 b739 00       		.byte	0
 9691 b73a 05       		.uleb128 0x5
 9692 b73b 67657477 		.ascii "getwc\0"
 9692      6300
 9693 b741 23       		.byte	0x23
 9694 b742 2703     		.word	0x327
GAS LISTING C:\Users\Ilya\AppData\Local\Temp\ccxaKDG8.s 			page 248


 9695 b744 12       		.byte	0x12
 9696 b745 66B20000 		.long	0xb266
 9697 b749 53B70000 		.long	0xb753
 9698 b74d 01       		.uleb128 0x1
 9699 b74e 6BB60000 		.long	0xb66b
 9700 b752 00       		.byte	0
 9701 b753 3D       		.uleb128 0x3d
 9702 b754 67657477 		.ascii "getwchar\0"
 9702      63686172 
 9702      00
 9703 b75d 23       		.byte	0x23
 9704 b75e 2803     		.word	0x328
 9705 b760 12       		.byte	0x12
 9706 b761 66B20000 		.long	0xb266
 9707 b765 05       		.uleb128 0x5
 9708 b766 6D62726C 		.ascii "mbrlen\0"
 9708      656E00
 9709 b76d 23       		.byte	0x23
 9710 b76e B205     		.word	0x5b2
 9711 b770 12       		.byte	0x12
 9712 b771 04B20000 		.long	0xb204
 9713 b775 89B70000 		.long	0xb789
 9714 b779 01       		.uleb128 0x1
 9715 b77a 89B70000 		.long	0xb789
 9716 b77e 01       		.uleb128 0x1
 9717 b77f 04B20000 		.long	0xb204
 9718 b783 01       		.uleb128 0x1
 9719 b784 94B70000 		.long	0xb794
 9720 b788 00       		.byte	0
 9721 b789 06       		.uleb128 0x6
 9722 b78a 08       		.byte	0x8
 9723 b78b FFB10000 		.long	0xb1ff
 9724 b78f 07       		.uleb128 0x7
 9725 b790 89B70000 		.long	0xb789
 9726 b794 06       		.uleb128 0x6
 9727 b795 08       		.byte	0x8
 9728 b796 20B60000 		.long	0xb620
 9729 b79a 05       		.uleb128 0x5
 9730 b79b 6D627274 		.ascii "mbrtowc\0"
 9730      6F776300 
 9731 b7a3 23       		.byte	0x23
 9732 b7a4 B305     		.word	0x5b3
 9733 b7a6 12       		.byte	0x12
 9734 b7a7 04B20000 		.long	0xb204
 9735 b7ab C4B70000 		.long	0xb7c4
 9736 b7af 01       		.uleb128 0x1
 9737 b7b0 BFB20000 		.long	0xb2bf
 9738 b7b4 01       		.uleb128 0x1
 9739 b7b5 89B70000 		.long	0xb789
 9740 b7b9 01       		.uleb128 0x1
 9741 b7ba 04B20000 		.long	0xb204
 9742 b7be 01       		.uleb128 0x1
 9743 b7bf 94B70000 		.long	0xb794
 9744 b7c3 00       		.byte	0
 9745 b7c4 05       		.uleb128 0x5
 9746 b7c5 6D627369 		.ascii "mbsinit\0"
 9746      6E697400 
GAS LISTING C:\Users\Ilya\AppData\Local\Temp\ccxaKDG8.s 			page 249


 9747 b7cd 23       		.byte	0x23
 9748 b7ce C505     		.word	0x5c5
 9749 b7d0 0F       		.byte	0xf
 9750 b7d1 9CB20000 		.long	0xb29c
 9751 b7d5 DFB70000 		.long	0xb7df
 9752 b7d9 01       		.uleb128 0x1
 9753 b7da DFB70000 		.long	0xb7df
 9754 b7de 00       		.byte	0
 9755 b7df 06       		.uleb128 0x6
 9756 b7e0 08       		.byte	0x8
 9757 b7e1 33B60000 		.long	0xb633
 9758 b7e5 05       		.uleb128 0x5
 9759 b7e6 6D627372 		.ascii "mbsrtowcs\0"
 9759      746F7763 
 9759      7300
 9760 b7f0 23       		.byte	0x23
 9761 b7f1 B405     		.word	0x5b4
 9762 b7f3 12       		.byte	0x12
 9763 b7f4 04B20000 		.long	0xb204
 9764 b7f8 11B80000 		.long	0xb811
 9765 b7fc 01       		.uleb128 0x1
 9766 b7fd BFB20000 		.long	0xb2bf
 9767 b801 01       		.uleb128 0x1
 9768 b802 11B80000 		.long	0xb811
 9769 b806 01       		.uleb128 0x1
 9770 b807 04B20000 		.long	0xb204
 9771 b80b 01       		.uleb128 0x1
 9772 b80c 94B70000 		.long	0xb794
 9773 b810 00       		.byte	0
 9774 b811 06       		.uleb128 0x6
 9775 b812 08       		.byte	0x8
 9776 b813 89B70000 		.long	0xb789
 9777 b817 05       		.uleb128 0x5
 9778 b818 70757477 		.ascii "putwc\0"
 9778      6300
 9779 b81e 23       		.byte	0x23
 9780 b81f 2903     		.word	0x329
 9781 b821 12       		.byte	0x12
 9782 b822 66B20000 		.long	0xb266
 9783 b826 35B80000 		.long	0xb835
 9784 b82a 01       		.uleb128 0x1
 9785 b82b C5B20000 		.long	0xb2c5
 9786 b82f 01       		.uleb128 0x1
 9787 b830 6BB60000 		.long	0xb66b
 9788 b834 00       		.byte	0
 9789 b835 05       		.uleb128 0x5
 9790 b836 70757477 		.ascii "putwchar\0"
 9790      63686172 
 9790      00
 9791 b83f 23       		.byte	0x23
 9792 b840 2A03     		.word	0x32a
 9793 b842 12       		.byte	0x12
 9794 b843 66B20000 		.long	0xb266
 9795 b847 51B80000 		.long	0xb851
 9796 b84b 01       		.uleb128 0x1
 9797 b84c C5B20000 		.long	0xb2c5
 9798 b850 00       		.byte	0
GAS LISTING C:\Users\Ilya\AppData\Local\Temp\ccxaKDG8.s 			page 250


 9799 b851 3E       		.uleb128 0x3e
 9800 b852 F3010000 		.secrel32	.LASF89
 9801 b856 24       		.byte	0x24
 9802 b857 3E       		.byte	0x3e
 9803 b858 05       		.byte	0x5
 9804 b859 9CB20000 		.long	0xb29c
 9805 b85d 6DB80000 		.long	0xb86d
 9806 b861 01       		.uleb128 0x1
 9807 b862 BFB20000 		.long	0xb2bf
 9808 b866 01       		.uleb128 0x1
 9809 b867 D3B60000 		.long	0xb6d3
 9810 b86b 1B       		.uleb128 0x1b
 9811 b86c 00       		.byte	0
 9812 b86d 3E       		.uleb128 0x3e
 9813 b86e F3010000 		.secrel32	.LASF89
 9814 b872 24       		.byte	0x24
 9815 b873 22       		.byte	0x22
 9816 b874 05       		.byte	0x5
 9817 b875 9CB20000 		.long	0xb29c
 9818 b879 8EB80000 		.long	0xb88e
 9819 b87d 01       		.uleb128 0x1
 9820 b87e BFB20000 		.long	0xb2bf
 9821 b882 01       		.uleb128 0x1
 9822 b883 04B20000 		.long	0xb204
 9823 b887 01       		.uleb128 0x1
 9824 b888 D3B60000 		.long	0xb6d3
 9825 b88c 1B       		.uleb128 0x1b
 9826 b88d 00       		.byte	0
 9827 b88e 0D       		.uleb128 0xd
 9828 b88f 73777363 		.ascii "swscanf\0"
 9828      616E6600 
 9829 b897 23       		.byte	0x23
 9830 b898 2F02     		.word	0x22f
 9831 b89a 05       		.byte	0x5
 9832 b89b 9CB20000 		.long	0xb29c
 9833 b89f AFB80000 		.long	0xb8af
 9834 b8a3 01       		.uleb128 0x1
 9835 b8a4 D3B60000 		.long	0xb6d3
 9836 b8a8 01       		.uleb128 0x1
 9837 b8a9 D3B60000 		.long	0xb6d3
 9838 b8ad 1B       		.uleb128 0x1b
 9839 b8ae 00       		.byte	0
 9840 b8af 05       		.uleb128 0x5
 9841 b8b0 756E6765 		.ascii "ungetwc\0"
 9841      74776300 
 9842 b8b8 23       		.byte	0x23
 9843 b8b9 2B03     		.word	0x32b
 9844 b8bb 12       		.byte	0x12
 9845 b8bc 66B20000 		.long	0xb266
 9846 b8c0 CFB80000 		.long	0xb8cf
 9847 b8c4 01       		.uleb128 0x1
 9848 b8c5 66B20000 		.long	0xb266
 9849 b8c9 01       		.uleb128 0x1
 9850 b8ca 6BB60000 		.long	0xb66b
 9851 b8ce 00       		.byte	0
 9852 b8cf 0D       		.uleb128 0xd
 9853 b8d0 76667770 		.ascii "vfwprintf\0"
GAS LISTING C:\Users\Ilya\AppData\Local\Temp\ccxaKDG8.s 			page 251


 9853      72696E74 
 9853      6600
 9854 b8da 23       		.byte	0x23
 9855 b8db 7F02     		.word	0x27f
 9856 b8dd 05       		.byte	0x5
 9857 b8de 9CB20000 		.long	0xb29c
 9858 b8e2 F6B80000 		.long	0xb8f6
 9859 b8e6 01       		.uleb128 0x1
 9860 b8e7 6BB60000 		.long	0xb66b
 9861 b8eb 01       		.uleb128 0x1
 9862 b8ec D3B60000 		.long	0xb6d3
 9863 b8f0 01       		.uleb128 0x1
 9864 b8f1 DEB10000 		.long	0xb1de
 9865 b8f5 00       		.byte	0
 9866 b8f6 0D       		.uleb128 0xd
 9867 b8f7 76667773 		.ascii "vfwscanf\0"
 9867      63616E66 
 9867      00
 9868 b900 23       		.byte	0x23
 9869 b901 5F02     		.word	0x25f
 9870 b903 05       		.byte	0x5
 9871 b904 9CB20000 		.long	0xb29c
 9872 b908 1CB90000 		.long	0xb91c
 9873 b90c 01       		.uleb128 0x1
 9874 b90d 6BB60000 		.long	0xb66b
 9875 b911 01       		.uleb128 0x1
 9876 b912 D3B60000 		.long	0xb6d3
 9877 b916 01       		.uleb128 0x1
 9878 b917 DEB10000 		.long	0xb1de
 9879 b91b 00       		.byte	0
 9880 b91c 3E       		.uleb128 0x3e
 9881 b91d 94020000 		.secrel32	.LASF90
 9882 b921 24       		.byte	0x24
 9883 b922 33       		.byte	0x33
 9884 b923 05       		.byte	0x5
 9885 b924 9CB20000 		.long	0xb29c
 9886 b928 3CB90000 		.long	0xb93c
 9887 b92c 01       		.uleb128 0x1
 9888 b92d BFB20000 		.long	0xb2bf
 9889 b931 01       		.uleb128 0x1
 9890 b932 D3B60000 		.long	0xb6d3
 9891 b936 01       		.uleb128 0x1
 9892 b937 DEB10000 		.long	0xb1de
 9893 b93b 00       		.byte	0
 9894 b93c 3E       		.uleb128 0x3e
 9895 b93d 94020000 		.secrel32	.LASF90
 9896 b941 24       		.byte	0x24
 9897 b942 1B       		.byte	0x1b
 9898 b943 05       		.byte	0x5
 9899 b944 9CB20000 		.long	0xb29c
 9900 b948 61B90000 		.long	0xb961
 9901 b94c 01       		.uleb128 0x1
 9902 b94d BFB20000 		.long	0xb2bf
 9903 b951 01       		.uleb128 0x1
 9904 b952 04B20000 		.long	0xb204
 9905 b956 01       		.uleb128 0x1
 9906 b957 D3B60000 		.long	0xb6d3
GAS LISTING C:\Users\Ilya\AppData\Local\Temp\ccxaKDG8.s 			page 252


 9907 b95b 01       		.uleb128 0x1
 9908 b95c DEB10000 		.long	0xb1de
 9909 b960 00       		.byte	0
 9910 b961 0D       		.uleb128 0xd
 9911 b962 76737773 		.ascii "vswscanf\0"
 9911      63616E66 
 9911      00
 9912 b96b 23       		.byte	0x23
 9913 b96c 5102     		.word	0x251
 9914 b96e 05       		.byte	0x5
 9915 b96f 9CB20000 		.long	0xb29c
 9916 b973 87B90000 		.long	0xb987
 9917 b977 01       		.uleb128 0x1
 9918 b978 D3B60000 		.long	0xb6d3
 9919 b97c 01       		.uleb128 0x1
 9920 b97d D3B60000 		.long	0xb6d3
 9921 b981 01       		.uleb128 0x1
 9922 b982 DEB10000 		.long	0xb1de
 9923 b986 00       		.byte	0
 9924 b987 0D       		.uleb128 0xd
 9925 b988 76777072 		.ascii "vwprintf\0"
 9925      696E7466 
 9925      00
 9926 b991 23       		.byte	0x23
 9927 b992 8602     		.word	0x286
 9928 b994 05       		.byte	0x5
 9929 b995 9CB20000 		.long	0xb29c
 9930 b999 A8B90000 		.long	0xb9a8
 9931 b99d 01       		.uleb128 0x1
 9932 b99e D3B60000 		.long	0xb6d3
 9933 b9a2 01       		.uleb128 0x1
 9934 b9a3 DEB10000 		.long	0xb1de
 9935 b9a7 00       		.byte	0
 9936 b9a8 0D       		.uleb128 0xd
 9937 b9a9 76777363 		.ascii "vwscanf\0"
 9937      616E6600 
 9938 b9b1 23       		.byte	0x23
 9939 b9b2 5802     		.word	0x258
 9940 b9b4 05       		.byte	0x5
 9941 b9b5 9CB20000 		.long	0xb29c
 9942 b9b9 C8B90000 		.long	0xb9c8
 9943 b9bd 01       		.uleb128 0x1
 9944 b9be D3B60000 		.long	0xb6d3
 9945 b9c2 01       		.uleb128 0x1
 9946 b9c3 DEB10000 		.long	0xb1de
 9947 b9c7 00       		.byte	0
 9948 b9c8 05       		.uleb128 0x5
 9949 b9c9 77637274 		.ascii "wcrtomb\0"
 9949      6F6D6200 
 9950 b9d1 23       		.byte	0x23
 9951 b9d2 B505     		.word	0x5b5
 9952 b9d4 12       		.byte	0x12
 9953 b9d5 04B20000 		.long	0xb204
 9954 b9d9 EDB90000 		.long	0xb9ed
 9955 b9dd 01       		.uleb128 0x1
 9956 b9de B4B20000 		.long	0xb2b4
 9957 b9e2 01       		.uleb128 0x1
GAS LISTING C:\Users\Ilya\AppData\Local\Temp\ccxaKDG8.s 			page 253


 9958 b9e3 C5B20000 		.long	0xb2c5
 9959 b9e7 01       		.uleb128 0x1
 9960 b9e8 94B70000 		.long	0xb794
 9961 b9ec 00       		.byte	0
 9962 b9ed 05       		.uleb128 0x5
 9963 b9ee 77637363 		.ascii "wcscat\0"
 9963      617400
 9964 b9f5 23       		.byte	0x23
 9965 b9f6 3705     		.word	0x537
 9966 b9f8 14       		.byte	0x14
 9967 b9f9 BFB20000 		.long	0xb2bf
 9968 b9fd 0CBA0000 		.long	0xba0c
 9969 ba01 01       		.uleb128 0x1
 9970 ba02 BFB20000 		.long	0xb2bf
 9971 ba06 01       		.uleb128 0x1
 9972 ba07 D3B60000 		.long	0xb6d3
 9973 ba0b 00       		.byte	0
 9974 ba0c 05       		.uleb128 0x5
 9975 ba0d 77637363 		.ascii "wcscmp\0"
 9975      6D7000
 9976 ba14 23       		.byte	0x23
 9977 ba15 3905     		.word	0x539
 9978 ba17 0F       		.byte	0xf
 9979 ba18 9CB20000 		.long	0xb29c
 9980 ba1c 2BBA0000 		.long	0xba2b
 9981 ba20 01       		.uleb128 0x1
 9982 ba21 D3B60000 		.long	0xb6d3
 9983 ba25 01       		.uleb128 0x1
 9984 ba26 D3B60000 		.long	0xb6d3
 9985 ba2a 00       		.byte	0
 9986 ba2b 05       		.uleb128 0x5
 9987 ba2c 77637363 		.ascii "wcscoll\0"
 9987      6F6C6C00 
 9988 ba34 23       		.byte	0x23
 9989 ba35 5605     		.word	0x556
 9990 ba37 0F       		.byte	0xf
 9991 ba38 9CB20000 		.long	0xb29c
 9992 ba3c 4BBA0000 		.long	0xba4b
 9993 ba40 01       		.uleb128 0x1
 9994 ba41 D3B60000 		.long	0xb6d3
 9995 ba45 01       		.uleb128 0x1
 9996 ba46 D3B60000 		.long	0xb6d3
 9997 ba4a 00       		.byte	0
 9998 ba4b 05       		.uleb128 0x5
 9999 ba4c 77637363 		.ascii "wcscpy\0"
 9999      707900
 10000 ba53 23       		.byte	0x23
 10001 ba54 3A05     		.word	0x53a
 10002 ba56 14       		.byte	0x14
 10003 ba57 BFB20000 		.long	0xb2bf
 10004 ba5b 6ABA0000 		.long	0xba6a
 10005 ba5f 01       		.uleb128 0x1
 10006 ba60 BFB20000 		.long	0xb2bf
 10007 ba64 01       		.uleb128 0x1
 10008 ba65 D3B60000 		.long	0xb6d3
 10009 ba69 00       		.byte	0
 10010 ba6a 05       		.uleb128 0x5
GAS LISTING C:\Users\Ilya\AppData\Local\Temp\ccxaKDG8.s 			page 254


 10011 ba6b 77637363 		.ascii "wcscspn\0"
 10011      73706E00 
 10012 ba73 23       		.byte	0x23
 10013 ba74 3B05     		.word	0x53b
 10014 ba76 12       		.byte	0x12
 10015 ba77 04B20000 		.long	0xb204
 10016 ba7b 8ABA0000 		.long	0xba8a
 10017 ba7f 01       		.uleb128 0x1
 10018 ba80 D3B60000 		.long	0xb6d3
 10019 ba84 01       		.uleb128 0x1
 10020 ba85 D3B60000 		.long	0xb6d3
 10021 ba89 00       		.byte	0
 10022 ba8a 05       		.uleb128 0x5
 10023 ba8b 77637366 		.ascii "wcsftime\0"
 10023      74696D65 
 10023      00
 10024 ba94 23       		.byte	0x23
 10025 ba95 8305     		.word	0x583
 10026 ba97 12       		.byte	0x12
 10027 ba98 04B20000 		.long	0xb204
 10028 ba9c B5BA0000 		.long	0xbab5
 10029 baa0 01       		.uleb128 0x1
 10030 baa1 BFB20000 		.long	0xb2bf
 10031 baa5 01       		.uleb128 0x1
 10032 baa6 04B20000 		.long	0xb204
 10033 baaa 01       		.uleb128 0x1
 10034 baab D3B60000 		.long	0xb6d3
 10035 baaf 01       		.uleb128 0x1
 10036 bab0 B5BA0000 		.long	0xbab5
 10037 bab4 00       		.byte	0
 10038 bab5 06       		.uleb128 0x6
 10039 bab6 08       		.byte	0x8
 10040 bab7 1BB60000 		.long	0xb61b
 10041 babb 05       		.uleb128 0x5
 10042 babc 7763736C 		.ascii "wcslen\0"
 10042      656E00
 10043 bac3 23       		.byte	0x23
 10044 bac4 3C05     		.word	0x53c
 10045 bac6 12       		.byte	0x12
 10046 bac7 04B20000 		.long	0xb204
 10047 bacb D5BA0000 		.long	0xbad5
 10048 bacf 01       		.uleb128 0x1
 10049 bad0 D3B60000 		.long	0xb6d3
 10050 bad4 00       		.byte	0
 10051 bad5 05       		.uleb128 0x5
 10052 bad6 7763736E 		.ascii "wcsncat\0"
 10052      63617400 
 10053 bade 23       		.byte	0x23
 10054 badf 3E05     		.word	0x53e
 10055 bae1 14       		.byte	0x14
 10056 bae2 BFB20000 		.long	0xb2bf
 10057 bae6 FABA0000 		.long	0xbafa
 10058 baea 01       		.uleb128 0x1
 10059 baeb BFB20000 		.long	0xb2bf
 10060 baef 01       		.uleb128 0x1
 10061 baf0 D3B60000 		.long	0xb6d3
 10062 baf4 01       		.uleb128 0x1
GAS LISTING C:\Users\Ilya\AppData\Local\Temp\ccxaKDG8.s 			page 255


 10063 baf5 04B20000 		.long	0xb204
 10064 baf9 00       		.byte	0
 10065 bafa 05       		.uleb128 0x5
 10066 bafb 7763736E 		.ascii "wcsncmp\0"
 10066      636D7000 
 10067 bb03 23       		.byte	0x23
 10068 bb04 3F05     		.word	0x53f
 10069 bb06 0F       		.byte	0xf
 10070 bb07 9CB20000 		.long	0xb29c
 10071 bb0b 1FBB0000 		.long	0xbb1f
 10072 bb0f 01       		.uleb128 0x1
 10073 bb10 D3B60000 		.long	0xb6d3
 10074 bb14 01       		.uleb128 0x1
 10075 bb15 D3B60000 		.long	0xb6d3
 10076 bb19 01       		.uleb128 0x1
 10077 bb1a 04B20000 		.long	0xb204
 10078 bb1e 00       		.byte	0
 10079 bb1f 05       		.uleb128 0x5
 10080 bb20 7763736E 		.ascii "wcsncpy\0"
 10080      63707900 
 10081 bb28 23       		.byte	0x23
 10082 bb29 4005     		.word	0x540
 10083 bb2b 14       		.byte	0x14
 10084 bb2c BFB20000 		.long	0xb2bf
 10085 bb30 44BB0000 		.long	0xbb44
 10086 bb34 01       		.uleb128 0x1
 10087 bb35 BFB20000 		.long	0xb2bf
 10088 bb39 01       		.uleb128 0x1
 10089 bb3a D3B60000 		.long	0xb6d3
 10090 bb3e 01       		.uleb128 0x1
 10091 bb3f 04B20000 		.long	0xb204
 10092 bb43 00       		.byte	0
 10093 bb44 05       		.uleb128 0x5
 10094 bb45 77637372 		.ascii "wcsrtombs\0"
 10094      746F6D62 
 10094      7300
 10095 bb4f 23       		.byte	0x23
 10096 bb50 B605     		.word	0x5b6
 10097 bb52 12       		.byte	0x12
 10098 bb53 04B20000 		.long	0xb204
 10099 bb57 70BB0000 		.long	0xbb70
 10100 bb5b 01       		.uleb128 0x1
 10101 bb5c B4B20000 		.long	0xb2b4
 10102 bb60 01       		.uleb128 0x1
 10103 bb61 70BB0000 		.long	0xbb70
 10104 bb65 01       		.uleb128 0x1
 10105 bb66 04B20000 		.long	0xb204
 10106 bb6a 01       		.uleb128 0x1
 10107 bb6b 94B70000 		.long	0xb794
 10108 bb6f 00       		.byte	0
 10109 bb70 06       		.uleb128 0x6
 10110 bb71 08       		.byte	0x8
 10111 bb72 D3B60000 		.long	0xb6d3
 10112 bb76 05       		.uleb128 0x5
 10113 bb77 77637373 		.ascii "wcsspn\0"
 10113      706E00
 10114 bb7e 23       		.byte	0x23
GAS LISTING C:\Users\Ilya\AppData\Local\Temp\ccxaKDG8.s 			page 256


 10115 bb7f 4405     		.word	0x544
 10116 bb81 12       		.byte	0x12
 10117 bb82 04B20000 		.long	0xb204
 10118 bb86 95BB0000 		.long	0xbb95
 10119 bb8a 01       		.uleb128 0x1
 10120 bb8b D3B60000 		.long	0xb6d3
 10121 bb8f 01       		.uleb128 0x1
 10122 bb90 D3B60000 		.long	0xb6d3
 10123 bb94 00       		.byte	0
 10124 bb95 0D       		.uleb128 0xd
 10125 bb96 77637374 		.ascii "wcstod\0"
 10125      6F6400
 10126 bb9d 23       		.byte	0x23
 10127 bb9e FC04     		.word	0x4fc
 10128 bba0 12       		.byte	0x12
 10129 bba1 B4BB0000 		.long	0xbbb4
 10130 bba5 B4BB0000 		.long	0xbbb4
 10131 bba9 01       		.uleb128 0x1
 10132 bbaa D3B60000 		.long	0xb6d3
 10133 bbae 01       		.uleb128 0x1
 10134 bbaf BEBB0000 		.long	0xbbbe
 10135 bbb3 00       		.byte	0
 10136 bbb4 11       		.uleb128 0x11
 10137 bbb5 08       		.byte	0x8
 10138 bbb6 04       		.byte	0x4
 10139 bbb7 646F7562 		.ascii "double\0"
 10139      6C6500
 10140 bbbe 06       		.uleb128 0x6
 10141 bbbf 08       		.byte	0x8
 10142 bbc0 BFB20000 		.long	0xb2bf
 10143 bbc4 0D       		.uleb128 0xd
 10144 bbc5 77637374 		.ascii "wcstof\0"
 10144      6F6600
 10145 bbcc 23       		.byte	0x23
 10146 bbcd 0005     		.word	0x500
 10147 bbcf 11       		.byte	0x11
 10148 bbd0 E3BB0000 		.long	0xbbe3
 10149 bbd4 E3BB0000 		.long	0xbbe3
 10150 bbd8 01       		.uleb128 0x1
 10151 bbd9 D3B60000 		.long	0xb6d3
 10152 bbdd 01       		.uleb128 0x1
 10153 bbde BEBB0000 		.long	0xbbbe
 10154 bbe2 00       		.byte	0
 10155 bbe3 11       		.uleb128 0x11
 10156 bbe4 04       		.byte	0x4
 10157 bbe5 04       		.byte	0x4
 10158 bbe6 666C6F61 		.ascii "float\0"
 10158      7400
 10159 bbec 05       		.uleb128 0x5
 10160 bbed 77637374 		.ascii "wcstok\0"
 10160      6F6B00
 10161 bbf4 23       		.byte	0x23
 10162 bbf5 4605     		.word	0x546
 10163 bbf7 14       		.byte	0x14
 10164 bbf8 BFB20000 		.long	0xb2bf
 10165 bbfc 0BBC0000 		.long	0xbc0b
 10166 bc00 01       		.uleb128 0x1
GAS LISTING C:\Users\Ilya\AppData\Local\Temp\ccxaKDG8.s 			page 257


 10167 bc01 BFB20000 		.long	0xb2bf
 10168 bc05 01       		.uleb128 0x1
 10169 bc06 D3B60000 		.long	0xb6d3
 10170 bc0a 00       		.byte	0
 10171 bc0b 05       		.uleb128 0x5
 10172 bc0c 77637374 		.ascii "wcstol\0"
 10172      6F6C00
 10173 bc13 23       		.byte	0x23
 10174 bc14 0B05     		.word	0x50b
 10175 bc16 10       		.byte	0x10
 10176 bc17 A8B20000 		.long	0xb2a8
 10177 bc1b 2FBC0000 		.long	0xbc2f
 10178 bc1f 01       		.uleb128 0x1
 10179 bc20 D3B60000 		.long	0xb6d3
 10180 bc24 01       		.uleb128 0x1
 10181 bc25 BEBB0000 		.long	0xbbbe
 10182 bc29 01       		.uleb128 0x1
 10183 bc2a 9CB20000 		.long	0xb29c
 10184 bc2e 00       		.byte	0
 10185 bc2f 05       		.uleb128 0x5
 10186 bc30 77637374 		.ascii "wcstoul\0"
 10186      6F756C00 
 10187 bc38 23       		.byte	0x23
 10188 bc39 0D05     		.word	0x50d
 10189 bc3b 19       		.byte	0x19
 10190 bc3c E5B20000 		.long	0xb2e5
 10191 bc40 54BC0000 		.long	0xbc54
 10192 bc44 01       		.uleb128 0x1
 10193 bc45 D3B60000 		.long	0xb6d3
 10194 bc49 01       		.uleb128 0x1
 10195 bc4a BEBB0000 		.long	0xbbbe
 10196 bc4e 01       		.uleb128 0x1
 10197 bc4f 9CB20000 		.long	0xb29c
 10198 bc53 00       		.byte	0
 10199 bc54 05       		.uleb128 0x5
 10200 bc55 77637378 		.ascii "wcsxfrm\0"
 10200      66726D00 
 10201 bc5d 23       		.byte	0x23
 10202 bc5e 5405     		.word	0x554
 10203 bc60 12       		.byte	0x12
 10204 bc61 04B20000 		.long	0xb204
 10205 bc65 79BC0000 		.long	0xbc79
 10206 bc69 01       		.uleb128 0x1
 10207 bc6a BFB20000 		.long	0xb2bf
 10208 bc6e 01       		.uleb128 0x1
 10209 bc6f D3B60000 		.long	0xb6d3
 10210 bc73 01       		.uleb128 0x1
 10211 bc74 04B20000 		.long	0xb204
 10212 bc78 00       		.byte	0
 10213 bc79 05       		.uleb128 0x5
 10214 bc7a 7763746F 		.ascii "wctob\0"
 10214      6200
 10215 bc80 23       		.byte	0x23
 10216 bc81 B705     		.word	0x5b7
 10217 bc83 0F       		.byte	0xf
 10218 bc84 9CB20000 		.long	0xb29c
 10219 bc88 92BC0000 		.long	0xbc92
GAS LISTING C:\Users\Ilya\AppData\Local\Temp\ccxaKDG8.s 			page 258


 10220 bc8c 01       		.uleb128 0x1
 10221 bc8d 66B20000 		.long	0xb266
 10222 bc91 00       		.byte	0
 10223 bc92 05       		.uleb128 0x5
 10224 bc93 776D656D 		.ascii "wmemcmp\0"
 10224      636D7000 
 10225 bc9b 23       		.byte	0x23
 10226 bc9c BC05     		.word	0x5bc
 10227 bc9e 0F       		.byte	0xf
 10228 bc9f 9CB20000 		.long	0xb29c
 10229 bca3 B7BC0000 		.long	0xbcb7
 10230 bca7 01       		.uleb128 0x1
 10231 bca8 D3B60000 		.long	0xb6d3
 10232 bcac 01       		.uleb128 0x1
 10233 bcad D3B60000 		.long	0xb6d3
 10234 bcb1 01       		.uleb128 0x1
 10235 bcb2 04B20000 		.long	0xb204
 10236 bcb6 00       		.byte	0
 10237 bcb7 05       		.uleb128 0x5
 10238 bcb8 776D656D 		.ascii "wmemcpy\0"
 10238      63707900 
 10239 bcc0 23       		.byte	0x23
 10240 bcc1 BD05     		.word	0x5bd
 10241 bcc3 14       		.byte	0x14
 10242 bcc4 BFB20000 		.long	0xb2bf
 10243 bcc8 DCBC0000 		.long	0xbcdc
 10244 bccc 01       		.uleb128 0x1
 10245 bccd BFB20000 		.long	0xb2bf
 10246 bcd1 01       		.uleb128 0x1
 10247 bcd2 D3B60000 		.long	0xb6d3
 10248 bcd6 01       		.uleb128 0x1
 10249 bcd7 04B20000 		.long	0xb204
 10250 bcdb 00       		.byte	0
 10251 bcdc 05       		.uleb128 0x5
 10252 bcdd 776D656D 		.ascii "wmemmove\0"
 10252      6D6F7665 
 10252      00
 10253 bce6 23       		.byte	0x23
 10254 bce7 BF05     		.word	0x5bf
 10255 bce9 14       		.byte	0x14
 10256 bcea BFB20000 		.long	0xb2bf
 10257 bcee 02BD0000 		.long	0xbd02
 10258 bcf2 01       		.uleb128 0x1
 10259 bcf3 BFB20000 		.long	0xb2bf
 10260 bcf7 01       		.uleb128 0x1
 10261 bcf8 D3B60000 		.long	0xb6d3
 10262 bcfc 01       		.uleb128 0x1
 10263 bcfd 04B20000 		.long	0xb204
 10264 bd01 00       		.byte	0
 10265 bd02 05       		.uleb128 0x5
 10266 bd03 776D656D 		.ascii "wmemset\0"
 10266      73657400 
 10267 bd0b 23       		.byte	0x23
 10268 bd0c BA05     		.word	0x5ba
 10269 bd0e 14       		.byte	0x14
 10270 bd0f BFB20000 		.long	0xb2bf
 10271 bd13 27BD0000 		.long	0xbd27
GAS LISTING C:\Users\Ilya\AppData\Local\Temp\ccxaKDG8.s 			page 259


 10272 bd17 01       		.uleb128 0x1
 10273 bd18 BFB20000 		.long	0xb2bf
 10274 bd1c 01       		.uleb128 0x1
 10275 bd1d C5B20000 		.long	0xb2c5
 10276 bd21 01       		.uleb128 0x1
 10277 bd22 04B20000 		.long	0xb204
 10278 bd26 00       		.byte	0
 10279 bd27 0D       		.uleb128 0xd
 10280 bd28 77707269 		.ascii "wprintf\0"
 10280      6E746600 
 10281 bd30 23       		.byte	0x23
 10282 bd31 7402     		.word	0x274
 10283 bd33 05       		.byte	0x5
 10284 bd34 9CB20000 		.long	0xb29c
 10285 bd38 43BD0000 		.long	0xbd43
 10286 bd3c 01       		.uleb128 0x1
 10287 bd3d D3B60000 		.long	0xb6d3
 10288 bd41 1B       		.uleb128 0x1b
 10289 bd42 00       		.byte	0
 10290 bd43 0D       		.uleb128 0xd
 10291 bd44 77736361 		.ascii "wscanf\0"
 10291      6E6600
 10292 bd4b 23       		.byte	0x23
 10293 bd4c 3A02     		.word	0x23a
 10294 bd4e 05       		.byte	0x5
 10295 bd4f 9CB20000 		.long	0xb29c
 10296 bd53 5EBD0000 		.long	0xbd5e
 10297 bd57 01       		.uleb128 0x1
 10298 bd58 D3B60000 		.long	0xb6d3
 10299 bd5c 1B       		.uleb128 0x1b
 10300 bd5d 00       		.byte	0
 10301 bd5e 05       		.uleb128 0x5
 10302 bd5f 77637363 		.ascii "wcschr\0"
 10302      687200
 10303 bd66 23       		.byte	0x23
 10304 bd67 3805     		.word	0x538
 10305 bd69 22       		.byte	0x22
 10306 bd6a BFB20000 		.long	0xb2bf
 10307 bd6e 7DBD0000 		.long	0xbd7d
 10308 bd72 01       		.uleb128 0x1
 10309 bd73 D3B60000 		.long	0xb6d3
 10310 bd77 01       		.uleb128 0x1
 10311 bd78 C5B20000 		.long	0xb2c5
 10312 bd7c 00       		.byte	0
 10313 bd7d 05       		.uleb128 0x5
 10314 bd7e 77637370 		.ascii "wcspbrk\0"
 10314      62726B00 
 10315 bd86 23       		.byte	0x23
 10316 bd87 4205     		.word	0x542
 10317 bd89 22       		.byte	0x22
 10318 bd8a BFB20000 		.long	0xb2bf
 10319 bd8e 9DBD0000 		.long	0xbd9d
 10320 bd92 01       		.uleb128 0x1
 10321 bd93 D3B60000 		.long	0xb6d3
 10322 bd97 01       		.uleb128 0x1
 10323 bd98 D3B60000 		.long	0xb6d3
 10324 bd9c 00       		.byte	0
GAS LISTING C:\Users\Ilya\AppData\Local\Temp\ccxaKDG8.s 			page 260


 10325 bd9d 05       		.uleb128 0x5
 10326 bd9e 77637372 		.ascii "wcsrchr\0"
 10326      63687200 
 10327 bda6 23       		.byte	0x23
 10328 bda7 4305     		.word	0x543
 10329 bda9 22       		.byte	0x22
 10330 bdaa BFB20000 		.long	0xb2bf
 10331 bdae BDBD0000 		.long	0xbdbd
 10332 bdb2 01       		.uleb128 0x1
 10333 bdb3 D3B60000 		.long	0xb6d3
 10334 bdb7 01       		.uleb128 0x1
 10335 bdb8 C5B20000 		.long	0xb2c5
 10336 bdbc 00       		.byte	0
 10337 bdbd 05       		.uleb128 0x5
 10338 bdbe 77637373 		.ascii "wcsstr\0"
 10338      747200
 10339 bdc5 23       		.byte	0x23
 10340 bdc6 4505     		.word	0x545
 10341 bdc8 22       		.byte	0x22
 10342 bdc9 BFB20000 		.long	0xb2bf
 10343 bdcd DCBD0000 		.long	0xbddc
 10344 bdd1 01       		.uleb128 0x1
 10345 bdd2 D3B60000 		.long	0xb6d3
 10346 bdd6 01       		.uleb128 0x1
 10347 bdd7 D3B60000 		.long	0xb6d3
 10348 bddb 00       		.byte	0
 10349 bddc 05       		.uleb128 0x5
 10350 bddd 776D656D 		.ascii "wmemchr\0"
 10350      63687200 
 10351 bde5 23       		.byte	0x23
 10352 bde6 BB05     		.word	0x5bb
 10353 bde8 22       		.byte	0x22
 10354 bde9 BFB20000 		.long	0xb2bf
 10355 bded 01BE0000 		.long	0xbe01
 10356 bdf1 01       		.uleb128 0x1
 10357 bdf2 D3B60000 		.long	0xb6d3
 10358 bdf6 01       		.uleb128 0x1
 10359 bdf7 C5B20000 		.long	0xb2c5
 10360 bdfb 01       		.uleb128 0x1
 10361 bdfc 04B20000 		.long	0xb204
 10362 be00 00       		.byte	0
 10363 be01 05       		.uleb128 0x5
 10364 be02 77637374 		.ascii "wcstold\0"
 10364      6F6C6400 
 10365 be0a 23       		.byte	0x23
 10366 be0b 0905     		.word	0x509
 10367 be0d 17       		.byte	0x17
 10368 be0e 21BE0000 		.long	0xbe21
 10369 be12 21BE0000 		.long	0xbe21
 10370 be16 01       		.uleb128 0x1
 10371 be17 D3B60000 		.long	0xb6d3
 10372 be1b 01       		.uleb128 0x1
 10373 be1c BEBB0000 		.long	0xbbbe
 10374 be20 00       		.byte	0
 10375 be21 11       		.uleb128 0x11
 10376 be22 10       		.byte	0x10
 10377 be23 04       		.byte	0x4
GAS LISTING C:\Users\Ilya\AppData\Local\Temp\ccxaKDG8.s 			page 261


 10378 be24 6C6F6E67 		.ascii "long double\0"
 10378      20646F75 
 10378      626C6500 
 10379 be30 05       		.uleb128 0x5
 10380 be31 77637374 		.ascii "wcstoll\0"
 10380      6F6C6C00 
 10381 be39 23       		.byte	0x23
 10382 be3a C705     		.word	0x5c7
 10383 be3c 27       		.byte	0x27
 10384 be3d 32B20000 		.long	0xb232
 10385 be41 55BE0000 		.long	0xbe55
 10386 be45 01       		.uleb128 0x1
 10387 be46 D3B60000 		.long	0xb6d3
 10388 be4a 01       		.uleb128 0x1
 10389 be4b BEBB0000 		.long	0xbbbe
 10390 be4f 01       		.uleb128 0x1
 10391 be50 9CB20000 		.long	0xb29c
 10392 be54 00       		.byte	0
 10393 be55 05       		.uleb128 0x5
 10394 be56 77637374 		.ascii "wcstoull\0"
 10394      6F756C6C 
 10394      00
 10395 be5f 23       		.byte	0x23
 10396 be60 C805     		.word	0x5c8
 10397 be62 30       		.byte	0x30
 10398 be63 18B20000 		.long	0xb218
 10399 be67 7BBE0000 		.long	0xbe7b
 10400 be6b 01       		.uleb128 0x1
 10401 be6c D3B60000 		.long	0xb6d3
 10402 be70 01       		.uleb128 0x1
 10403 be71 BEBB0000 		.long	0xbbbe
 10404 be75 01       		.uleb128 0x1
 10405 be76 9CB20000 		.long	0xb29c
 10406 be7a 00       		.byte	0
 10407 be7b 8201     		.uleb128 0x82
 10408 be7d 08       		.byte	0x8
 10409 be7e 06       		.uleb128 0x6
 10410 be7f 08       		.byte	0x8
 10411 be80 4D4A0000 		.long	0x4a4d
 10412 be84 06       		.uleb128 0x6
 10413 be85 08       		.byte	0x8
 10414 be86 B64E0000 		.long	0x4eb6
 10415 be8a 08       		.uleb128 0x8
 10416 be8b 08       		.byte	0x8
 10417 be8c B64E0000 		.long	0x4eb6
 10418 be90 8301     		.uleb128 0x83
 10419 be92 6465636C 		.ascii "decltype(nullptr)\0"
 10419      74797065 
 10419      286E756C 
 10419      6C707472 
 10419      2900
 10420 bea4 1E       		.uleb128 0x1e
 10421 bea5 08       		.byte	0x8
 10422 bea6 4D4A0000 		.long	0x4a4d
 10423 beaa 08       		.uleb128 0x8
 10424 beab 08       		.byte	0x8
 10425 beac 4D4A0000 		.long	0x4a4d
GAS LISTING C:\Users\Ilya\AppData\Local\Temp\ccxaKDG8.s 			page 262


 10426 beb0 11       		.uleb128 0x11
 10427 beb1 01       		.byte	0x1
 10428 beb2 02       		.byte	0x2
 10429 beb3 626F6F6C 		.ascii "bool\0"
 10429      00
 10430 beb8 07       		.uleb128 0x7
 10431 beb9 B0BE0000 		.long	0xbeb0
 10432 bebd 06       		.uleb128 0x6
 10433 bebe 08       		.byte	0x8
 10434 bebf 464F0000 		.long	0x4f46
 10435 bec3 06       		.uleb128 0x6
 10436 bec4 08       		.byte	0x8
 10437 bec5 55500000 		.long	0x5055
 10438 bec9 06       		.uleb128 0x6
 10439 beca 08       		.byte	0x8
 10440 becb 62510000 		.long	0x5162
 10441 becf 11       		.uleb128 0x11
 10442 bed0 10       		.byte	0x10
 10443 bed1 07       		.byte	0x7
 10444 bed2 5F5F696E 		.ascii "__int128 unsigned\0"
 10444      74313238 
 10444      20756E73 
 10444      69676E65 
 10444      6400
 10445 bee4 11       		.uleb128 0x11
 10446 bee5 01       		.byte	0x1
 10447 bee6 06       		.byte	0x6
 10448 bee7 7369676E 		.ascii "signed char\0"
 10448      65642063 
 10448      68617200 
 10449 bef3 11       		.uleb128 0x11
 10450 bef4 10       		.byte	0x10
 10451 bef5 05       		.byte	0x5
 10452 bef6 5F5F696E 		.ascii "__int128\0"
 10452      74313238 
 10452      00
 10453 beff 11       		.uleb128 0x11
 10454 bf00 02       		.byte	0x2
 10455 bf01 10       		.byte	0x10
 10456 bf02 63686172 		.ascii "char16_t\0"
 10456      31365F74 
 10456      00
 10457 bf0b 11       		.uleb128 0x11
 10458 bf0c 04       		.byte	0x4
 10459 bf0d 10       		.byte	0x10
 10460 bf0e 63686172 		.ascii "char32_t\0"
 10460      33325F74 
 10460      00
 10461 bf17 06       		.uleb128 0x6
 10462 bf18 08       		.byte	0x8
 10463 bf19 7C520000 		.long	0x527c
 10464 bf1d 62       		.uleb128 0x62
 10465 bf1e C3520000 		.long	0x52c3
 10466 bf22 42       		.uleb128 0x42
 10467 bf23 5F5F676E 		.ascii "__gnu_debug\0"
 10467      755F6465 
 10467      62756700 
GAS LISTING C:\Users\Ilya\AppData\Local\Temp\ccxaKDG8.s 			page 263


 10468 bf2f 10       		.byte	0x10
 10469 bf30 38       		.byte	0x38
 10470 bf31 0B       		.byte	0xb
 10471 bf32 3FBF0000 		.long	0xbf3f
 10472 bf36 46       		.uleb128 0x46
 10473 bf37 10       		.byte	0x10
 10474 bf38 3A       		.byte	0x3a
 10475 bf39 18       		.byte	0x18
 10476 bf3a F9520000 		.long	0x52f9
 10477 bf3e 00       		.byte	0
 10478 bf3f 08       		.uleb128 0x8
 10479 bf40 08       		.byte	0x8
 10480 bf41 5C530000 		.long	0x535c
 10481 bf45 08       		.uleb128 0x8
 10482 bf46 08       		.byte	0x8
 10483 bf47 6F530000 		.long	0x536f
 10484 bf4b 06       		.uleb128 0x6
 10485 bf4c 08       		.byte	0x8
 10486 bf4d 6F530000 		.long	0x536f
 10487 bf51 06       		.uleb128 0x6
 10488 bf52 08       		.byte	0x8
 10489 bf53 5C530000 		.long	0x535c
 10490 bf57 08       		.uleb128 0x8
 10491 bf58 08       		.byte	0x8
 10492 bf59 D7550000 		.long	0x55d7
 10493 bf5d 0A       		.uleb128 0xa
 10494 bf5e 696E7438 		.ascii "int8_t\0"
 10494      5F7400
 10495 bf65 25       		.byte	0x25
 10496 bf66 23       		.byte	0x23
 10497 bf67 15       		.byte	0x15
 10498 bf68 E4BE0000 		.long	0xbee4
 10499 bf6c 0A       		.uleb128 0xa
 10500 bf6d 75696E74 		.ascii "uint8_t\0"
 10500      385F7400 
 10501 bf75 25       		.byte	0x25
 10502 bf76 24       		.byte	0x24
 10503 bf77 19       		.byte	0x19
 10504 bf78 B2B40000 		.long	0xb4b2
 10505 bf7c 0A       		.uleb128 0xa
 10506 bf7d 696E7431 		.ascii "int16_t\0"
 10506      365F7400 
 10507 bf85 25       		.byte	0x25
 10508 bf86 25       		.byte	0x25
 10509 bf87 10       		.byte	0x10
 10510 bf88 60B50000 		.long	0xb560
 10511 bf8c 0A       		.uleb128 0xa
 10512 bf8d 75696E74 		.ascii "uint16_t\0"
 10512      31365F74 
 10512      00
 10513 bf96 25       		.byte	0x25
 10514 bf97 26       		.byte	0x26
 10515 bf98 19       		.byte	0x19
 10516 bf99 75B20000 		.long	0xb275
 10517 bf9d 0A       		.uleb128 0xa
 10518 bf9e 696E7433 		.ascii "int32_t\0"
 10518      325F7400 
GAS LISTING C:\Users\Ilya\AppData\Local\Temp\ccxaKDG8.s 			page 264


 10519 bfa6 25       		.byte	0x25
 10520 bfa7 27       		.byte	0x27
 10521 bfa8 0E       		.byte	0xe
 10522 bfa9 9CB20000 		.long	0xb29c
 10523 bfad 0A       		.uleb128 0xa
 10524 bfae 75696E74 		.ascii "uint32_t\0"
 10524      33325F74 
 10524      00
 10525 bfb7 25       		.byte	0x25
 10526 bfb8 28       		.byte	0x28
 10527 bfb9 14       		.byte	0x14
 10528 bfba D5B20000 		.long	0xb2d5
 10529 bfbe 0A       		.uleb128 0xa
 10530 bfbf 696E7436 		.ascii "int64_t\0"
 10530      345F7400 
 10531 bfc7 25       		.byte	0x25
 10532 bfc8 29       		.byte	0x29
 10533 bfc9 26       		.byte	0x26
 10534 bfca 32B20000 		.long	0xb232
 10535 bfce 0A       		.uleb128 0xa
 10536 bfcf 75696E74 		.ascii "uint64_t\0"
 10536      36345F74 
 10536      00
 10537 bfd8 25       		.byte	0x25
 10538 bfd9 2A       		.byte	0x2a
 10539 bfda 30       		.byte	0x30
 10540 bfdb 18B20000 		.long	0xb218
 10541 bfdf 0A       		.uleb128 0xa
 10542 bfe0 696E745F 		.ascii "int_least8_t\0"
 10542      6C656173 
 10542      74385F74 
 10542      00
 10543 bfed 25       		.byte	0x25
 10544 bfee 2D       		.byte	0x2d
 10545 bfef 15       		.byte	0x15
 10546 bff0 E4BE0000 		.long	0xbee4
 10547 bff4 0A       		.uleb128 0xa
 10548 bff5 75696E74 		.ascii "uint_least8_t\0"
 10548      5F6C6561 
 10548      7374385F 
 10548      7400
 10549 c003 25       		.byte	0x25
 10550 c004 2E       		.byte	0x2e
 10551 c005 19       		.byte	0x19
 10552 c006 B2B40000 		.long	0xb4b2
 10553 c00a 0A       		.uleb128 0xa
 10554 c00b 696E745F 		.ascii "int_least16_t\0"
 10554      6C656173 
 10554      7431365F 
 10554      7400
 10555 c019 25       		.byte	0x25
 10556 c01a 2F       		.byte	0x2f
 10557 c01b 10       		.byte	0x10
 10558 c01c 60B50000 		.long	0xb560
 10559 c020 0A       		.uleb128 0xa
 10560 c021 75696E74 		.ascii "uint_least16_t\0"
 10560      5F6C6561 
GAS LISTING C:\Users\Ilya\AppData\Local\Temp\ccxaKDG8.s 			page 265


 10560      73743136 
 10560      5F7400
 10561 c030 25       		.byte	0x25
 10562 c031 30       		.byte	0x30
 10563 c032 19       		.byte	0x19
 10564 c033 75B20000 		.long	0xb275
 10565 c037 0A       		.uleb128 0xa
 10566 c038 696E745F 		.ascii "int_least32_t\0"
 10566      6C656173 
 10566      7433325F 
 10566      7400
 10567 c046 25       		.byte	0x25
 10568 c047 31       		.byte	0x31
 10569 c048 0E       		.byte	0xe
 10570 c049 9CB20000 		.long	0xb29c
 10571 c04d 0A       		.uleb128 0xa
 10572 c04e 75696E74 		.ascii "uint_least32_t\0"
 10572      5F6C6561 
 10572      73743332 
 10572      5F7400
 10573 c05d 25       		.byte	0x25
 10574 c05e 32       		.byte	0x32
 10575 c05f 14       		.byte	0x14
 10576 c060 D5B20000 		.long	0xb2d5
 10577 c064 0A       		.uleb128 0xa
 10578 c065 696E745F 		.ascii "int_least64_t\0"
 10578      6C656173 
 10578      7436345F 
 10578      7400
 10579 c073 25       		.byte	0x25
 10580 c074 33       		.byte	0x33
 10581 c075 26       		.byte	0x26
 10582 c076 32B20000 		.long	0xb232
 10583 c07a 0A       		.uleb128 0xa
 10584 c07b 75696E74 		.ascii "uint_least64_t\0"
 10584      5F6C6561 
 10584      73743634 
 10584      5F7400
 10585 c08a 25       		.byte	0x25
 10586 c08b 34       		.byte	0x34
 10587 c08c 30       		.byte	0x30
 10588 c08d 18B20000 		.long	0xb218
 10589 c091 0A       		.uleb128 0xa
 10590 c092 696E745F 		.ascii "int_fast8_t\0"
 10590      66617374 
 10590      385F7400 
 10591 c09e 25       		.byte	0x25
 10592 c09f 3A       		.byte	0x3a
 10593 c0a0 15       		.byte	0x15
 10594 c0a1 E4BE0000 		.long	0xbee4
 10595 c0a5 0A       		.uleb128 0xa
 10596 c0a6 75696E74 		.ascii "uint_fast8_t\0"
 10596      5F666173 
 10596      74385F74 
 10596      00
 10597 c0b3 25       		.byte	0x25
 10598 c0b4 3B       		.byte	0x3b
GAS LISTING C:\Users\Ilya\AppData\Local\Temp\ccxaKDG8.s 			page 266


 10599 c0b5 17       		.byte	0x17
 10600 c0b6 B2B40000 		.long	0xb4b2
 10601 c0ba 0A       		.uleb128 0xa
 10602 c0bb 696E745F 		.ascii "int_fast16_t\0"
 10602      66617374 
 10602      31365F74 
 10602      00
 10603 c0c8 25       		.byte	0x25
 10604 c0c9 3C       		.byte	0x3c
 10605 c0ca 10       		.byte	0x10
 10606 c0cb 60B50000 		.long	0xb560
 10607 c0cf 0A       		.uleb128 0xa
 10608 c0d0 75696E74 		.ascii "uint_fast16_t\0"
 10608      5F666173 
 10608      7431365F 
 10608      7400
 10609 c0de 25       		.byte	0x25
 10610 c0df 3D       		.byte	0x3d
 10611 c0e0 19       		.byte	0x19
 10612 c0e1 75B20000 		.long	0xb275
 10613 c0e5 0A       		.uleb128 0xa
 10614 c0e6 696E745F 		.ascii "int_fast32_t\0"
 10614      66617374 
 10614      33325F74 
 10614      00
 10615 c0f3 25       		.byte	0x25
 10616 c0f4 3E       		.byte	0x3e
 10617 c0f5 0E       		.byte	0xe
 10618 c0f6 9CB20000 		.long	0xb29c
 10619 c0fa 0A       		.uleb128 0xa
 10620 c0fb 75696E74 		.ascii "uint_fast32_t\0"
 10620      5F666173 
 10620      7433325F 
 10620      7400
 10621 c109 25       		.byte	0x25
 10622 c10a 3F       		.byte	0x3f
 10623 c10b 18       		.byte	0x18
 10624 c10c D5B20000 		.long	0xb2d5
 10625 c110 0A       		.uleb128 0xa
 10626 c111 696E745F 		.ascii "int_fast64_t\0"
 10626      66617374 
 10626      36345F74 
 10626      00
 10627 c11e 25       		.byte	0x25
 10628 c11f 40       		.byte	0x40
 10629 c120 26       		.byte	0x26
 10630 c121 32B20000 		.long	0xb232
 10631 c125 0A       		.uleb128 0xa
 10632 c126 75696E74 		.ascii "uint_fast64_t\0"
 10632      5F666173 
 10632      7436345F 
 10632      7400
 10633 c134 25       		.byte	0x25
 10634 c135 41       		.byte	0x41
 10635 c136 30       		.byte	0x30
 10636 c137 18B20000 		.long	0xb218
 10637 c13b 0A       		.uleb128 0xa
GAS LISTING C:\Users\Ilya\AppData\Local\Temp\ccxaKDG8.s 			page 267


 10638 c13c 696E746D 		.ascii "intmax_t\0"
 10638      61785F74 
 10638      00
 10639 c145 25       		.byte	0x25
 10640 c146 44       		.byte	0x44
 10641 c147 26       		.byte	0x26
 10642 c148 32B20000 		.long	0xb232
 10643 c14c 0A       		.uleb128 0xa
 10644 c14d 75696E74 		.ascii "uintmax_t\0"
 10644      6D61785F 
 10644      7400
 10645 c157 25       		.byte	0x25
 10646 c158 45       		.byte	0x45
 10647 c159 30       		.byte	0x30
 10648 c15a 18B20000 		.long	0xb218
 10649 c15e 0A       		.uleb128 0xa
 10650 c15f 66706F73 		.ascii "fpos_t\0"
 10650      5F7400
 10651 c166 26       		.byte	0x26
 10652 c167 66       		.byte	0x66
 10653 c168 25       		.byte	0x25
 10654 c169 32B20000 		.long	0xb232
 10655 c16d 07       		.uleb128 0x7
 10656 c16e 5EC10000 		.long	0xc15e
 10657 c172 37       		.uleb128 0x37
 10658 c173 7365746C 		.ascii "setlocale\0"
 10658      6F63616C 
 10658      6500
 10659 c17d 22       		.byte	0x22
 10660 c17e 50       		.byte	0x50
 10661 c17f 11       		.byte	0x11
 10662 c180 B4B20000 		.long	0xb2b4
 10663 c184 93C10000 		.long	0xc193
 10664 c188 01       		.uleb128 0x1
 10665 c189 9CB20000 		.long	0xb29c
 10666 c18d 01       		.uleb128 0x1
 10667 c18e 89B70000 		.long	0xb789
 10668 c192 00       		.byte	0
 10669 c193 8401     		.uleb128 0x84
 10670 c195 6C6F6361 		.ascii "localeconv\0"
 10670      6C65636F 
 10670      6E7600
 10671 c1a0 22       		.byte	0x22
 10672 c1a1 51       		.byte	0x51
 10673 c1a2 21       		.byte	0x21
 10674 c1a3 ACB40000 		.long	0xb4ac
 10675 c1a7 06       		.uleb128 0x6
 10676 c1a8 08       		.byte	0x8
 10677 c1a9 ADC10000 		.long	0xc1ad
 10678 c1ad 8501     		.uleb128 0x85
 10679 c1af 0A       		.uleb128 0xa
 10680 c1b0 5F41746F 		.ascii "_Atomic_word\0"
 10680      6D69635F 
 10680      776F7264 
 10680      00
 10681 c1bd 27       		.byte	0x27
 10682 c1be 20       		.byte	0x20
GAS LISTING C:\Users\Ilya\AppData\Local\Temp\ccxaKDG8.s 			page 268


 10683 c1bf 0D       		.byte	0xd
 10684 c1c0 9CB20000 		.long	0xb29c
 10685 c1c4 06       		.uleb128 0x6
 10686 c1c5 08       		.byte	0x8
 10687 c1c6 CAC10000 		.long	0xc1ca
 10688 c1ca 8601     		.uleb128 0x86
 10689 c1cc 06       		.uleb128 0x6
 10690 c1cd 08       		.byte	0x8
 10691 c1ce 26940000 		.long	0x9426
 10692 c1d2 08       		.uleb128 0x8
 10693 c1d3 08       		.byte	0x8
 10694 c1d4 1B970000 		.long	0x971b
 10695 c1d8 06       		.uleb128 0x6
 10696 c1d9 08       		.byte	0x8
 10697 c1da 1B970000 		.long	0x971b
 10698 c1de 08       		.uleb128 0x8
 10699 c1df 08       		.byte	0x8
 10700 c1e0 F7B10000 		.long	0xb1f7
 10701 c1e4 08       		.uleb128 0x8
 10702 c1e5 08       		.byte	0x8
 10703 c1e6 FFB10000 		.long	0xb1ff
 10704 c1ea 06       		.uleb128 0x6
 10705 c1eb 08       		.byte	0x8
 10706 c1ec FD570000 		.long	0x57fd
 10707 c1f0 08       		.uleb128 0x8
 10708 c1f1 08       		.byte	0x8
 10709 c1f2 C4580000 		.long	0x58c4
 10710 c1f6 08       		.uleb128 0x8
 10711 c1f7 08       		.byte	0x8
 10712 c1f8 FD570000 		.long	0x57fd
 10713 c1fc 15       		.uleb128 0x15
 10714 c1fd 5F646976 		.ascii "_div_t\0"
 10714      5F7400
 10715 c204 08       		.byte	0x8
 10716 c205 28       		.byte	0x28
 10717 c206 3C       		.byte	0x3c
 10718 c207 12       		.byte	0x12
 10719 c208 28C20000 		.long	0xc228
 10720 c20c 09       		.uleb128 0x9
 10721 c20d 71756F74 		.ascii "quot\0"
 10721      00
 10722 c212 28       		.byte	0x28
 10723 c213 3D       		.byte	0x3d
 10724 c214 09       		.byte	0x9
 10725 c215 9CB20000 		.long	0xb29c
 10726 c219 00       		.byte	0
 10727 c21a 09       		.uleb128 0x9
 10728 c21b 72656D00 		.ascii "rem\0"
 10729 c21f 28       		.byte	0x28
 10730 c220 3E       		.byte	0x3e
 10731 c221 09       		.byte	0x9
 10732 c222 9CB20000 		.long	0xb29c
 10733 c226 04       		.byte	0x4
 10734 c227 00       		.byte	0
 10735 c228 0A       		.uleb128 0xa
 10736 c229 6469765F 		.ascii "div_t\0"
 10736      7400
GAS LISTING C:\Users\Ilya\AppData\Local\Temp\ccxaKDG8.s 			page 269


 10737 c22f 28       		.byte	0x28
 10738 c230 3F       		.byte	0x3f
 10739 c231 05       		.byte	0x5
 10740 c232 FCC10000 		.long	0xc1fc
 10741 c236 15       		.uleb128 0x15
 10742 c237 5F6C6469 		.ascii "_ldiv_t\0"
 10742      765F7400 
 10743 c23f 08       		.byte	0x8
 10744 c240 28       		.byte	0x28
 10745 c241 41       		.byte	0x41
 10746 c242 12       		.byte	0x12
 10747 c243 63C20000 		.long	0xc263
 10748 c247 09       		.uleb128 0x9
 10749 c248 71756F74 		.ascii "quot\0"
 10749      00
 10750 c24d 28       		.byte	0x28
 10751 c24e 42       		.byte	0x42
 10752 c24f 0A       		.byte	0xa
 10753 c250 A8B20000 		.long	0xb2a8
 10754 c254 00       		.byte	0
 10755 c255 09       		.uleb128 0x9
 10756 c256 72656D00 		.ascii "rem\0"
 10757 c25a 28       		.byte	0x28
 10758 c25b 43       		.byte	0x43
 10759 c25c 0A       		.byte	0xa
 10760 c25d A8B20000 		.long	0xb2a8
 10761 c261 04       		.byte	0x4
 10762 c262 00       		.byte	0
 10763 c263 0A       		.uleb128 0xa
 10764 c264 6C646976 		.ascii "ldiv_t\0"
 10764      5F7400
 10765 c26b 28       		.byte	0x28
 10766 c26c 44       		.byte	0x44
 10767 c26d 05       		.byte	0x5
 10768 c26e 36C20000 		.long	0xc236
 10769 c272 06       		.uleb128 0x6
 10770 c273 08       		.byte	0x8
 10771 c274 B4B20000 		.long	0xb2b4
 10772 c278 8701     		.uleb128 0x87
 10773 c27a 10       		.byte	0x10
 10774 c27b 28       		.byte	0x28
 10775 c27c D702     		.word	0x2d7
 10776 c27e 12       		.byte	0x12
 10777 c27f 376C6C64 		.ascii "7lldiv_t\0"
 10777      69765F74 
 10777      00
 10778 c288 AAC20000 		.long	0xc2aa
 10779 c28c 1D       		.uleb128 0x1d
 10780 c28d 71756F74 		.ascii "quot\0"
 10780      00
 10781 c292 28       		.byte	0x28
 10782 c293 D702     		.word	0x2d7
 10783 c295 30       		.byte	0x30
 10784 c296 32B20000 		.long	0xb232
 10785 c29a 00       		.byte	0
 10786 c29b 1D       		.uleb128 0x1d
 10787 c29c 72656D00 		.ascii "rem\0"
GAS LISTING C:\Users\Ilya\AppData\Local\Temp\ccxaKDG8.s 			page 270


 10788 c2a0 28       		.byte	0x28
 10789 c2a1 D702     		.word	0x2d7
 10790 c2a3 36       		.byte	0x36
 10791 c2a4 32B20000 		.long	0xb232
 10792 c2a8 08       		.byte	0x8
 10793 c2a9 00       		.byte	0
 10794 c2aa 24       		.uleb128 0x24
 10795 c2ab 6C6C6469 		.ascii "lldiv_t\0"
 10795      765F7400 
 10796 c2b3 28       		.byte	0x28
 10797 c2b4 D702     		.word	0x2d7
 10798 c2b6 3D       		.byte	0x3d
 10799 c2b7 78C20000 		.long	0xc278
 10800 c2bb 05       		.uleb128 0x5
 10801 c2bc 61746578 		.ascii "atexit\0"
 10801      697400
 10802 c2c3 28       		.byte	0x28
 10803 c2c4 A601     		.word	0x1a6
 10804 c2c6 0F       		.byte	0xf
 10805 c2c7 9CB20000 		.long	0xb29c
 10806 c2cb D5C20000 		.long	0xc2d5
 10807 c2cf 01       		.uleb128 0x1
 10808 c2d0 A7C10000 		.long	0xc1a7
 10809 c2d4 00       		.byte	0
 10810 c2d5 05       		.uleb128 0x5
 10811 c2d6 61746F66 		.ascii "atof\0"
 10811      00
 10812 c2db 28       		.byte	0x28
 10813 c2dc A901     		.word	0x1a9
 10814 c2de 12       		.byte	0x12
 10815 c2df B4BB0000 		.long	0xbbb4
 10816 c2e3 EDC20000 		.long	0xc2ed
 10817 c2e7 01       		.uleb128 0x1
 10818 c2e8 89B70000 		.long	0xb789
 10819 c2ec 00       		.byte	0
 10820 c2ed 05       		.uleb128 0x5
 10821 c2ee 61746F69 		.ascii "atoi\0"
 10821      00
 10822 c2f3 28       		.byte	0x28
 10823 c2f4 AC01     		.word	0x1ac
 10824 c2f6 0F       		.byte	0xf
 10825 c2f7 9CB20000 		.long	0xb29c
 10826 c2fb 05C30000 		.long	0xc305
 10827 c2ff 01       		.uleb128 0x1
 10828 c300 89B70000 		.long	0xb789
 10829 c304 00       		.byte	0
 10830 c305 05       		.uleb128 0x5
 10831 c306 61746F6C 		.ascii "atol\0"
 10831      00
 10832 c30b 28       		.byte	0x28
 10833 c30c AE01     		.word	0x1ae
 10834 c30e 10       		.byte	0x10
 10835 c30f A8B20000 		.long	0xb2a8
 10836 c313 1DC30000 		.long	0xc31d
 10837 c317 01       		.uleb128 0x1
 10838 c318 89B70000 		.long	0xb789
 10839 c31c 00       		.byte	0
GAS LISTING C:\Users\Ilya\AppData\Local\Temp\ccxaKDG8.s 			page 271


 10840 c31d 05       		.uleb128 0x5
 10841 c31e 62736561 		.ascii "bsearch\0"
 10841      72636800 
 10842 c326 28       		.byte	0x28
 10843 c327 B201     		.word	0x1b2
 10844 c329 11       		.byte	0x11
 10845 c32a 7BBE0000 		.long	0xbe7b
 10846 c32e 4CC30000 		.long	0xc34c
 10847 c332 01       		.uleb128 0x1
 10848 c333 C4C10000 		.long	0xc1c4
 10849 c337 01       		.uleb128 0x1
 10850 c338 C4C10000 		.long	0xc1c4
 10851 c33c 01       		.uleb128 0x1
 10852 c33d 04B20000 		.long	0xb204
 10853 c341 01       		.uleb128 0x1
 10854 c342 04B20000 		.long	0xb204
 10855 c346 01       		.uleb128 0x1
 10856 c347 4CC30000 		.long	0xc34c
 10857 c34b 00       		.byte	0
 10858 c34c 06       		.uleb128 0x6
 10859 c34d 08       		.byte	0x8
 10860 c34e 52C30000 		.long	0xc352
 10861 c352 8801     		.uleb128 0x88
 10862 c354 9CB20000 		.long	0xb29c
 10863 c358 67C30000 		.long	0xc367
 10864 c35c 01       		.uleb128 0x1
 10865 c35d C4C10000 		.long	0xc1c4
 10866 c361 01       		.uleb128 0x1
 10867 c362 C4C10000 		.long	0xc1c4
 10868 c366 00       		.byte	0
 10869 c367 05       		.uleb128 0x5
 10870 c368 64697600 		.ascii "div\0"
 10871 c36c 28       		.byte	0x28
 10872 c36d B801     		.word	0x1b8
 10873 c36f 11       		.byte	0x11
 10874 c370 28C20000 		.long	0xc228
 10875 c374 83C30000 		.long	0xc383
 10876 c378 01       		.uleb128 0x1
 10877 c379 9CB20000 		.long	0xb29c
 10878 c37d 01       		.uleb128 0x1
 10879 c37e 9CB20000 		.long	0xb29c
 10880 c382 00       		.byte	0
 10881 c383 05       		.uleb128 0x5
 10882 c384 67657465 		.ascii "getenv\0"
 10882      6E7600
 10883 c38b 28       		.byte	0x28
 10884 c38c B901     		.word	0x1b9
 10885 c38e 11       		.byte	0x11
 10886 c38f B4B20000 		.long	0xb2b4
 10887 c393 9DC30000 		.long	0xc39d
 10888 c397 01       		.uleb128 0x1
 10889 c398 89B70000 		.long	0xb789
 10890 c39c 00       		.byte	0
 10891 c39d 05       		.uleb128 0x5
 10892 c39e 6C646976 		.ascii "ldiv\0"
 10892      00
 10893 c3a3 28       		.byte	0x28
GAS LISTING C:\Users\Ilya\AppData\Local\Temp\ccxaKDG8.s 			page 272


 10894 c3a4 C301     		.word	0x1c3
 10895 c3a6 12       		.byte	0x12
 10896 c3a7 63C20000 		.long	0xc263
 10897 c3ab BAC30000 		.long	0xc3ba
 10898 c3af 01       		.uleb128 0x1
 10899 c3b0 A8B20000 		.long	0xb2a8
 10900 c3b4 01       		.uleb128 0x1
 10901 c3b5 A8B20000 		.long	0xb2a8
 10902 c3b9 00       		.byte	0
 10903 c3ba 05       		.uleb128 0x5
 10904 c3bb 6D626C65 		.ascii "mblen\0"
 10904      6E00
 10905 c3c1 28       		.byte	0x28
 10906 c3c2 C501     		.word	0x1c5
 10907 c3c4 0F       		.byte	0xf
 10908 c3c5 9CB20000 		.long	0xb29c
 10909 c3c9 D8C30000 		.long	0xc3d8
 10910 c3cd 01       		.uleb128 0x1
 10911 c3ce 89B70000 		.long	0xb789
 10912 c3d2 01       		.uleb128 0x1
 10913 c3d3 04B20000 		.long	0xb204
 10914 c3d7 00       		.byte	0
 10915 c3d8 05       		.uleb128 0x5
 10916 c3d9 6D627374 		.ascii "mbstowcs\0"
 10916      6F776373 
 10916      00
 10917 c3e2 28       		.byte	0x28
 10918 c3e3 CD01     		.word	0x1cd
 10919 c3e5 12       		.byte	0x12
 10920 c3e6 04B20000 		.long	0xb204
 10921 c3ea FEC30000 		.long	0xc3fe
 10922 c3ee 01       		.uleb128 0x1
 10923 c3ef BFB20000 		.long	0xb2bf
 10924 c3f3 01       		.uleb128 0x1
 10925 c3f4 89B70000 		.long	0xb789
 10926 c3f8 01       		.uleb128 0x1
 10927 c3f9 04B20000 		.long	0xb204
 10928 c3fd 00       		.byte	0
 10929 c3fe 05       		.uleb128 0x5
 10930 c3ff 6D62746F 		.ascii "mbtowc\0"
 10930      776300
 10931 c406 28       		.byte	0x28
 10932 c407 CB01     		.word	0x1cb
 10933 c409 0F       		.byte	0xf
 10934 c40a 9CB20000 		.long	0xb29c
 10935 c40e 22C40000 		.long	0xc422
 10936 c412 01       		.uleb128 0x1
 10937 c413 BFB20000 		.long	0xb2bf
 10938 c417 01       		.uleb128 0x1
 10939 c418 89B70000 		.long	0xb789
 10940 c41c 01       		.uleb128 0x1
 10941 c41d 04B20000 		.long	0xb204
 10942 c421 00       		.byte	0
 10943 c422 2F       		.uleb128 0x2f
 10944 c423 71736F72 		.ascii "qsort\0"
 10944      7400
 10945 c429 28       		.byte	0x28
GAS LISTING C:\Users\Ilya\AppData\Local\Temp\ccxaKDG8.s 			page 273


 10946 c42a B301     		.word	0x1b3
 10947 c42c 10       		.byte	0x10
 10948 c42d 46C40000 		.long	0xc446
 10949 c431 01       		.uleb128 0x1
 10950 c432 7BBE0000 		.long	0xbe7b
 10951 c436 01       		.uleb128 0x1
 10952 c437 04B20000 		.long	0xb204
 10953 c43b 01       		.uleb128 0x1
 10954 c43c 04B20000 		.long	0xb204
 10955 c440 01       		.uleb128 0x1
 10956 c441 4CC30000 		.long	0xc34c
 10957 c445 00       		.byte	0
 10958 c446 3D       		.uleb128 0x3d
 10959 c447 72616E64 		.ascii "rand\0"
 10959      00
 10960 c44c 28       		.byte	0x28
 10961 c44d D001     		.word	0x1d0
 10962 c44f 0F       		.byte	0xf
 10963 c450 9CB20000 		.long	0xb29c
 10964 c454 2F       		.uleb128 0x2f
 10965 c455 7372616E 		.ascii "srand\0"
 10965      6400
 10966 c45b 28       		.byte	0x28
 10967 c45c D201     		.word	0x1d2
 10968 c45e 10       		.byte	0x10
 10969 c45f 69C40000 		.long	0xc469
 10970 c463 01       		.uleb128 0x1
 10971 c464 D5B20000 		.long	0xb2d5
 10972 c468 00       		.byte	0
 10973 c469 0D       		.uleb128 0xd
 10974 c46a 73747274 		.ascii "strtod\0"
 10974      6F6400
 10975 c471 28       		.byte	0x28
 10976 c472 DE01     		.word	0x1de
 10977 c474 20       		.byte	0x20
 10978 c475 B4BB0000 		.long	0xbbb4
 10979 c479 88C40000 		.long	0xc488
 10980 c47d 01       		.uleb128 0x1
 10981 c47e 89B70000 		.long	0xb789
 10982 c482 01       		.uleb128 0x1
 10983 c483 72C20000 		.long	0xc272
 10984 c487 00       		.byte	0
 10985 c488 05       		.uleb128 0x5
 10986 c489 73747274 		.ascii "strtol\0"
 10986      6F6C00
 10987 c490 28       		.byte	0x28
 10988 c491 0102     		.word	0x201
 10989 c493 10       		.byte	0x10
 10990 c494 A8B20000 		.long	0xb2a8
 10991 c498 ACC40000 		.long	0xc4ac
 10992 c49c 01       		.uleb128 0x1
 10993 c49d 89B70000 		.long	0xb789
 10994 c4a1 01       		.uleb128 0x1
 10995 c4a2 72C20000 		.long	0xc272
 10996 c4a6 01       		.uleb128 0x1
 10997 c4a7 9CB20000 		.long	0xb29c
 10998 c4ab 00       		.byte	0
GAS LISTING C:\Users\Ilya\AppData\Local\Temp\ccxaKDG8.s 			page 274


 10999 c4ac 05       		.uleb128 0x5
 11000 c4ad 73747274 		.ascii "strtoul\0"
 11000      6F756C00 
 11001 c4b5 28       		.byte	0x28
 11002 c4b6 0302     		.word	0x203
 11003 c4b8 19       		.byte	0x19
 11004 c4b9 E5B20000 		.long	0xb2e5
 11005 c4bd D1C40000 		.long	0xc4d1
 11006 c4c1 01       		.uleb128 0x1
 11007 c4c2 89B70000 		.long	0xb789
 11008 c4c6 01       		.uleb128 0x1
 11009 c4c7 72C20000 		.long	0xc272
 11010 c4cb 01       		.uleb128 0x1
 11011 c4cc 9CB20000 		.long	0xb29c
 11012 c4d0 00       		.byte	0
 11013 c4d1 37       		.uleb128 0x37
 11014 c4d2 73797374 		.ascii "system\0"
 11014      656D00
 11015 c4d9 29       		.byte	0x29
 11016 c4da 5C       		.byte	0x5c
 11017 c4db 0F       		.byte	0xf
 11018 c4dc 9CB20000 		.long	0xb29c
 11019 c4e0 EAC40000 		.long	0xc4ea
 11020 c4e4 01       		.uleb128 0x1
 11021 c4e5 89B70000 		.long	0xb789
 11022 c4e9 00       		.byte	0
 11023 c4ea 05       		.uleb128 0x5
 11024 c4eb 77637374 		.ascii "wcstombs\0"
 11024      6F6D6273 
 11024      00
 11025 c4f4 28       		.byte	0x28
 11026 c4f5 0C02     		.word	0x20c
 11027 c4f7 12       		.byte	0x12
 11028 c4f8 04B20000 		.long	0xb204
 11029 c4fc 10C50000 		.long	0xc510
 11030 c500 01       		.uleb128 0x1
 11031 c501 B4B20000 		.long	0xb2b4
 11032 c505 01       		.uleb128 0x1
 11033 c506 D3B60000 		.long	0xb6d3
 11034 c50a 01       		.uleb128 0x1
 11035 c50b 04B20000 		.long	0xb204
 11036 c50f 00       		.byte	0
 11037 c510 05       		.uleb128 0x5
 11038 c511 7763746F 		.ascii "wctomb\0"
 11038      6D6200
 11039 c518 28       		.byte	0x28
 11040 c519 0A02     		.word	0x20a
 11041 c51b 0F       		.byte	0xf
 11042 c51c 9CB20000 		.long	0xb29c
 11043 c520 2FC50000 		.long	0xc52f
 11044 c524 01       		.uleb128 0x1
 11045 c525 B4B20000 		.long	0xb2b4
 11046 c529 01       		.uleb128 0x1
 11047 c52a C5B20000 		.long	0xb2c5
 11048 c52e 00       		.byte	0
 11049 c52f 05       		.uleb128 0x5
 11050 c530 6C6C6469 		.ascii "lldiv\0"
GAS LISTING C:\Users\Ilya\AppData\Local\Temp\ccxaKDG8.s 			page 275


 11050      7600
 11051 c536 28       		.byte	0x28
 11052 c537 D902     		.word	0x2d9
 11053 c539 25       		.byte	0x25
 11054 c53a AAC20000 		.long	0xc2aa
 11055 c53e 4DC50000 		.long	0xc54d
 11056 c542 01       		.uleb128 0x1
 11057 c543 32B20000 		.long	0xb232
 11058 c547 01       		.uleb128 0x1
 11059 c548 32B20000 		.long	0xb232
 11060 c54c 00       		.byte	0
 11061 c54d 05       		.uleb128 0x5
 11062 c54e 61746F6C 		.ascii "atoll\0"
 11062      6C00
 11063 c554 28       		.byte	0x28
 11064 c555 E402     		.word	0x2e4
 11065 c557 28       		.byte	0x28
 11066 c558 32B20000 		.long	0xb232
 11067 c55c 66C50000 		.long	0xc566
 11068 c560 01       		.uleb128 0x1
 11069 c561 89B70000 		.long	0xb789
 11070 c565 00       		.byte	0
 11071 c566 05       		.uleb128 0x5
 11072 c567 73747274 		.ascii "strtoll\0"
 11072      6F6C6C00 
 11073 c56f 28       		.byte	0x28
 11074 c570 E002     		.word	0x2e0
 11075 c572 28       		.byte	0x28
 11076 c573 32B20000 		.long	0xb232
 11077 c577 8BC50000 		.long	0xc58b
 11078 c57b 01       		.uleb128 0x1
 11079 c57c 89B70000 		.long	0xb789
 11080 c580 01       		.uleb128 0x1
 11081 c581 72C20000 		.long	0xc272
 11082 c585 01       		.uleb128 0x1
 11083 c586 9CB20000 		.long	0xb29c
 11084 c58a 00       		.byte	0
 11085 c58b 05       		.uleb128 0x5
 11086 c58c 73747274 		.ascii "strtoull\0"
 11086      6F756C6C 
 11086      00
 11087 c595 28       		.byte	0x28
 11088 c596 E102     		.word	0x2e1
 11089 c598 31       		.byte	0x31
 11090 c599 18B20000 		.long	0xb218
 11091 c59d B1C50000 		.long	0xc5b1
 11092 c5a1 01       		.uleb128 0x1
 11093 c5a2 89B70000 		.long	0xb789
 11094 c5a6 01       		.uleb128 0x1
 11095 c5a7 72C20000 		.long	0xc272
 11096 c5ab 01       		.uleb128 0x1
 11097 c5ac 9CB20000 		.long	0xb29c
 11098 c5b0 00       		.byte	0
 11099 c5b1 0D       		.uleb128 0xd
 11100 c5b2 73747274 		.ascii "strtof\0"
 11100      6F6600
 11101 c5b9 28       		.byte	0x28
GAS LISTING C:\Users\Ilya\AppData\Local\Temp\ccxaKDG8.s 			page 276


 11102 c5ba E501     		.word	0x1e5
 11103 c5bc 1F       		.byte	0x1f
 11104 c5bd E3BB0000 		.long	0xbbe3
 11105 c5c1 D0C50000 		.long	0xc5d0
 11106 c5c5 01       		.uleb128 0x1
 11107 c5c6 89B70000 		.long	0xb789
 11108 c5ca 01       		.uleb128 0x1
 11109 c5cb 72C20000 		.long	0xc272
 11110 c5cf 00       		.byte	0
 11111 c5d0 05       		.uleb128 0x5
 11112 c5d1 73747274 		.ascii "strtold\0"
 11112      6F6C6400 
 11113 c5d9 28       		.byte	0x28
 11114 c5da F001     		.word	0x1f0
 11115 c5dc 27       		.byte	0x27
 11116 c5dd 21BE0000 		.long	0xbe21
 11117 c5e1 F0C50000 		.long	0xc5f0
 11118 c5e5 01       		.uleb128 0x1
 11119 c5e6 89B70000 		.long	0xb789
 11120 c5ea 01       		.uleb128 0x1
 11121 c5eb 72C20000 		.long	0xc272
 11122 c5ef 00       		.byte	0
 11123 c5f0 2F       		.uleb128 0x2f
 11124 c5f1 636C6561 		.ascii "clearerr\0"
 11124      72657272 
 11124      00
 11125 c5fa 26       		.byte	0x26
 11126 c5fb 8F02     		.word	0x28f
 11127 c5fd 10       		.byte	0x10
 11128 c5fe 08C60000 		.long	0xc608
 11129 c602 01       		.uleb128 0x1
 11130 c603 6BB60000 		.long	0xb66b
 11131 c607 00       		.byte	0
 11132 c608 05       		.uleb128 0x5
 11133 c609 66636C6F 		.ascii "fclose\0"
 11133      736500
 11134 c610 26       		.byte	0x26
 11135 c611 9002     		.word	0x290
 11136 c613 0F       		.byte	0xf
 11137 c614 9CB20000 		.long	0xb29c
 11138 c618 22C60000 		.long	0xc622
 11139 c61c 01       		.uleb128 0x1
 11140 c61d 6BB60000 		.long	0xb66b
 11141 c621 00       		.byte	0
 11142 c622 05       		.uleb128 0x5
 11143 c623 66656F66 		.ascii "feof\0"
 11143      00
 11144 c628 26       		.byte	0x26
 11145 c629 9702     		.word	0x297
 11146 c62b 0F       		.byte	0xf
 11147 c62c 9CB20000 		.long	0xb29c
 11148 c630 3AC60000 		.long	0xc63a
 11149 c634 01       		.uleb128 0x1
 11150 c635 6BB60000 		.long	0xb66b
 11151 c639 00       		.byte	0
 11152 c63a 05       		.uleb128 0x5
 11153 c63b 66657272 		.ascii "ferror\0"
GAS LISTING C:\Users\Ilya\AppData\Local\Temp\ccxaKDG8.s 			page 277


 11153      6F7200
 11154 c642 26       		.byte	0x26
 11155 c643 9802     		.word	0x298
 11156 c645 0F       		.byte	0xf
 11157 c646 9CB20000 		.long	0xb29c
 11158 c64a 54C60000 		.long	0xc654
 11159 c64e 01       		.uleb128 0x1
 11160 c64f 6BB60000 		.long	0xb66b
 11161 c653 00       		.byte	0
 11162 c654 05       		.uleb128 0x5
 11163 c655 66666C75 		.ascii "fflush\0"
 11163      736800
 11164 c65c 26       		.byte	0x26
 11165 c65d 9902     		.word	0x299
 11166 c65f 0F       		.byte	0xf
 11167 c660 9CB20000 		.long	0xb29c
 11168 c664 6EC60000 		.long	0xc66e
 11169 c668 01       		.uleb128 0x1
 11170 c669 6BB60000 		.long	0xb66b
 11171 c66d 00       		.byte	0
 11172 c66e 05       		.uleb128 0x5
 11173 c66f 66676574 		.ascii "fgetc\0"
 11173      6300
 11174 c675 26       		.byte	0x26
 11175 c676 9A02     		.word	0x29a
 11176 c678 0F       		.byte	0xf
 11177 c679 9CB20000 		.long	0xb29c
 11178 c67d 87C60000 		.long	0xc687
 11179 c681 01       		.uleb128 0x1
 11180 c682 6BB60000 		.long	0xb66b
 11181 c686 00       		.byte	0
 11182 c687 05       		.uleb128 0x5
 11183 c688 66676574 		.ascii "fgetpos\0"
 11183      706F7300 
 11184 c690 26       		.byte	0x26
 11185 c691 9C02     		.word	0x29c
 11186 c693 0F       		.byte	0xf
 11187 c694 9CB20000 		.long	0xb29c
 11188 c698 A7C60000 		.long	0xc6a7
 11189 c69c 01       		.uleb128 0x1
 11190 c69d 6BB60000 		.long	0xb66b
 11191 c6a1 01       		.uleb128 0x1
 11192 c6a2 A7C60000 		.long	0xc6a7
 11193 c6a6 00       		.byte	0
 11194 c6a7 06       		.uleb128 0x6
 11195 c6a8 08       		.byte	0x8
 11196 c6a9 5EC10000 		.long	0xc15e
 11197 c6ad 05       		.uleb128 0x5
 11198 c6ae 66676574 		.ascii "fgets\0"
 11198      7300
 11199 c6b4 26       		.byte	0x26
 11200 c6b5 9E02     		.word	0x29e
 11201 c6b7 11       		.byte	0x11
 11202 c6b8 B4B20000 		.long	0xb2b4
 11203 c6bc D0C60000 		.long	0xc6d0
 11204 c6c0 01       		.uleb128 0x1
 11205 c6c1 B4B20000 		.long	0xb2b4
GAS LISTING C:\Users\Ilya\AppData\Local\Temp\ccxaKDG8.s 			page 278


 11206 c6c5 01       		.uleb128 0x1
 11207 c6c6 9CB20000 		.long	0xb29c
 11208 c6ca 01       		.uleb128 0x1
 11209 c6cb 6BB60000 		.long	0xb66b
 11210 c6cf 00       		.byte	0
 11211 c6d0 05       		.uleb128 0x5
 11212 c6d1 666F7065 		.ascii "fopen\0"
 11212      6E00
 11213 c6d7 26       		.byte	0x26
 11214 c6d8 A502     		.word	0x2a5
 11215 c6da 11       		.byte	0x11
 11216 c6db 6BB60000 		.long	0xb66b
 11217 c6df EEC60000 		.long	0xc6ee
 11218 c6e3 01       		.uleb128 0x1
 11219 c6e4 89B70000 		.long	0xb789
 11220 c6e8 01       		.uleb128 0x1
 11221 c6e9 89B70000 		.long	0xb789
 11222 c6ed 00       		.byte	0
 11223 c6ee 0D       		.uleb128 0xd
 11224 c6ef 66707269 		.ascii "fprintf\0"
 11224      6E746600 
 11225 c6f7 26       		.byte	0x26
 11226 c6f8 6E01     		.word	0x16e
 11227 c6fa 05       		.byte	0x5
 11228 c6fb 9CB20000 		.long	0xb29c
 11229 c6ff 0FC70000 		.long	0xc70f
 11230 c703 01       		.uleb128 0x1
 11231 c704 6BB60000 		.long	0xb66b
 11232 c708 01       		.uleb128 0x1
 11233 c709 89B70000 		.long	0xb789
 11234 c70d 1B       		.uleb128 0x1b
 11235 c70e 00       		.byte	0
 11236 c70f 05       		.uleb128 0x5
 11237 c710 66726561 		.ascii "fread\0"
 11237      6400
 11238 c716 26       		.byte	0x26
 11239 c717 AA02     		.word	0x2aa
 11240 c719 12       		.byte	0x12
 11241 c71a 04B20000 		.long	0xb204
 11242 c71e 37C70000 		.long	0xc737
 11243 c722 01       		.uleb128 0x1
 11244 c723 7BBE0000 		.long	0xbe7b
 11245 c727 01       		.uleb128 0x1
 11246 c728 04B20000 		.long	0xb204
 11247 c72c 01       		.uleb128 0x1
 11248 c72d 04B20000 		.long	0xb204
 11249 c731 01       		.uleb128 0x1
 11250 c732 6BB60000 		.long	0xb66b
 11251 c736 00       		.byte	0
 11252 c737 05       		.uleb128 0x5
 11253 c738 6672656F 		.ascii "freopen\0"
 11253      70656E00 
 11254 c740 26       		.byte	0x26
 11255 c741 AB02     		.word	0x2ab
 11256 c743 11       		.byte	0x11
 11257 c744 6BB60000 		.long	0xb66b
 11258 c748 5CC70000 		.long	0xc75c
GAS LISTING C:\Users\Ilya\AppData\Local\Temp\ccxaKDG8.s 			page 279


 11259 c74c 01       		.uleb128 0x1
 11260 c74d 89B70000 		.long	0xb789
 11261 c751 01       		.uleb128 0x1
 11262 c752 89B70000 		.long	0xb789
 11263 c756 01       		.uleb128 0x1
 11264 c757 6BB60000 		.long	0xb66b
 11265 c75b 00       		.byte	0
 11266 c75c 0D       		.uleb128 0xd
 11267 c75d 66736361 		.ascii "fscanf\0"
 11267      6E6600
 11268 c764 26       		.byte	0x26
 11269 c765 4101     		.word	0x141
 11270 c767 05       		.byte	0x5
 11271 c768 9CB20000 		.long	0xb29c
 11272 c76c 7CC70000 		.long	0xc77c
 11273 c770 01       		.uleb128 0x1
 11274 c771 6BB60000 		.long	0xb66b
 11275 c775 01       		.uleb128 0x1
 11276 c776 89B70000 		.long	0xb789
 11277 c77a 1B       		.uleb128 0x1b
 11278 c77b 00       		.byte	0
 11279 c77c 05       		.uleb128 0x5
 11280 c77d 66736565 		.ascii "fseek\0"
 11280      6B00
 11281 c783 26       		.byte	0x26
 11282 c784 AE02     		.word	0x2ae
 11283 c786 0F       		.byte	0xf
 11284 c787 9CB20000 		.long	0xb29c
 11285 c78b 9FC70000 		.long	0xc79f
 11286 c78f 01       		.uleb128 0x1
 11287 c790 6BB60000 		.long	0xb66b
 11288 c794 01       		.uleb128 0x1
 11289 c795 A8B20000 		.long	0xb2a8
 11290 c799 01       		.uleb128 0x1
 11291 c79a 9CB20000 		.long	0xb29c
 11292 c79e 00       		.byte	0
 11293 c79f 05       		.uleb128 0x5
 11294 c7a0 66736574 		.ascii "fsetpos\0"
 11294      706F7300 
 11295 c7a8 26       		.byte	0x26
 11296 c7a9 AC02     		.word	0x2ac
 11297 c7ab 0F       		.byte	0xf
 11298 c7ac 9CB20000 		.long	0xb29c
 11299 c7b0 BFC70000 		.long	0xc7bf
 11300 c7b4 01       		.uleb128 0x1
 11301 c7b5 6BB60000 		.long	0xb66b
 11302 c7b9 01       		.uleb128 0x1
 11303 c7ba BFC70000 		.long	0xc7bf
 11304 c7be 00       		.byte	0
 11305 c7bf 06       		.uleb128 0x6
 11306 c7c0 08       		.byte	0x8
 11307 c7c1 6DC10000 		.long	0xc16d
 11308 c7c5 05       		.uleb128 0x5
 11309 c7c6 6674656C 		.ascii "ftell\0"
 11309      6C00
 11310 c7cc 26       		.byte	0x26
 11311 c7cd AF02     		.word	0x2af
GAS LISTING C:\Users\Ilya\AppData\Local\Temp\ccxaKDG8.s 			page 280


 11312 c7cf 10       		.byte	0x10
 11313 c7d0 A8B20000 		.long	0xb2a8
 11314 c7d4 DEC70000 		.long	0xc7de
 11315 c7d8 01       		.uleb128 0x1
 11316 c7d9 6BB60000 		.long	0xb66b
 11317 c7dd 00       		.byte	0
 11318 c7de 05       		.uleb128 0x5
 11319 c7df 67657463 		.ascii "getc\0"
 11319      00
 11320 c7e4 26       		.byte	0x26
 11321 c7e5 D902     		.word	0x2d9
 11322 c7e7 0F       		.byte	0xf
 11323 c7e8 9CB20000 		.long	0xb29c
 11324 c7ec F6C70000 		.long	0xc7f6
 11325 c7f0 01       		.uleb128 0x1
 11326 c7f1 6BB60000 		.long	0xb66b
 11327 c7f5 00       		.byte	0
 11328 c7f6 3D       		.uleb128 0x3d
 11329 c7f7 67657463 		.ascii "getchar\0"
 11329      68617200 
 11330 c7ff 26       		.byte	0x26
 11331 c800 DA02     		.word	0x2da
 11332 c802 0F       		.byte	0xf
 11333 c803 9CB20000 		.long	0xb29c
 11334 c807 2F       		.uleb128 0x2f
 11335 c808 70657272 		.ascii "perror\0"
 11335      6F7200
 11336 c80f 26       		.byte	0x26
 11337 c810 E002     		.word	0x2e0
 11338 c812 10       		.byte	0x10
 11339 c813 1DC80000 		.long	0xc81d
 11340 c817 01       		.uleb128 0x1
 11341 c818 89B70000 		.long	0xb789
 11342 c81c 00       		.byte	0
 11343 c81d 0D       		.uleb128 0xd
 11344 c81e 7072696E 		.ascii "printf\0"
 11344      746600
 11345 c825 26       		.byte	0x26
 11346 c826 7901     		.word	0x179
 11347 c828 05       		.byte	0x5
 11348 c829 9CB20000 		.long	0xb29c
 11349 c82d 38C80000 		.long	0xc838
 11350 c831 01       		.uleb128 0x1
 11351 c832 89B70000 		.long	0xb789
 11352 c836 1B       		.uleb128 0x1b
 11353 c837 00       		.byte	0
 11354 c838 05       		.uleb128 0x5
 11355 c839 72656D6F 		.ascii "remove\0"
 11355      766500
 11356 c840 26       		.byte	0x26
 11357 c841 F002     		.word	0x2f0
 11358 c843 0F       		.byte	0xf
 11359 c844 9CB20000 		.long	0xb29c
 11360 c848 52C80000 		.long	0xc852
 11361 c84c 01       		.uleb128 0x1
 11362 c84d 89B70000 		.long	0xb789
 11363 c851 00       		.byte	0
GAS LISTING C:\Users\Ilya\AppData\Local\Temp\ccxaKDG8.s 			page 281


 11364 c852 05       		.uleb128 0x5
 11365 c853 72656E61 		.ascii "rename\0"
 11365      6D6500
 11366 c85a 26       		.byte	0x26
 11367 c85b F102     		.word	0x2f1
 11368 c85d 0F       		.byte	0xf
 11369 c85e 9CB20000 		.long	0xb29c
 11370 c862 71C80000 		.long	0xc871
 11371 c866 01       		.uleb128 0x1
 11372 c867 89B70000 		.long	0xb789
 11373 c86b 01       		.uleb128 0x1
 11374 c86c 89B70000 		.long	0xb789
 11375 c870 00       		.byte	0
 11376 c871 2F       		.uleb128 0x2f
 11377 c872 72657769 		.ascii "rewind\0"
 11377      6E6400
 11378 c879 26       		.byte	0x26
 11379 c87a F702     		.word	0x2f7
 11380 c87c 10       		.byte	0x10
 11381 c87d 87C80000 		.long	0xc887
 11382 c881 01       		.uleb128 0x1
 11383 c882 6BB60000 		.long	0xb66b
 11384 c886 00       		.byte	0
 11385 c887 0D       		.uleb128 0xd
 11386 c888 7363616E 		.ascii "scanf\0"
 11386      6600
 11387 c88e 26       		.byte	0x26
 11388 c88f 3601     		.word	0x136
 11389 c891 05       		.byte	0x5
 11390 c892 9CB20000 		.long	0xb29c
 11391 c896 A1C80000 		.long	0xc8a1
 11392 c89a 01       		.uleb128 0x1
 11393 c89b 89B70000 		.long	0xb789
 11394 c89f 1B       		.uleb128 0x1b
 11395 c8a0 00       		.byte	0
 11396 c8a1 2F       		.uleb128 0x2f
 11397 c8a2 73657462 		.ascii "setbuf\0"
 11397      756600
 11398 c8a9 26       		.byte	0x26
 11399 c8aa F902     		.word	0x2f9
 11400 c8ac 10       		.byte	0x10
 11401 c8ad BCC80000 		.long	0xc8bc
 11402 c8b1 01       		.uleb128 0x1
 11403 c8b2 6BB60000 		.long	0xb66b
 11404 c8b6 01       		.uleb128 0x1
 11405 c8b7 B4B20000 		.long	0xb2b4
 11406 c8bb 00       		.byte	0
 11407 c8bc 05       		.uleb128 0x5
 11408 c8bd 73657476 		.ascii "setvbuf\0"
 11408      62756600 
 11409 c8c5 26       		.byte	0x26
 11410 c8c6 FD02     		.word	0x2fd
 11411 c8c8 0F       		.byte	0xf
 11412 c8c9 9CB20000 		.long	0xb29c
 11413 c8cd E6C80000 		.long	0xc8e6
 11414 c8d1 01       		.uleb128 0x1
 11415 c8d2 6BB60000 		.long	0xb66b
GAS LISTING C:\Users\Ilya\AppData\Local\Temp\ccxaKDG8.s 			page 282


 11416 c8d6 01       		.uleb128 0x1
 11417 c8d7 B4B20000 		.long	0xb2b4
 11418 c8db 01       		.uleb128 0x1
 11419 c8dc 9CB20000 		.long	0xb29c
 11420 c8e0 01       		.uleb128 0x1
 11421 c8e1 04B20000 		.long	0xb204
 11422 c8e5 00       		.byte	0
 11423 c8e6 0D       		.uleb128 0xd
 11424 c8e7 73707269 		.ascii "sprintf\0"
 11424      6E746600 
 11425 c8ef 26       		.byte	0x26
 11426 c8f0 9501     		.word	0x195
 11427 c8f2 05       		.byte	0x5
 11428 c8f3 9CB20000 		.long	0xb29c
 11429 c8f7 07C90000 		.long	0xc907
 11430 c8fb 01       		.uleb128 0x1
 11431 c8fc B4B20000 		.long	0xb2b4
 11432 c900 01       		.uleb128 0x1
 11433 c901 89B70000 		.long	0xb789
 11434 c905 1B       		.uleb128 0x1b
 11435 c906 00       		.byte	0
 11436 c907 0D       		.uleb128 0xd
 11437 c908 73736361 		.ascii "sscanf\0"
 11437      6E6600
 11438 c90f 26       		.byte	0x26
 11439 c910 2B01     		.word	0x12b
 11440 c912 05       		.byte	0x5
 11441 c913 9CB20000 		.long	0xb29c
 11442 c917 27C90000 		.long	0xc927
 11443 c91b 01       		.uleb128 0x1
 11444 c91c 89B70000 		.long	0xb789
 11445 c920 01       		.uleb128 0x1
 11446 c921 89B70000 		.long	0xb789
 11447 c925 1B       		.uleb128 0x1b
 11448 c926 00       		.byte	0
 11449 c927 3D       		.uleb128 0x3d
 11450 c928 746D7066 		.ascii "tmpfile\0"
 11450      696C6500 
 11451 c930 26       		.byte	0x26
 11452 c931 1703     		.word	0x317
 11453 c933 11       		.byte	0x11
 11454 c934 6BB60000 		.long	0xb66b
 11455 c938 05       		.uleb128 0x5
 11456 c939 746D706E 		.ascii "tmpnam\0"
 11456      616D00
 11457 c940 26       		.byte	0x26
 11458 c941 1803     		.word	0x318
 11459 c943 11       		.byte	0x11
 11460 c944 B4B20000 		.long	0xb2b4
 11461 c948 52C90000 		.long	0xc952
 11462 c94c 01       		.uleb128 0x1
 11463 c94d B4B20000 		.long	0xb2b4
 11464 c951 00       		.byte	0
 11465 c952 05       		.uleb128 0x5
 11466 c953 756E6765 		.ascii "ungetc\0"
 11466      746300
 11467 c95a 26       		.byte	0x26
GAS LISTING C:\Users\Ilya\AppData\Local\Temp\ccxaKDG8.s 			page 283


 11468 c95b 1903     		.word	0x319
 11469 c95d 0F       		.byte	0xf
 11470 c95e 9CB20000 		.long	0xb29c
 11471 c962 71C90000 		.long	0xc971
 11472 c966 01       		.uleb128 0x1
 11473 c967 9CB20000 		.long	0xb29c
 11474 c96b 01       		.uleb128 0x1
 11475 c96c 6BB60000 		.long	0xb66b
 11476 c970 00       		.byte	0
 11477 c971 0D       		.uleb128 0xd
 11478 c972 76667072 		.ascii "vfprintf\0"
 11478      696E7466 
 11478      00
 11479 c97b 26       		.byte	0x26
 11480 c97c A201     		.word	0x1a2
 11481 c97e 05       		.byte	0x5
 11482 c97f 9CB20000 		.long	0xb29c
 11483 c983 97C90000 		.long	0xc997
 11484 c987 01       		.uleb128 0x1
 11485 c988 6BB60000 		.long	0xb66b
 11486 c98c 01       		.uleb128 0x1
 11487 c98d 89B70000 		.long	0xb789
 11488 c991 01       		.uleb128 0x1
 11489 c992 DEB10000 		.long	0xb1de
 11490 c996 00       		.byte	0
 11491 c997 0D       		.uleb128 0xd
 11492 c998 76707269 		.ascii "vprintf\0"
 11492      6E746600 
 11493 c9a0 26       		.byte	0x26
 11494 c9a1 A901     		.word	0x1a9
 11495 c9a3 05       		.byte	0x5
 11496 c9a4 9CB20000 		.long	0xb29c
 11497 c9a8 B7C90000 		.long	0xc9b7
 11498 c9ac 01       		.uleb128 0x1
 11499 c9ad 89B70000 		.long	0xb789
 11500 c9b1 01       		.uleb128 0x1
 11501 c9b2 DEB10000 		.long	0xb1de
 11502 c9b6 00       		.byte	0
 11503 c9b7 0D       		.uleb128 0xd
 11504 c9b8 76737072 		.ascii "vsprintf\0"
 11504      696E7466 
 11504      00
 11505 c9c1 26       		.byte	0x26
 11506 c9c2 B001     		.word	0x1b0
 11507 c9c4 05       		.byte	0x5
 11508 c9c5 9CB20000 		.long	0xb29c
 11509 c9c9 DDC90000 		.long	0xc9dd
 11510 c9cd 01       		.uleb128 0x1
 11511 c9ce B4B20000 		.long	0xb2b4
 11512 c9d2 01       		.uleb128 0x1
 11513 c9d3 89B70000 		.long	0xb789
 11514 c9d7 01       		.uleb128 0x1
 11515 c9d8 DEB10000 		.long	0xb1de
 11516 c9dc 00       		.byte	0
 11517 c9dd 0D       		.uleb128 0xd
 11518 c9de 736E7072 		.ascii "snprintf\0"
 11518      696E7466 
GAS LISTING C:\Users\Ilya\AppData\Local\Temp\ccxaKDG8.s 			page 284


 11518      00
 11519 c9e7 26       		.byte	0x26
 11520 c9e8 CC01     		.word	0x1cc
 11521 c9ea 05       		.byte	0x5
 11522 c9eb 9CB20000 		.long	0xb29c
 11523 c9ef 04CA0000 		.long	0xca04
 11524 c9f3 01       		.uleb128 0x1
 11525 c9f4 B4B20000 		.long	0xb2b4
 11526 c9f8 01       		.uleb128 0x1
 11527 c9f9 04B20000 		.long	0xb204
 11528 c9fd 01       		.uleb128 0x1
 11529 c9fe 89B70000 		.long	0xb789
 11530 ca02 1B       		.uleb128 0x1b
 11531 ca03 00       		.byte	0
 11532 ca04 0D       		.uleb128 0xd
 11533 ca05 76667363 		.ascii "vfscanf\0"
 11533      616E6600 
 11534 ca0d 26       		.byte	0x26
 11535 ca0e 6001     		.word	0x160
 11536 ca10 05       		.byte	0x5
 11537 ca11 9CB20000 		.long	0xb29c
 11538 ca15 29CA0000 		.long	0xca29
 11539 ca19 01       		.uleb128 0x1
 11540 ca1a 6BB60000 		.long	0xb66b
 11541 ca1e 01       		.uleb128 0x1
 11542 ca1f 89B70000 		.long	0xb789
 11543 ca23 01       		.uleb128 0x1
 11544 ca24 DEB10000 		.long	0xb1de
 11545 ca28 00       		.byte	0
 11546 ca29 0D       		.uleb128 0xd
 11547 ca2a 76736361 		.ascii "vscanf\0"
 11547      6E6600
 11548 ca31 26       		.byte	0x26
 11549 ca32 5901     		.word	0x159
 11550 ca34 05       		.byte	0x5
 11551 ca35 9CB20000 		.long	0xb29c
 11552 ca39 48CA0000 		.long	0xca48
 11553 ca3d 01       		.uleb128 0x1
 11554 ca3e 89B70000 		.long	0xb789
 11555 ca42 01       		.uleb128 0x1
 11556 ca43 DEB10000 		.long	0xb1de
 11557 ca47 00       		.byte	0
 11558 ca48 0D       		.uleb128 0xd
 11559 ca49 76736E70 		.ascii "vsnprintf\0"
 11559      72696E74 
 11559      6600
 11560 ca53 26       		.byte	0x26
 11561 ca54 D901     		.word	0x1d9
 11562 ca56 05       		.byte	0x5
 11563 ca57 9CB20000 		.long	0xb29c
 11564 ca5b 74CA0000 		.long	0xca74
 11565 ca5f 01       		.uleb128 0x1
 11566 ca60 B4B20000 		.long	0xb2b4
 11567 ca64 01       		.uleb128 0x1
 11568 ca65 04B20000 		.long	0xb204
 11569 ca69 01       		.uleb128 0x1
 11570 ca6a 89B70000 		.long	0xb789
GAS LISTING C:\Users\Ilya\AppData\Local\Temp\ccxaKDG8.s 			page 285


 11571 ca6e 01       		.uleb128 0x1
 11572 ca6f DEB10000 		.long	0xb1de
 11573 ca73 00       		.byte	0
 11574 ca74 0D       		.uleb128 0xd
 11575 ca75 76737363 		.ascii "vsscanf\0"
 11575      616E6600 
 11576 ca7d 26       		.byte	0x26
 11577 ca7e 5201     		.word	0x152
 11578 ca80 05       		.byte	0x5
 11579 ca81 9CB20000 		.long	0xb29c
 11580 ca85 99CA0000 		.long	0xca99
 11581 ca89 01       		.uleb128 0x1
 11582 ca8a 89B70000 		.long	0xb789
 11583 ca8e 01       		.uleb128 0x1
 11584 ca8f 89B70000 		.long	0xb789
 11585 ca93 01       		.uleb128 0x1
 11586 ca94 DEB10000 		.long	0xb1de
 11587 ca98 00       		.byte	0
 11588 ca99 08       		.uleb128 0x8
 11589 ca9a 08       		.byte	0x8
 11590 ca9b 1E5C0000 		.long	0x5c1e
 11591 ca9f 08       		.uleb128 0x8
 11592 caa0 08       		.byte	0x8
 11593 caa1 2B5C0000 		.long	0x5c2b
 11594 caa5 08       		.uleb128 0x8
 11595 caa6 08       		.byte	0x8
 11596 caa7 279A0000 		.long	0x9a27
 11597 caab 08       		.uleb128 0x8
 11598 caac 08       		.byte	0x8
 11599 caad 339A0000 		.long	0x9a33
 11600 cab1 06       		.uleb128 0x6
 11601 cab2 08       		.byte	0x8
 11602 cab3 FB000000 		.long	0xfb
 11603 cab7 1E       		.uleb128 0x1e
 11604 cab8 08       		.byte	0x8
 11605 cab9 FD570000 		.long	0x57fd
 11606 cabd 8901     		.uleb128 0x89
 11607 cabf F7B10000 		.long	0xb1f7
 11608 cac3 CFCA0000 		.long	0xcacf
 11609 cac7 8A01     		.uleb128 0x8a
 11610 cac9 18B20000 		.long	0xb218
 11611 cacd 0F       		.byte	0xf
 11612 cace 00       		.byte	0
 11613 cacf 06       		.uleb128 0x6
 11614 cad0 08       		.byte	0x8
 11615 cad1 B0000000 		.long	0xb0
 11616 cad5 06       		.uleb128 0x6
 11617 cad6 08       		.byte	0x8
 11618 cad7 EC470000 		.long	0x47ec
 11619 cadb 08       		.uleb128 0x8
 11620 cadc 08       		.byte	0x8
 11621 cadd 42020000 		.long	0x242
 11622 cae1 08       		.uleb128 0x8
 11623 cae2 08       		.byte	0x8
 11624 cae3 E8070000 		.long	0x7e8
 11625 cae7 08       		.uleb128 0x8
 11626 cae8 08       		.byte	0x8
GAS LISTING C:\Users\Ilya\AppData\Local\Temp\ccxaKDG8.s 			page 286


 11627 cae9 F5070000 		.long	0x7f5
 11628 caed 08       		.uleb128 0x8
 11629 caee 08       		.byte	0x8
 11630 caef EC470000 		.long	0x47ec
 11631 caf3 1E       		.uleb128 0x1e
 11632 caf4 08       		.byte	0x8
 11633 caf5 B0000000 		.long	0xb0
 11634 caf9 08       		.uleb128 0x8
 11635 cafa 08       		.byte	0x8
 11636 cafb B0000000 		.long	0xb0
 11637 caff 06       		.uleb128 0x6
 11638 cb00 08       		.byte	0x8
 11639 cb01 C55D0000 		.long	0x5dc5
 11640 cb05 06       		.uleb128 0x6
 11641 cb06 08       		.byte	0x8
 11642 cb07 6A5F0000 		.long	0x5f6a
 11643 cb0b 06       		.uleb128 0x6
 11644 cb0c 08       		.byte	0x8
 11645 cb0d F0600000 		.long	0x60f0
 11646 cb11 08       		.uleb128 0x8
 11647 cb12 08       		.byte	0x8
 11648 cb13 15620000 		.long	0x6215
 11649 cb17 08       		.uleb128 0x8
 11650 cb18 08       		.byte	0x8
 11651 cb19 F0600000 		.long	0x60f0
 11652 cb1d 0A       		.uleb128 0xa
 11653 cb1e 77637472 		.ascii "wctrans_t\0"
 11653      616E735F 
 11653      7400
 11654 cb28 2A       		.byte	0x2a
 11655 cb29 AE       		.byte	0xae
 11656 cb2a 13       		.byte	0x13
 11657 cb2b C5B20000 		.long	0xb2c5
 11658 cb2f 05       		.uleb128 0x5
 11659 cb30 69737763 		.ascii "iswctype\0"
 11659      74797065 
 11659      00
 11660 cb39 23       		.byte	0x23
 11661 cb3a 2601     		.word	0x126
 11662 cb3c 0F       		.byte	0xf
 11663 cb3d 9CB20000 		.long	0xb29c
 11664 cb41 50CB0000 		.long	0xcb50
 11665 cb45 01       		.uleb128 0x1
 11666 cb46 66B20000 		.long	0xb266
 11667 cb4a 01       		.uleb128 0x1
 11668 cb4b 8BB20000 		.long	0xb28b
 11669 cb4f 00       		.byte	0
 11670 cb50 37       		.uleb128 0x37
 11671 cb51 746F7763 		.ascii "towctrans\0"
 11671      7472616E 
 11671      7300
 11672 cb5b 2A       		.byte	0x2a
 11673 cb5c AF       		.byte	0xaf
 11674 cb5d 12       		.byte	0x12
 11675 cb5e 66B20000 		.long	0xb266
 11676 cb62 71CB0000 		.long	0xcb71
 11677 cb66 01       		.uleb128 0x1
GAS LISTING C:\Users\Ilya\AppData\Local\Temp\ccxaKDG8.s 			page 287


 11678 cb67 66B20000 		.long	0xb266
 11679 cb6b 01       		.uleb128 0x1
 11680 cb6c 1DCB0000 		.long	0xcb1d
 11681 cb70 00       		.byte	0
 11682 cb71 37       		.uleb128 0x37
 11683 cb72 77637472 		.ascii "wctrans\0"
 11683      616E7300 
 11684 cb7a 2A       		.byte	0x2a
 11685 cb7b B0       		.byte	0xb0
 11686 cb7c 15       		.byte	0x15
 11687 cb7d 1DCB0000 		.long	0xcb1d
 11688 cb81 8BCB0000 		.long	0xcb8b
 11689 cb85 01       		.uleb128 0x1
 11690 cb86 89B70000 		.long	0xb789
 11691 cb8a 00       		.byte	0
 11692 cb8b 37       		.uleb128 0x37
 11693 cb8c 77637479 		.ascii "wctype\0"
 11693      706500
 11694 cb93 2A       		.byte	0x2a
 11695 cb94 B1       		.byte	0xb1
 11696 cb95 14       		.byte	0x14
 11697 cb96 8BB20000 		.long	0xb28b
 11698 cb9a A4CB0000 		.long	0xcba4
 11699 cb9e 01       		.uleb128 0x1
 11700 cb9f 89B70000 		.long	0xb789
 11701 cba3 00       		.byte	0
 11702 cba4 8B01     		.uleb128 0x8b
 11703 cba6 C3620000 		.long	0x62c3
 11704 cbaa 09       		.uleb128 0x9
 11705 cbab 03       		.byte	0x3
 11706 cbac 00000000 		.quad	_ZStL8__ioinit
 11706      00000000 
 11707 cbb4 42       		.uleb128 0x42
 11708 cbb5 4246496E 		.ascii "BFInterpreter\0"
 11708      74657270 
 11708      72657465 
 11708      7200
 11709 cbc3 2B       		.byte	0x2b
 11710 cbc4 06       		.byte	0x6
 11711 cbc5 0B       		.byte	0xb
 11712 cbc6 78D40000 		.long	0xd478
 11713 cbca 8C01     		.uleb128 0x8c
 11714 cbcc 496E7465 		.ascii "InterpRetCodes\0"
 11714      72705265 
 11714      74436F64 
 11714      657300
 11715 cbdb 05       		.byte	0x5
 11716 cbdc 04       		.byte	0x4
 11717 cbdd 9CB20000 		.long	0xb29c
 11718 cbe1 2B       		.byte	0x2b
 11719 cbe2 08       		.byte	0x8
 11720 cbe3 0A       		.byte	0xa
 11721 cbe4 5ACC0000 		.long	0xcc5a
 11722 cbe8 30       		.uleb128 0x30
 11723 cbe9 53554343 		.ascii "SUCCESSFUL\0"
 11723      45535346 
 11723      554C00
GAS LISTING C:\Users\Ilya\AppData\Local\Temp\ccxaKDG8.s 			page 288


 11724 cbf4 00       		.byte	0
 11725 cbf5 30       		.uleb128 0x30
 11726 cbf6 554E4558 		.ascii "UNEXPECTED_CLOSED_BRACKET\0"
 11726      50454354 
 11726      45445F43 
 11726      4C4F5345 
 11726      445F4252 
 11727 cc10 01       		.byte	0x1
 11728 cc11 30       		.uleb128 0x30
 11729 cc12 4E4F545F 		.ascii "NOT_CLOSED_BRACKET\0"
 11729      434C4F53 
 11729      45445F42 
 11729      5241434B 
 11729      455400
 11730 cc25 02       		.byte	0x2
 11731 cc26 30       		.uleb128 0x30
 11732 cc27 554E4B4E 		.ascii "UNKNOWN_COMMAND\0"
 11732      4F574E5F 
 11732      434F4D4D 
 11732      414E4400 
 11733 cc37 03       		.byte	0x3
 11734 cc38 30       		.uleb128 0x30
 11735 cc39 454D5054 		.ascii "EMPTY_SOURCE\0"
 11735      595F534F 
 11735      55524345 
 11735      00
 11736 cc46 04       		.byte	0x4
 11737 cc47 30       		.uleb128 0x30
 11738 cc48 46494E49 		.ascii "FINISHED_SOURCE\0"
 11738      53484544 
 11738      5F534F55 
 11738      52434500 
 11739 cc58 05       		.byte	0x5
 11740 cc59 00       		.byte	0
 11741 cc5a 0A       		.uleb128 0xa
 11742 cc5b 746F6B65 		.ascii "token_t\0"
 11742      6E5F7400 
 11743 cc63 01       		.byte	0x1
 11744 cc64 0B       		.byte	0xb
 11745 cc65 12       		.byte	0x12
 11746 cc66 F7B10000 		.long	0xb1f7
 11747 cc6a 0A       		.uleb128 0xa
 11748 cc6b 746F6B65 		.ascii "tokenArg_t\0"
 11748      6E417267 
 11748      5F7400
 11749 cc76 01       		.byte	0x1
 11750 cc77 0C       		.byte	0xc
 11751 cc78 16       		.byte	0x16
 11752 cc79 A8B20000 		.long	0xb2a8
 11753 cc7d 07       		.uleb128 0x7
 11754 cc7e 6ACC0000 		.long	0xcc6a
 11755 cc82 8D01     		.uleb128 0x8d
 11756 cc84 554E5345 		.ascii "UNSET_ARG\0"
 11756      545F4152 
 11756      4700
 11757 cc8e 01       		.byte	0x1
 11758 cc8f 1A       		.byte	0x1a
GAS LISTING C:\Users\Ilya\AppData\Local\Temp\ccxaKDG8.s 			page 289


 11759 cc90 16       		.byte	0x16
 11760 cc91 7DCC0000 		.long	0xcc7d
 11761 cc95 7F       		.sleb128 -1
 11762 cc96 43       		.uleb128 0x43
 11763 cc97 93030000 		.secrel32	.LASF91
 11764 cc9b 18       		.byte	0x18
 11765 cc9c 01       		.byte	0x1
 11766 cc9d 1C       		.byte	0x1c
 11767 cc9e 0B       		.byte	0xb
 11768 cc9f BFD00000 		.long	0xd0bf
 11769 cca3 63       		.uleb128 0x63
 11770 cca4 93030000 		.secrel32	.LASF91
 11771 cca8 01       		.byte	0x1
 11772 cca9 22       		.byte	0x22
 11773 ccaa 12       		.byte	0x12
 11774 ccab 5F5A4E31 		.ascii "_ZN13BFInterpreter12TransferUnitC4EPKc\0"
 11774      33424649 
 11774      6E746572 
 11774      70726574 
 11774      65723132 
 11775 ccd2 01       		.byte	0x1
 11776 ccd3 DBCC0000 		.long	0xccdb
 11777 ccd7 E6CC0000 		.long	0xcce6
 11778 ccdb 02       		.uleb128 0x2
 11779 ccdc 74D50000 		.long	0xd574
 11780 cce0 01       		.uleb128 0x1
 11781 cce1 89B70000 		.long	0xb789
 11782 cce5 00       		.byte	0
 11783 cce6 63       		.uleb128 0x63
 11784 cce7 93030000 		.secrel32	.LASF91
 11785 cceb 01       		.byte	0x1
 11786 ccec 23       		.byte	0x23
 11787 cced 12       		.byte	0x12
 11788 ccee 5F5A4E31 		.ascii "_ZN13BFInterpreter12TransferUnitC4ENSt7__cxx1112basic_stringIcSt11char_traitsIcESaIcEEE\0"
 11788      33424649 
 11788      6E746572 
 11788      70726574 
 11788      65723132 
 11789 cd46 01       		.byte	0x1
 11790 cd47 4FCD0000 		.long	0xcd4f
 11791 cd4b 5ACD0000 		.long	0xcd5a
 11792 cd4f 02       		.uleb128 0x2
 11793 cd50 74D50000 		.long	0xd574
 11794 cd54 01       		.uleb128 0x1
 11795 cd55 89600000 		.long	0x6089
 11796 cd59 00       		.byte	0
 11797 cd5a 8E01     		.uleb128 0x8e
 11798 cd5c 7E547261 		.ascii "~TransferUnit\0"
 11798      6E736665 
 11798      72556E69 
 11798      7400
 11799 cd6a 01       		.byte	0x1
 11800 cd6b 25       		.byte	0x25
 11801 cd6c 09       		.byte	0x9
 11802 cd6d 5F5A4E31 		.ascii "_ZN13BFInterpreter12TransferUnitD4Ev\0"
 11802      33424649 
 11802      6E746572 
GAS LISTING C:\Users\Ilya\AppData\Local\Temp\ccxaKDG8.s 			page 290


 11802      70726574 
 11802      65723132 
 11803 cd92 01       		.byte	0x1
 11804 cd93 01       		.byte	0x1
 11805 cd94 9CCD0000 		.long	0xcd9c
 11806 cd98 A7CD0000 		.long	0xcda7
 11807 cd9c 02       		.uleb128 0x2
 11808 cd9d 74D50000 		.long	0xd574
 11809 cda1 02       		.uleb128 0x2
 11810 cda2 9CB20000 		.long	0xb29c
 11811 cda6 00       		.byte	0
 11812 cda7 64       		.uleb128 0x64
 11813 cda8 93030000 		.secrel32	.LASF91
 11814 cdac 01       		.byte	0x1
 11815 cdad 26       		.byte	0x26
 11816 cdae 09       		.byte	0x9
 11817 cdaf 5F5A4E31 		.ascii "_ZN13BFInterpreter12TransferUnitC4ERKS0_\0"
 11817      33424649 
 11817      6E746572 
 11817      70726574 
 11817      65723132 
 11818 cdd8 01       		.byte	0x1
 11819 cdd9 01       		.byte	0x1
 11820 cdda E2CD0000 		.long	0xcde2
 11821 cdde EDCD0000 		.long	0xcded
 11822 cde2 02       		.uleb128 0x2
 11823 cde3 74D50000 		.long	0xd574
 11824 cde7 01       		.uleb128 0x1
 11825 cde8 7FD50000 		.long	0xd57f
 11826 cdec 00       		.byte	0
 11827 cded 3C       		.uleb128 0x3c
 11828 cdee D8000000 		.secrel32	.LASF12
 11829 cdf2 01       		.byte	0x1
 11830 cdf3 27       		.byte	0x27
 11831 cdf4 17       		.byte	0x17
 11832 cdf5 5F5A4E31 		.ascii "_ZN13BFInterpreter12TransferUnitaSERKS0_\0"
 11832      33424649 
 11832      6E746572 
 11832      70726574 
 11832      65723132 
 11833 ce1e 85D50000 		.long	0xd585
 11834 ce22 01       		.byte	0x1
 11835 ce23 01       		.byte	0x1
 11836 ce24 2CCE0000 		.long	0xce2c
 11837 ce28 37CE0000 		.long	0xce37
 11838 ce2c 02       		.uleb128 0x2
 11839 ce2d 74D50000 		.long	0xd574
 11840 ce31 01       		.uleb128 0x1
 11841 ce32 7FD50000 		.long	0xd57f
 11842 ce36 00       		.byte	0
 11843 ce37 64       		.uleb128 0x64
 11844 ce38 93030000 		.secrel32	.LASF91
 11845 ce3c 01       		.byte	0x1
 11846 ce3d 28       		.byte	0x28
 11847 ce3e 09       		.byte	0x9
 11848 ce3f 5F5A4E31 		.ascii "_ZN13BFInterpreter12TransferUnitC4EOS0_\0"
 11848      33424649 
GAS LISTING C:\Users\Ilya\AppData\Local\Temp\ccxaKDG8.s 			page 291


 11848      6E746572 
 11848      70726574 
 11848      65723132 
 11849 ce67 01       		.byte	0x1
 11850 ce68 01       		.byte	0x1
 11851 ce69 71CE0000 		.long	0xce71
 11852 ce6d 7CCE0000 		.long	0xce7c
 11853 ce71 02       		.uleb128 0x2
 11854 ce72 74D50000 		.long	0xd574
 11855 ce76 01       		.uleb128 0x1
 11856 ce77 8BD50000 		.long	0xd58b
 11857 ce7b 00       		.byte	0
 11858 ce7c 3C       		.uleb128 0x3c
 11859 ce7d D8000000 		.secrel32	.LASF12
 11860 ce81 01       		.byte	0x1
 11861 ce82 29       		.byte	0x29
 11862 ce83 17       		.byte	0x17
 11863 ce84 5F5A4E31 		.ascii "_ZN13BFInterpreter12TransferUnitaSEOS0_\0"
 11863      33424649 
 11863      6E746572 
 11863      70726574 
 11863      65723132 
 11864 ceac 85D50000 		.long	0xd585
 11865 ceb0 01       		.byte	0x1
 11866 ceb1 01       		.byte	0x1
 11867 ceb2 BACE0000 		.long	0xceba
 11868 ceb6 C5CE0000 		.long	0xcec5
 11869 ceba 02       		.uleb128 0x2
 11870 cebb 74D50000 		.long	0xd574
 11871 cebf 01       		.uleb128 0x1
 11872 cec0 8BD50000 		.long	0xd58b
 11873 cec4 00       		.byte	0
 11874 cec5 41       		.uleb128 0x41
 11875 cec6 436F6D6D 		.ascii "Command_t\0"
 11875      616E645F 
 11875      7400
 11876 ced0 01       		.byte	0x1
 11877 ced1 20       		.byte	0x20
 11878 ced2 30       		.byte	0x30
 11879 ced3 D4620000 		.long	0x62d4
 11880 ced7 01       		.byte	0x1
 11881 ced8 14       		.uleb128 0x14
 11882 ced9 65040000 		.secrel32	.LASF22
 11883 cedd 01       		.byte	0x1
 11884 cede 2B       		.byte	0x2b
 11885 cedf 13       		.byte	0x13
 11886 cee0 5F5A4E4B 		.ascii "_ZNK13BFInterpreter12TransferUnitixEy\0"
 11886      31334246 
 11886      496E7465 
 11886      72707265 
 11886      74657231 
 11887 cf06 C5CE0000 		.long	0xcec5
 11888 cf0a 01       		.byte	0x1
 11889 cf0b 13CF0000 		.long	0xcf13
 11890 cf0f 1ECF0000 		.long	0xcf1e
 11891 cf13 02       		.uleb128 0x2
 11892 cf14 91D50000 		.long	0xd591
GAS LISTING C:\Users\Ilya\AppData\Local\Temp\ccxaKDG8.s 			page 292


 11893 cf18 01       		.uleb128 0x1
 11894 cf19 04B20000 		.long	0xb204
 11895 cf1d 00       		.byte	0
 11896 cf1e 36       		.uleb128 0x36
 11897 cf1f 4765744C 		.ascii "GetLength\0"
 11897      656E6774 
 11897      6800
 11898 cf29 01       		.byte	0x1
 11899 cf2a 2C       		.byte	0x2c
 11900 cf2b 10       		.byte	0x10
 11901 cf2c 5F5A4E4B 		.ascii "_ZNK13BFInterpreter12TransferUnit9GetLengthEv\0"
 11901      31334246 
 11901      496E7465 
 11901      72707265 
 11901      74657231 
 11902 cf5a 04B20000 		.long	0xb204
 11903 cf5e 01       		.byte	0x1
 11904 cf5f 67CF0000 		.long	0xcf67
 11905 cf63 6DCF0000 		.long	0xcf6d
 11906 cf67 02       		.uleb128 0x2
 11907 cf68 91D50000 		.long	0xd591
 11908 cf6c 00       		.byte	0
 11909 cf6d 0A       		.uleb128 0xa
 11910 cf6e 496E7374 		.ascii "Instruction_t\0"
 11910      72756374 
 11910      696F6E5F 
 11910      7400
 11911 cf7c 01       		.byte	0x1
 11912 cf7d 34       		.byte	0x34
 11913 cf7e 28       		.byte	0x28
 11914 cf7f 74710000 		.long	0x7174
 11915 cf83 09       		.uleb128 0x9
 11916 cf84 6C697374 		.ascii "listing\0"
 11916      696E6700 
 11917 cf8c 01       		.byte	0x1
 11918 cf8d 36       		.byte	0x36
 11919 cf8e 17       		.byte	0x17
 11920 cf8f 6DCF0000 		.long	0xcf6d
 11921 cf93 00       		.byte	0
 11922 cf94 26       		.uleb128 0x26
 11923 cf95 5472616E 		.ascii "TranslateSource\0"
 11923      736C6174 
 11923      65536F75 
 11923      72636500 
 11924 cfa5 01       		.byte	0x1
 11925 cfa6 38       		.byte	0x38
 11926 cfa7 18       		.byte	0x18
 11927 cfa8 5F5A4E31 		.ascii "_ZN13BFInterpreter12TransferUnit15TranslateSourceEPKc\0"
 11927      33424649 
 11927      6E746572 
 11927      70726574 
 11927      65723132 
 11928 cfde CACB0000 		.long	0xcbca
 11929 cfe2 EACF0000 		.long	0xcfea
 11930 cfe6 F5CF0000 		.long	0xcff5
 11931 cfea 02       		.uleb128 0x2
 11932 cfeb 74D50000 		.long	0xd574
GAS LISTING C:\Users\Ilya\AppData\Local\Temp\ccxaKDG8.s 			page 293


 11933 cfef 01       		.uleb128 0x1
 11934 cff0 89B70000 		.long	0xb789
 11935 cff4 00       		.byte	0
 11936 cff5 26       		.uleb128 0x26
 11937 cff6 50757368 		.ascii "PushReducedOP\0"
 11937      52656475 
 11937      6365644F 
 11937      5000
 11938 d004 01       		.byte	0x1
 11939 d005 39       		.byte	0x39
 11940 d006 10       		.byte	0x10
 11941 d007 5F5A4E31 		.ascii "_ZN13BFInterpreter12TransferUnit13PushReducedOPEccyPKc\0"
 11941      33424649 
 11941      6E746572 
 11941      70726574 
 11941      65723132 
 11942 d03e 04B20000 		.long	0xb204
 11943 d042 4AD00000 		.long	0xd04a
 11944 d046 64D00000 		.long	0xd064
 11945 d04a 02       		.uleb128 0x2
 11946 d04b 74D50000 		.long	0xd574
 11947 d04f 01       		.uleb128 0x1
 11948 d050 5ACC0000 		.long	0xcc5a
 11949 d054 01       		.uleb128 0x1
 11950 d055 5ACC0000 		.long	0xcc5a
 11951 d059 01       		.uleb128 0x1
 11952 d05a 04B20000 		.long	0xb204
 11953 d05e 01       		.uleb128 0x1
 11954 d05f 89B70000 		.long	0xb789
 11955 d063 00       		.byte	0
 11956 d064 47       		.uleb128 0x47
 11957 d065 42696E64 		.ascii "BindBracketsByIndex\0"
 11957      42726163 
 11957      6B657473 
 11957      4279496E 
 11957      64657800 
 11958 d079 01       		.byte	0x1
 11959 d07a 3A       		.byte	0x3a
 11960 d07b 0E       		.byte	0xe
 11961 d07c 5F5A4E31 		.ascii "_ZN13BFInterpreter12TransferUnit19BindBracketsByIndexEv\0"
 11961      33424649 
 11961      6E746572 
 11961      70726574 
 11961      65723132 
 11962 d0b4 B8D00000 		.long	0xd0b8
 11963 d0b8 02       		.uleb128 0x2
 11964 d0b9 74D50000 		.long	0xd574
 11965 d0bd 00       		.byte	0
 11966 d0be 00       		.byte	0
 11967 d0bf 07       		.uleb128 0x7
 11968 d0c0 96CC0000 		.long	0xcc96
 11969 d0c4 43       		.uleb128 0x43
 11970 d0c5 23010000 		.secrel32	.LASF92
 11971 d0c9 30       		.byte	0x30
 11972 d0ca 2C       		.byte	0x2c
 11973 d0cb 06       		.byte	0x6
 11974 d0cc 0B       		.byte	0xb
GAS LISTING C:\Users\Ilya\AppData\Local\Temp\ccxaKDG8.s 			page 294


 11975 d0cd 57D40000 		.long	0xd457
 11976 d0d1 0F       		.uleb128 0xf
 11977 d0d2 23010000 		.secrel32	.LASF92
 11978 d0d6 2C       		.byte	0x2c
 11979 d0d7 0B       		.byte	0xb
 11980 d0d8 09       		.byte	0x9
 11981 d0d9 5F5A4E31 		.ascii "_ZN13BFInterpreter7ProcessC4ERNS_12TransferUnitEy\0"
 11981      33424649 
 11981      6E746572 
 11981      70726574 
 11981      65723750 
 11982 d10b 01       		.byte	0x1
 11983 d10c 14D10000 		.long	0xd114
 11984 d110 24D10000 		.long	0xd124
 11985 d114 02       		.uleb128 0x2
 11986 d115 97D50000 		.long	0xd597
 11987 d119 01       		.uleb128 0x1
 11988 d11a 85D50000 		.long	0xd585
 11989 d11e 01       		.uleb128 0x1
 11990 d11f 04B20000 		.long	0xb204
 11991 d123 00       		.byte	0
 11992 d124 35       		.uleb128 0x35
 11993 d125 7E50726F 		.ascii "~Process\0"
 11993      63657373 
 11993      00
 11994 d12e 2C       		.byte	0x2c
 11995 d12f 0C       		.byte	0xc
 11996 d130 09       		.byte	0x9
 11997 d131 5F5A4E31 		.ascii "_ZN13BFInterpreter7ProcessD4Ev\0"
 11997      33424649 
 11997      6E746572 
 11997      70726574 
 11997      65723750 
 11998 d150 01       		.byte	0x1
 11999 d151 59D10000 		.long	0xd159
 12000 d155 64D10000 		.long	0xd164
 12001 d159 02       		.uleb128 0x2
 12002 d15a 97D50000 		.long	0xd597
 12003 d15e 02       		.uleb128 0x2
 12004 d15f 9CB20000 		.long	0xb29c
 12005 d163 00       		.byte	0
 12006 d164 0F       		.uleb128 0xf
 12007 d165 23010000 		.secrel32	.LASF92
 12008 d169 2C       		.byte	0x2c
 12009 d16a 0D       		.byte	0xd
 12010 d16b 09       		.byte	0x9
 12011 d16c 5F5A4E31 		.ascii "_ZN13BFInterpreter7ProcessC4ERKS0_\0"
 12011      33424649 
 12011      6E746572 
 12011      70726574 
 12011      65723750 
 12012 d18f 01       		.byte	0x1
 12013 d190 98D10000 		.long	0xd198
 12014 d194 A3D10000 		.long	0xd1a3
 12015 d198 02       		.uleb128 0x2
 12016 d199 97D50000 		.long	0xd597
 12017 d19d 01       		.uleb128 0x1
GAS LISTING C:\Users\Ilya\AppData\Local\Temp\ccxaKDG8.s 			page 295


 12018 d19e 9DD50000 		.long	0xd59d
 12019 d1a2 00       		.byte	0
 12020 d1a3 14       		.uleb128 0x14
 12021 d1a4 D8000000 		.secrel32	.LASF12
 12022 d1a8 2C       		.byte	0x2c
 12023 d1a9 0E       		.byte	0xe
 12024 d1aa 12       		.byte	0x12
 12025 d1ab 5F5A4E31 		.ascii "_ZN13BFInterpreter7ProcessaSERKS0_\0"
 12025      33424649 
 12025      6E746572 
 12025      70726574 
 12025      65723750 
 12026 d1ce A3D50000 		.long	0xd5a3
 12027 d1d2 01       		.byte	0x1
 12028 d1d3 DBD10000 		.long	0xd1db
 12029 d1d7 E6D10000 		.long	0xd1e6
 12030 d1db 02       		.uleb128 0x2
 12031 d1dc 97D50000 		.long	0xd597
 12032 d1e0 01       		.uleb128 0x1
 12033 d1e1 9DD50000 		.long	0xd59d
 12034 d1e5 00       		.byte	0
 12035 d1e6 0F       		.uleb128 0xf
 12036 d1e7 23010000 		.secrel32	.LASF92
 12037 d1eb 2C       		.byte	0x2c
 12038 d1ec 0F       		.byte	0xf
 12039 d1ed 09       		.byte	0x9
 12040 d1ee 5F5A4E31 		.ascii "_ZN13BFInterpreter7ProcessC4EOS0_\0"
 12040      33424649 
 12040      6E746572 
 12040      70726574 
 12040      65723750 
 12041 d210 01       		.byte	0x1
 12042 d211 19D20000 		.long	0xd219
 12043 d215 24D20000 		.long	0xd224
 12044 d219 02       		.uleb128 0x2
 12045 d21a 97D50000 		.long	0xd597
 12046 d21e 01       		.uleb128 0x1
 12047 d21f A9D50000 		.long	0xd5a9
 12048 d223 00       		.byte	0
 12049 d224 14       		.uleb128 0x14
 12050 d225 D8000000 		.secrel32	.LASF12
 12051 d229 2C       		.byte	0x2c
 12052 d22a 10       		.byte	0x10
 12053 d22b 12       		.byte	0x12
 12054 d22c 5F5A4E31 		.ascii "_ZN13BFInterpreter7ProcessaSEOS0_\0"
 12054      33424649 
 12054      6E746572 
 12054      70726574 
 12054      65723750 
 12055 d24e A3D50000 		.long	0xd5a3
 12056 d252 01       		.byte	0x1
 12057 d253 5BD20000 		.long	0xd25b
 12058 d257 66D20000 		.long	0xd266
 12059 d25b 02       		.uleb128 0x2
 12060 d25c 97D50000 		.long	0xd597
 12061 d260 01       		.uleb128 0x1
 12062 d261 A9D50000 		.long	0xd5a9
GAS LISTING C:\Users\Ilya\AppData\Local\Temp\ccxaKDG8.s 			page 296


 12063 d265 00       		.byte	0
 12064 d266 36       		.uleb128 0x36
 12065 d267 49734669 		.ascii "IsFinished\0"
 12065      6E697368 
 12065      656400
 12066 d272 2C       		.byte	0x2c
 12067 d273 12       		.byte	0x12
 12068 d274 0E       		.byte	0xe
 12069 d275 5F5A4E4B 		.ascii "_ZNK13BFInterpreter7Process10IsFinishedEv\0"
 12069      31334246 
 12069      496E7465 
 12069      72707265 
 12069      74657237 
 12070 d29f B0BE0000 		.long	0xbeb0
 12071 d2a3 01       		.byte	0x1
 12072 d2a4 ACD20000 		.long	0xd2ac
 12073 d2a8 B2D20000 		.long	0xd2b2
 12074 d2ac 02       		.uleb128 0x2
 12075 d2ad AFD50000 		.long	0xd5af
 12076 d2b1 00       		.byte	0
 12077 d2b2 36       		.uleb128 0x36
 12078 d2b3 45786563 		.ascii "ExecuteNextCommand\0"
 12078      7574654E 
 12078      65787443 
 12078      6F6D6D61 
 12078      6E6400
 12079 d2c6 2C       		.byte	0x2c
 12080 d2c7 13       		.byte	0x13
 12081 d2c8 18       		.byte	0x18
 12082 d2c9 5F5A4E31 		.ascii "_ZN13BFInterpreter7Process18ExecuteNextCommandEv\0"
 12082      33424649 
 12082      6E746572 
 12082      70726574 
 12082      65723750 
 12083 d2fa CACB0000 		.long	0xcbca
 12084 d2fe 01       		.byte	0x1
 12085 d2ff 07D30000 		.long	0xd307
 12086 d303 0DD30000 		.long	0xd30d
 12087 d307 02       		.uleb128 0x2
 12088 d308 97D50000 		.long	0xd597
 12089 d30c 00       		.byte	0
 12090 d30d 35       		.uleb128 0x35
 12091 d30e 46756C6C 		.ascii "FullExecute\0"
 12091      45786563 
 12091      75746500 
 12092 d31a 2C       		.byte	0x2c
 12093 d31b 14       		.byte	0x14
 12094 d31c 0E       		.byte	0xe
 12095 d31d 5F5A4E31 		.ascii "_ZN13BFInterpreter7Process11FullExecuteEv\0"
 12095      33424649 
 12095      6E746572 
 12095      70726574 
 12095      65723750 
 12096 d347 01       		.byte	0x1
 12097 d348 50D30000 		.long	0xd350
 12098 d34c 56D30000 		.long	0xd356
 12099 d350 02       		.uleb128 0x2
GAS LISTING C:\Users\Ilya\AppData\Local\Temp\ccxaKDG8.s 			page 297


 12100 d351 97D50000 		.long	0xd597
 12101 d355 00       		.byte	0
 12102 d356 8F01     		.uleb128 0x8f
 12103 d358 4445465F 		.ascii "DEF_DATA_CAPACITY\0"
 12103      44415441 
 12103      5F434150 
 12103      41434954 
 12103      5900
 12104 d36a 2C       		.byte	0x2c
 12105 d36b 18       		.byte	0x18
 12106 d36c 21       		.byte	0x21
 12107 d36d 13B20000 		.long	0xb213
 12108 d371 3075     		.word	0x7530
 12109 d373 41       		.uleb128 0x41
 12110 d374 656C656D 		.ascii "element_t\0"
 12110      656E745F 
 12110      7400
 12111 d37e 2C       		.byte	0x2c
 12112 d37f 09       		.byte	0x9
 12113 d380 1F       		.byte	0x1f
 12114 d381 B2B40000 		.long	0xb4b2
 12115 d385 01       		.byte	0x1
 12116 d386 09       		.uleb128 0x9
 12117 d387 64617461 		.ascii "data\0"
 12117      00
 12118 d38c 2C       		.byte	0x2c
 12119 d38d 1A       		.byte	0x1a
 12120 d38e 14       		.byte	0x14
 12121 d38f B5D50000 		.long	0xd5b5
 12122 d393 00       		.byte	0
 12123 d394 09       		.uleb128 0x9
 12124 d395 64617461 		.ascii "dataCapacity\0"
 12124      43617061 
 12124      63697479 
 12124      00
 12125 d3a2 2C       		.byte	0x2c
 12126 d3a3 1B       		.byte	0x1b
 12127 d3a4 10       		.byte	0x10
 12128 d3a5 04B20000 		.long	0xb204
 12129 d3a9 08       		.byte	0x8
 12130 d3aa 09       		.uleb128 0x9
 12131 d3ab 64617461 		.ascii "dataIndex\0"
 12131      496E6465 
 12131      7800
 12132 d3b5 2C       		.byte	0x2c
 12133 d3b6 1C       		.byte	0x1c
 12134 d3b7 10       		.byte	0x10
 12135 d3b8 04B20000 		.long	0xb204
 12136 d3bc 10       		.byte	0x10
 12137 d3bd 09       		.uleb128 0x9
 12138 d3be 6C697374 		.ascii "listingIndex\0"
 12138      696E6749 
 12138      6E646578 
 12138      00
 12139 d3cb 2C       		.byte	0x2c
 12140 d3cc 1D       		.byte	0x1d
 12141 d3cd 10       		.byte	0x10
GAS LISTING C:\Users\Ilya\AppData\Local\Temp\ccxaKDG8.s 			page 298


 12142 d3ce 04B20000 		.long	0xb204
 12143 d3d2 18       		.byte	0x18
 12144 d3d3 09       		.uleb128 0x9
 12145 d3d4 636F6D70 		.ascii "completeStatus\0"
 12145      6C657465 
 12145      53746174 
 12145      757300
 12146 d3e3 2C       		.byte	0x2c
 12147 d3e4 1E       		.byte	0x1e
 12148 d3e5 0E       		.byte	0xe
 12149 d3e6 B0BE0000 		.long	0xbeb0
 12150 d3ea 20       		.byte	0x20
 12151 d3eb 09       		.uleb128 0x9
 12152 d3ec 63757272 		.ascii "currentListing\0"
 12152      656E744C 
 12152      69737469 
 12152      6E6700
 12153 d3fb 2C       		.byte	0x2c
 12154 d3fc 1F       		.byte	0x1f
 12155 d3fd 17       		.byte	0x17
 12156 d3fe 85D50000 		.long	0xd585
 12157 d402 28       		.byte	0x28
 12158 d403 47       		.uleb128 0x47
 12159 d404 41737369 		.ascii "AssignFundVars\0"
 12159      676E4675 
 12159      6E645661 
 12159      727300
 12160 d413 2C       		.byte	0x2c
 12161 d414 21       		.byte	0x21
 12162 d415 0E       		.byte	0xe
 12163 d416 5F5A4E31 		.ascii "_ZN13BFInterpreter7Process14AssignFundVarsERKS0_\0"
 12163      33424649 
 12163      6E746572 
 12163      70726574 
 12163      65723750 
 12164 d447 4BD40000 		.long	0xd44b
 12165 d44b 02       		.uleb128 0x2
 12166 d44c 97D50000 		.long	0xd597
 12167 d450 01       		.uleb128 0x1
 12168 d451 9DD50000 		.long	0xd59d
 12169 d455 00       		.byte	0
 12170 d456 00       		.byte	0
 12171 d457 07       		.uleb128 0x7
 12172 d458 C4D00000 		.long	0xd0c4
 12173 d45c 25       		.uleb128 0x25
 12174 d45d 496E7465 		.ascii "InterpreterException\0"
 12174      72707265 
 12174      74657245 
 12174      78636570 
 12174      74696F6E 
 12175 d472 07       		.uleb128 0x7
 12176 d473 5CD40000 		.long	0xd45c
 12177 d477 00       		.byte	0
 12178 d478 62       		.uleb128 0x62
 12179 d479 82CC0000 		.long	0xcc82
 12180 d47d 06       		.uleb128 0x6
 12181 d47e 08       		.byte	0x8
GAS LISTING C:\Users\Ilya\AppData\Local\Temp\ccxaKDG8.s 			page 299


 12182 d47f E4A90000 		.long	0xa9e4
 12183 d483 07       		.uleb128 0x7
 12184 d484 7DD40000 		.long	0xd47d
 12185 d488 08       		.uleb128 0x8
 12186 d489 08       		.byte	0x8
 12187 d48a 4FAD0000 		.long	0xad4f
 12188 d48e 06       		.uleb128 0x6
 12189 d48f 08       		.byte	0x8
 12190 d490 D4620000 		.long	0x62d4
 12191 d494 06       		.uleb128 0x6
 12192 d495 08       		.byte	0x8
 12193 d496 4FAD0000 		.long	0xad4f
 12194 d49a 08       		.uleb128 0x8
 12195 d49b 08       		.byte	0x8
 12196 d49c D4620000 		.long	0x62d4
 12197 d4a0 06       		.uleb128 0x6
 12198 d4a1 08       		.byte	0x8
 12199 d4a2 37640000 		.long	0x6437
 12200 d4a6 08       		.uleb128 0x8
 12201 d4a7 08       		.byte	0x8
 12202 d4a8 37640000 		.long	0x6437
 12203 d4ac 06       		.uleb128 0x6
 12204 d4ad 08       		.byte	0x8
 12205 d4ae 3C640000 		.long	0x643c
 12206 d4b2 07       		.uleb128 0x7
 12207 d4b3 ACD40000 		.long	0xd4ac
 12208 d4b7 08       		.uleb128 0x8
 12209 d4b8 08       		.byte	0x8
 12210 d4b9 43650000 		.long	0x6543
 12211 d4bd 08       		.uleb128 0x8
 12212 d4be 08       		.byte	0x8
 12213 d4bf 3C640000 		.long	0x643c
 12214 d4c3 08       		.uleb128 0x8
 12215 d4c4 08       		.byte	0x8
 12216 d4c5 F1650000 		.long	0x65f1
 12217 d4c9 08       		.uleb128 0x8
 12218 d4ca 08       		.byte	0x8
 12219 d4cb FE650000 		.long	0x65fe
 12220 d4cf 08       		.uleb128 0x8
 12221 d4d0 08       		.byte	0x8
 12222 d4d1 4AB00000 		.long	0xb04a
 12223 d4d5 08       		.uleb128 0x8
 12224 d4d6 08       		.byte	0x8
 12225 d4d7 56B00000 		.long	0xb056
 12226 d4db 06       		.uleb128 0x6
 12227 d4dc 08       		.byte	0x8
 12228 d4dd 13680000 		.long	0x6813
 12229 d4e1 1E       		.uleb128 0x1e
 12230 d4e2 08       		.byte	0x8
 12231 d4e3 13680000 		.long	0x6813
 12232 d4e7 08       		.uleb128 0x8
 12233 d4e8 08       		.byte	0x8
 12234 d4e9 F4690000 		.long	0x69f4
 12235 d4ed 08       		.uleb128 0x8
 12236 d4ee 08       		.byte	0x8
 12237 d4ef 13680000 		.long	0x6813
 12238 d4f3 06       		.uleb128 0x6
GAS LISTING C:\Users\Ilya\AppData\Local\Temp\ccxaKDG8.s 			page 300


 12239 d4f4 08       		.byte	0x8
 12240 d4f5 056A0000 		.long	0x6a05
 12241 d4f9 07       		.uleb128 0x7
 12242 d4fa F3D40000 		.long	0xd4f3
 12243 d4fe 08       		.uleb128 0x8
 12244 d4ff 08       		.byte	0x8
 12245 d500 3D6C0000 		.long	0x6c3d
 12246 d504 1E       		.uleb128 0x1e
 12247 d505 08       		.byte	0x8
 12248 d506 056A0000 		.long	0x6a05
 12249 d50a 1E       		.uleb128 0x1e
 12250 d50b 08       		.byte	0x8
 12251 d50c 316C0000 		.long	0x6c31
 12252 d510 08       		.uleb128 0x8
 12253 d511 08       		.byte	0x8
 12254 d512 316C0000 		.long	0x6c31
 12255 d516 06       		.uleb128 0x6
 12256 d517 08       		.byte	0x8
 12257 d518 B5670000 		.long	0x67b5
 12258 d51c 07       		.uleb128 0x7
 12259 d51d 16D50000 		.long	0xd516
 12260 d521 06       		.uleb128 0x6
 12261 d522 08       		.byte	0x8
 12262 d523 6F710000 		.long	0x716f
 12263 d527 08       		.uleb128 0x8
 12264 d528 08       		.byte	0x8
 12265 d529 046D0000 		.long	0x6d04
 12266 d52d 1E       		.uleb128 0x1e
 12267 d52e 08       		.byte	0x8
 12268 d52f B5670000 		.long	0x67b5
 12269 d533 08       		.uleb128 0x8
 12270 d534 08       		.byte	0x8
 12271 d535 C0730000 		.long	0x73c0
 12272 d539 06       		.uleb128 0x6
 12273 d53a 08       		.byte	0x8
 12274 d53b 74710000 		.long	0x7174
 12275 d53f 07       		.uleb128 0x7
 12276 d540 39D50000 		.long	0xd539
 12277 d544 08       		.uleb128 0x8
 12278 d545 08       		.byte	0x8
 12279 d546 56750000 		.long	0x7556
 12280 d54a 08       		.uleb128 0x8
 12281 d54b 08       		.byte	0x8
 12282 d54c 19760000 		.long	0x7619
 12283 d550 08       		.uleb128 0x8
 12284 d551 08       		.byte	0x8
 12285 d552 E98E0000 		.long	0x8ee9
 12286 d556 1E       		.uleb128 0x1e
 12287 d557 08       		.byte	0x8
 12288 d558 74710000 		.long	0x7174
 12289 d55c 08       		.uleb128 0x8
 12290 d55d 08       		.byte	0x8
 12291 d55e 74710000 		.long	0x7174
 12292 d562 06       		.uleb128 0x6
 12293 d563 08       		.byte	0x8
 12294 d564 E98E0000 		.long	0x8ee9
 12295 d568 1E       		.uleb128 0x1e
GAS LISTING C:\Users\Ilya\AppData\Local\Temp\ccxaKDG8.s 			page 301


 12296 d569 08       		.byte	0x8
 12297 d56a 0B760000 		.long	0x760b
 12298 d56e 08       		.uleb128 0x8
 12299 d56f 08       		.byte	0x8
 12300 d570 CD730000 		.long	0x73cd
 12301 d574 06       		.uleb128 0x6
 12302 d575 08       		.byte	0x8
 12303 d576 96CC0000 		.long	0xcc96
 12304 d57a 07       		.uleb128 0x7
 12305 d57b 74D50000 		.long	0xd574
 12306 d57f 08       		.uleb128 0x8
 12307 d580 08       		.byte	0x8
 12308 d581 BFD00000 		.long	0xd0bf
 12309 d585 08       		.uleb128 0x8
 12310 d586 08       		.byte	0x8
 12311 d587 96CC0000 		.long	0xcc96
 12312 d58b 1E       		.uleb128 0x1e
 12313 d58c 08       		.byte	0x8
 12314 d58d 96CC0000 		.long	0xcc96
 12315 d591 06       		.uleb128 0x6
 12316 d592 08       		.byte	0x8
 12317 d593 BFD00000 		.long	0xd0bf
 12318 d597 06       		.uleb128 0x6
 12319 d598 08       		.byte	0x8
 12320 d599 C4D00000 		.long	0xd0c4
 12321 d59d 08       		.uleb128 0x8
 12322 d59e 08       		.byte	0x8
 12323 d59f 57D40000 		.long	0xd457
 12324 d5a3 08       		.uleb128 0x8
 12325 d5a4 08       		.byte	0x8
 12326 d5a5 C4D00000 		.long	0xd0c4
 12327 d5a9 1E       		.uleb128 0x1e
 12328 d5aa 08       		.byte	0x8
 12329 d5ab C4D00000 		.long	0xd0c4
 12330 d5af 06       		.uleb128 0x6
 12331 d5b0 08       		.byte	0x8
 12332 d5b1 57D40000 		.long	0xd457
 12333 d5b5 06       		.uleb128 0x6
 12334 d5b6 08       		.byte	0x8
 12335 d5b7 73D30000 		.long	0xd373
 12336 d5bb 46       		.uleb128 0x46
 12337 d5bc 02       		.byte	0x2
 12338 d5bd 05       		.byte	0x5
 12339 d5be 11       		.byte	0x11
 12340 d5bf B4CB0000 		.long	0xcbb4
 12341 d5c3 06       		.uleb128 0x6
 12342 d5c4 08       		.byte	0x8
 12343 d5c5 3EA20000 		.long	0xa23e
 12344 d5c9 08       		.uleb128 0x8
 12345 d5ca 08       		.byte	0x8
 12346 d5cb 8FB70000 		.long	0xb78f
 12347 d5cf 06       		.uleb128 0x6
 12348 d5d0 08       		.byte	0x8
 12349 d5d1 DFA90000 		.long	0xa9df
 12350 d5d5 08       		.uleb128 0x8
 12351 d5d6 08       		.byte	0x8
 12352 d5d7 3EA20000 		.long	0xa23e
GAS LISTING C:\Users\Ilya\AppData\Local\Temp\ccxaKDG8.s 			page 302


 12353 d5db 06       		.uleb128 0x6
 12354 d5dc 08       		.byte	0x8
 12355 d5dd F8900000 		.long	0x90f8
 12356 d5e1 08       		.uleb128 0x8
 12357 d5e2 08       		.byte	0x8
 12358 d5e3 1B920000 		.long	0x921b
 12359 d5e7 08       		.uleb128 0x8
 12360 d5e8 08       		.byte	0x8
 12361 d5e9 F8900000 		.long	0x90f8
 12362 d5ed 1E       		.uleb128 0x1e
 12363 d5ee 08       		.byte	0x8
 12364 d5ef D4620000 		.long	0x62d4
 12365 d5f3 06       		.uleb128 0x6
 12366 d5f4 08       		.byte	0x8
 12367 d5f5 AC9A0000 		.long	0x9aac
 12368 d5f9 08       		.uleb128 0x8
 12369 d5fa 08       		.byte	0x8
 12370 d5fb BAB20000 		.long	0xb2ba
 12371 d5ff 06       		.uleb128 0x6
 12372 d600 08       		.byte	0x8
 12373 d601 39A20000 		.long	0xa239
 12374 d605 08       		.uleb128 0x8
 12375 d606 08       		.byte	0x8
 12376 d607 AC9A0000 		.long	0x9aac
 12377 d60b 65       		.uleb128 0x65
 12378 d60c 5F474C4F 		.ascii "_GLOBAL__sub_I_main\0"
 12378      42414C5F 
 12378      5F737562 
 12378      5F495F6D 
 12378      61696E00 
 12379 d620 9A010000 		.quad	.LFB2539
 12379      00000000 
 12380 d628 1E000000 		.quad	.LFE2539-.LFB2539
 12380      00000000 
 12381 d630 01       		.uleb128 0x1
 12382 d631 9C       		.byte	0x9c
 12383 d632 9001     		.uleb128 0x90
 12384 d634 5F5F7374 		.ascii "__static_initialization_and_destruction_0\0"
 12384      61746963 
 12384      5F696E69 
 12384      7469616C 
 12384      697A6174 
 12385 d65e 5E010000 		.quad	.LFB2537
 12385      00000000 
 12386 d666 3C000000 		.quad	.LFE2537-.LFB2537
 12386      00000000 
 12387 d66e 01       		.uleb128 0x1
 12388 d66f 9C       		.byte	0x9c
 12389 d670 A5D60000 		.long	0xd6a5
 12390 d674 31       		.uleb128 0x31
 12391 d675 5F5F696E 		.ascii "__initialize_p\0"
 12391      69746961 
 12391      6C697A65 
 12391      5F7000
 12392 d684 02       		.byte	0x2
 12393 d685 16       		.byte	0x16
 12394 d686 01       		.byte	0x1
GAS LISTING C:\Users\Ilya\AppData\Local\Temp\ccxaKDG8.s 			page 303


 12395 d687 9CB20000 		.long	0xb29c
 12396 d68b 02       		.uleb128 0x2
 12397 d68c 91       		.byte	0x91
 12398 d68d 00       		.sleb128 0
 12399 d68e 31       		.uleb128 0x31
 12400 d68f 5F5F7072 		.ascii "__priority\0"
 12400      696F7269 
 12400      747900
 12401 d69a 02       		.byte	0x2
 12402 d69b 16       		.byte	0x16
 12403 d69c 01       		.byte	0x1
 12404 d69d 9CB20000 		.long	0xb29c
 12405 d6a1 02       		.uleb128 0x2
 12406 d6a2 91       		.byte	0x91
 12407 d6a3 08       		.sleb128 8
 12408 d6a4 00       		.byte	0
 12409 d6a5 65       		.uleb128 0x65
 12410 d6a6 5F5F7463 		.ascii "__tcf_0\0"
 12410      665F3000 
 12411 d6ae 43010000 		.quad	.LFB2538
 12411      00000000 
 12412 d6b6 1B000000 		.quad	.LFE2538-.LFB2538
 12412      00000000 
 12413 d6be 01       		.uleb128 0x1
 12414 d6bf 9C       		.byte	0x9c
 12415 d6c0 66       		.uleb128 0x66
 12416 d6c1 43AC0000 		.long	0xac43
 12417 d6c5 DFD60000 		.long	0xd6df
 12418 d6c9 00000000 		.quad	.LFB2494
 12418      00000000 
 12419 d6d1 33000000 		.quad	.LFE2494-.LFB2494
 12419      00000000 
 12420 d6d9 01       		.uleb128 0x1
 12421 d6da 9C       		.byte	0x9c
 12422 d6db 0AD70000 		.long	0xd70a
 12423 d6df 49       		.uleb128 0x49
 12424 d6e0 1E010000 		.secrel32	.LASF93
 12425 d6e4 83D40000 		.long	0xd483
 12426 d6e8 02       		.uleb128 0x2
 12427 d6e9 91       		.byte	0x91
 12428 d6ea 00       		.sleb128 0
 12429 d6eb 31       		.uleb128 0x31
 12430 d6ec 5F5F7000 		.ascii "__p\0"
 12431 d6f0 07       		.byte	0x7
 12432 d6f1 78       		.byte	0x78
 12433 d6f2 17       		.byte	0x17
 12434 d6f3 8ED40000 		.long	0xd48e
 12435 d6f7 02       		.uleb128 0x2
 12436 d6f8 91       		.byte	0x91
 12437 d6f9 08       		.sleb128 8
 12438 d6fa 31       		.uleb128 0x31
 12439 d6fb 5F5F7400 		.ascii "__t\0"
 12440 d6ff 07       		.byte	0x7
 12441 d700 78       		.byte	0x78
 12442 d701 26       		.byte	0x26
 12443 d702 36AC0000 		.long	0xac36
 12444 d706 02       		.uleb128 0x2
GAS LISTING C:\Users\Ilya\AppData\Local\Temp\ccxaKDG8.s 			page 304


 12445 d707 91       		.byte	0x91
 12446 d708 10       		.sleb128 16
 12447 d709 00       		.byte	0
 12448 d70a 9101     		.uleb128 0x91
 12449 d70c E5580000 		.long	0x58e5
 12450 d710 00000000 		.quad	.LFB2464
 12450      00000000 
 12451 d718 0F000000 		.quad	.LFE2464-.LFB2464
 12451      00000000 
 12452 d720 01       		.uleb128 0x1
 12453 d721 9C       		.byte	0x9c
 12454 d722 40D70000 		.long	0xd740
 12455 d726 12       		.uleb128 0x12
 12456 d727 FC010000 		.secrel32	.LASF49
 12457 d72b 8ED40000 		.long	0xd48e
 12458 d72f 4A       		.uleb128 0x4a
 12459 d730 8ED40000 		.long	0xd48e
 12460 d734 02       		.uleb128 0x2
 12461 d735 91       		.byte	0x91
 12462 d736 00       		.sleb128 0
 12463 d737 4A       		.uleb128 0x4a
 12464 d738 8ED40000 		.long	0xd48e
 12465 d73c 02       		.uleb128 0x2
 12466 d73d 91       		.byte	0x91
 12467 d73e 08       		.sleb128 8
 12468 d73f 00       		.byte	0
 12469 d740 4B       		.uleb128 0x4b
 12470 d741 79660000 		.long	0x6679
 12471 d745 00000000 		.quad	.LFB2463
 12471      00000000 
 12472 d74d 32000000 		.quad	.LFE2463-.LFB2463
 12472      00000000 
 12473 d755 01       		.uleb128 0x1
 12474 d756 9C       		.byte	0x9c
 12475 d757 8CD70000 		.long	0xd78c
 12476 d75b 2C       		.uleb128 0x2c
 12477 d75c 5F5F6100 		.ascii "__a\0"
 12478 d760 04       		.byte	0x4
 12479 d761 EB01     		.word	0x1eb
 12480 d763 22       		.byte	0x22
 12481 d764 C3D40000 		.long	0xd4c3
 12482 d768 02       		.uleb128 0x2
 12483 d769 91       		.byte	0x91
 12484 d76a 00       		.sleb128 0
 12485 d76b 2C       		.uleb128 0x2c
 12486 d76c 5F5F7000 		.ascii "__p\0"
 12487 d770 04       		.byte	0x4
 12488 d771 EB01     		.word	0x1eb
 12489 d773 2F       		.byte	0x2f
 12490 d774 90650000 		.long	0x6590
 12491 d778 02       		.uleb128 0x2
 12492 d779 91       		.byte	0x91
 12493 d77a 08       		.sleb128 8
 12494 d77b 2C       		.uleb128 0x2c
 12495 d77c 5F5F6E00 		.ascii "__n\0"
 12496 d780 04       		.byte	0x4
 12497 d781 EB01     		.word	0x1eb
GAS LISTING C:\Users\Ilya\AppData\Local\Temp\ccxaKDG8.s 			page 305


 12498 d783 3E       		.byte	0x3e
 12499 d784 03660000 		.long	0x6603
 12500 d788 02       		.uleb128 0x2
 12501 d789 91       		.byte	0x91
 12502 d78a 10       		.sleb128 16
 12503 d78b 00       		.byte	0
 12504 d78c 38       		.uleb128 0x38
 12505 d78d AAAA0000 		.long	0xaaaa
 12506 d791 9AD70000 		.long	0xd79a
 12507 d795 02       		.byte	0x2
 12508 d796 ADD70000 		.long	0xd7ad
 12509 d79a 1F       		.uleb128 0x1f
 12510 d79b 1E010000 		.secrel32	.LASF93
 12511 d79f 83D40000 		.long	0xd483
 12512 d7a3 1F       		.uleb128 0x1f
 12513 d7a4 2C000000 		.secrel32	.LASF94
 12514 d7a8 A3B20000 		.long	0xb2a3
 12515 d7ac 00       		.byte	0
 12516 d7ad 9201     		.uleb128 0x92
 12517 d7af 8CD70000 		.long	0xd78c
 12518 d7b3 5F5A4E39 		.ascii "_ZN9__gnu_cxx13new_allocatorISt4pairIclEED2Ev\0"
 12518      5F5F676E 
 12518      755F6378 
 12518      7831336E 
 12518      65775F61 
 12519 d7e1 FBD70000 		.long	0xd7fb
 12520 d7e5 00000000 		.quad	.LFB2461
 12520      00000000 
 12521 d7ed 0B000000 		.quad	.LFE2461-.LFB2461
 12521      00000000 
 12522 d7f5 01       		.uleb128 0x1
 12523 d7f6 9C       		.byte	0x9c
 12524 d7f7 04D80000 		.long	0xd804
 12525 d7fb 32       		.uleb128 0x32
 12526 d7fc 9AD70000 		.long	0xd79a
 12527 d800 02       		.uleb128 0x2
 12528 d801 91       		.byte	0x91
 12529 d802 00       		.sleb128 0
 12530 d803 00       		.byte	0
 12531 d804 4B       		.uleb128 0x4b
 12532 d805 E0920000 		.long	0x92e0
 12533 d809 00000000 		.quad	.LFB2422
 12533      00000000 
 12534 d811 27000000 		.quad	.LFE2422-.LFB2422
 12534      00000000 
 12535 d819 01       		.uleb128 0x1
 12536 d81a 9C       		.byte	0x9c
 12537 d81b 4ED80000 		.long	0xd84e
 12538 d81f 12       		.uleb128 0x12
 12539 d820 FC010000 		.secrel32	.LASF49
 12540 d824 8ED40000 		.long	0xd48e
 12541 d828 31       		.uleb128 0x31
 12542 d829 5F5F6669 		.ascii "__first\0"
 12542      72737400 
 12543 d831 06       		.byte	0x6
 12544 d832 AB       		.byte	0xab
 12545 d833 1F       		.byte	0x1f
GAS LISTING C:\Users\Ilya\AppData\Local\Temp\ccxaKDG8.s 			page 306


 12546 d834 8ED40000 		.long	0xd48e
 12547 d838 02       		.uleb128 0x2
 12548 d839 91       		.byte	0x91
 12549 d83a 00       		.sleb128 0
 12550 d83b 31       		.uleb128 0x31
 12551 d83c 5F5F6C61 		.ascii "__last\0"
 12551      737400
 12552 d843 06       		.byte	0x6
 12553 d844 AB       		.byte	0xab
 12554 d845 39       		.byte	0x39
 12555 d846 8ED40000 		.long	0xd48e
 12556 d84a 02       		.uleb128 0x2
 12557 d84b 91       		.byte	0x91
 12558 d84c 08       		.sleb128 8
 12559 d84d 00       		.byte	0
 12560 d84e 66       		.uleb128 0x66
 12561 d84f 8C700000 		.long	0x708c
 12562 d853 6DD80000 		.long	0xd86d
 12563 d857 00000000 		.quad	.LFB2421
 12563      00000000 
 12564 d85f 39000000 		.quad	.LFE2421-.LFB2421
 12564      00000000 
 12565 d867 01       		.uleb128 0x1
 12566 d868 9C       		.byte	0x9c
 12567 d869 9AD80000 		.long	0xd89a
 12568 d86d 49       		.uleb128 0x49
 12569 d86e 1E010000 		.secrel32	.LASF93
 12570 d872 1CD50000 		.long	0xd51c
 12571 d876 02       		.uleb128 0x2
 12572 d877 91       		.byte	0x91
 12573 d878 00       		.sleb128 0
 12574 d879 2C       		.uleb128 0x2c
 12575 d87a 5F5F7000 		.ascii "__p\0"
 12576 d87e 03       		.byte	0x3
 12577 d87f 5E01     		.word	0x15e
 12578 d881 1D       		.byte	0x1d
 12579 d882 F9690000 		.long	0x69f9
 12580 d886 02       		.uleb128 0x2
 12581 d887 91       		.byte	0x91
 12582 d888 08       		.sleb128 8
 12583 d889 2C       		.uleb128 0x2c
 12584 d88a 5F5F6E00 		.ascii "__n\0"
 12585 d88e 03       		.byte	0x3
 12586 d88f 5E01     		.word	0x15e
 12587 d891 29       		.byte	0x29
 12588 d892 7A510000 		.long	0x517a
 12589 d896 02       		.uleb128 0x2
 12590 d897 91       		.byte	0x91
 12591 d898 10       		.sleb128 16
 12592 d899 00       		.byte	0
 12593 d89a 38       		.uleb128 0x38
 12594 d89b 13650000 		.long	0x6513
 12595 d89f A8D80000 		.long	0xd8a8
 12596 d8a3 02       		.byte	0x2
 12597 d8a4 BBD80000 		.long	0xd8bb
 12598 d8a8 1F       		.uleb128 0x1f
 12599 d8a9 1E010000 		.secrel32	.LASF93
GAS LISTING C:\Users\Ilya\AppData\Local\Temp\ccxaKDG8.s 			page 307


 12600 d8ad B2D40000 		.long	0xd4b2
 12601 d8b1 1F       		.uleb128 0x1f
 12602 d8b2 2C000000 		.secrel32	.LASF94
 12603 d8b6 A3B20000 		.long	0xb2a3
 12604 d8ba 00       		.byte	0
 12605 d8bb 3F       		.uleb128 0x3f
 12606 d8bc 9AD80000 		.long	0xd89a
 12607 d8c0 5F5A4E53 		.ascii "_ZNSaISt4pairIclEED2Ev\0"
 12607      61495374 
 12607      34706169 
 12607      7249636C 
 12607      45454432 
 12608 d8d7 F1D80000 		.long	0xd8f1
 12609 d8db 00000000 		.quad	.LFB2419
 12609      00000000 
 12610 d8e3 1C000000 		.quad	.LFE2419-.LFB2419
 12610      00000000 
 12611 d8eb 01       		.uleb128 0x1
 12612 d8ec 9C       		.byte	0x9c
 12613 d8ed FAD80000 		.long	0xd8fa
 12614 d8f1 32       		.uleb128 0x32
 12615 d8f2 A8D80000 		.long	0xd8a8
 12616 d8f6 02       		.uleb128 0x2
 12617 d8f7 91       		.byte	0x91
 12618 d8f8 00       		.sleb128 0
 12619 d8f9 00       		.byte	0
 12620 d8fa 4B       		.uleb128 0x4b
 12621 d8fb 43930000 		.long	0x9343
 12622 d8ff 00000000 		.quad	.LFB2380
 12622      00000000 
 12623 d907 2B000000 		.quad	.LFE2380-.LFB2380
 12623      00000000 
 12624 d90f 01       		.uleb128 0x1
 12625 d910 9C       		.byte	0x9c
 12626 d911 57D90000 		.long	0xd957
 12627 d915 12       		.uleb128 0x12
 12628 d916 FC010000 		.secrel32	.LASF49
 12629 d91a 8ED40000 		.long	0xd48e
 12630 d91e 16       		.uleb128 0x16
 12631 d91f 5F547000 		.ascii "_Tp\0"
 12632 d923 D4620000 		.long	0x62d4
 12633 d927 2C       		.uleb128 0x2c
 12634 d928 5F5F6669 		.ascii "__first\0"
 12634      72737400 
 12635 d930 04       		.byte	0x4
 12636 d931 DF02     		.word	0x2df
 12637 d933 1F       		.byte	0x1f
 12638 d934 8ED40000 		.long	0xd48e
 12639 d938 02       		.uleb128 0x2
 12640 d939 91       		.byte	0x91
 12641 d93a 00       		.sleb128 0
 12642 d93b 2C       		.uleb128 0x2c
 12643 d93c 5F5F6C61 		.ascii "__last\0"
 12643      737400
 12644 d943 04       		.byte	0x4
 12645 d944 DF02     		.word	0x2df
 12646 d946 39       		.byte	0x39
GAS LISTING C:\Users\Ilya\AppData\Local\Temp\ccxaKDG8.s 			page 308


 12647 d947 8ED40000 		.long	0xd48e
 12648 d94b 02       		.uleb128 0x2
 12649 d94c 91       		.byte	0x91
 12650 d94d 08       		.sleb128 8
 12651 d94e 4A       		.uleb128 0x4a
 12652 d94f BDD40000 		.long	0xd4bd
 12653 d953 02       		.uleb128 0x2
 12654 d954 91       		.byte	0x91
 12655 d955 10       		.sleb128 16
 12656 d956 00       		.byte	0
 12657 d957 9301     		.uleb128 0x93
 12658 d959 426C0000 		.long	0x6c42
 12659 d95d 77D90000 		.long	0xd977
 12660 d961 00000000 		.quad	.LFB2379
 12660      00000000 
 12661 d969 0E000000 		.quad	.LFE2379-.LFB2379
 12661      00000000 
 12662 d971 01       		.uleb128 0x1
 12663 d972 9C       		.byte	0x9c
 12664 d973 84D90000 		.long	0xd984
 12665 d977 49       		.uleb128 0x49
 12666 d978 1E010000 		.secrel32	.LASF93
 12667 d97c 1CD50000 		.long	0xd51c
 12668 d980 02       		.uleb128 0x2
 12669 d981 91       		.byte	0x91
 12670 d982 00       		.sleb128 0
 12671 d983 00       		.byte	0
 12672 d984 38       		.uleb128 0x38
 12673 d985 C96F0000 		.long	0x6fc9
 12674 d989 92D90000 		.long	0xd992
 12675 d98d 02       		.byte	0x2
 12676 d98e A5D90000 		.long	0xd9a5
 12677 d992 1F       		.uleb128 0x1f
 12678 d993 1E010000 		.secrel32	.LASF93
 12679 d997 1CD50000 		.long	0xd51c
 12680 d99b 1F       		.uleb128 0x1f
 12681 d99c 2C000000 		.secrel32	.LASF94
 12682 d9a0 A3B20000 		.long	0xb2a3
 12683 d9a4 00       		.byte	0
 12684 d9a5 3F       		.uleb128 0x3f
 12685 d9a6 84D90000 		.long	0xd984
 12686 d9aa 5F5A4E53 		.ascii "_ZNSt12_Vector_baseISt4pairIclESaIS1_EED2Ev\0"
 12686      7431325F 
 12686      56656374 
 12686      6F725F62 
 12686      61736549 
 12687 d9d6 F0D90000 		.long	0xd9f0
 12688 d9da 00000000 		.quad	.LFB2377
 12688      00000000 
 12689 d9e2 51000000 		.quad	.LFE2377-.LFB2377
 12689      00000000 
 12690 d9ea 01       		.uleb128 0x1
 12691 d9eb 9C       		.byte	0x9c
 12692 d9ec F9D90000 		.long	0xd9f9
 12693 d9f0 32       		.uleb128 0x32
 12694 d9f1 92D90000 		.long	0xd992
 12695 d9f5 02       		.uleb128 0x2
GAS LISTING C:\Users\Ilya\AppData\Local\Temp\ccxaKDG8.s 			page 309


 12696 d9f6 91       		.byte	0x91
 12697 d9f7 00       		.sleb128 0
 12698 d9f8 00       		.byte	0
 12699 d9f9 9401     		.uleb128 0x94
 12700 d9fb D86B0000 		.long	0x6bd8
 12701 d9ff 03       		.byte	0x3
 12702 da00 80       		.byte	0x80
 12703 da01 0E       		.byte	0xe
 12704 da02 0BDA0000 		.long	0xda0b
 12705 da06 02       		.byte	0x2
 12706 da07 1EDA0000 		.long	0xda1e
 12707 da0b 1F       		.uleb128 0x1f
 12708 da0c 1E010000 		.secrel32	.LASF93
 12709 da10 F9D40000 		.long	0xd4f9
 12710 da14 1F       		.uleb128 0x1f
 12711 da15 2C000000 		.secrel32	.LASF94
 12712 da19 A3B20000 		.long	0xb2a3
 12713 da1d 00       		.byte	0
 12714 da1e 3F       		.uleb128 0x3f
 12715 da1f F9D90000 		.long	0xd9f9
 12716 da23 5F5A4E53 		.ascii "_ZNSt12_Vector_baseISt4pairIclESaIS1_EE12_Vector_implD1Ev\0"
 12716      7431325F 
 12716      56656374 
 12716      6F725F62 
 12716      61736549 
 12717 da5d 77DA0000 		.long	0xda77
 12718 da61 00000000 		.quad	.LFB2374
 12718      00000000 
 12719 da69 1C000000 		.quad	.LFE2374-.LFB2374
 12719      00000000 
 12720 da71 01       		.uleb128 0x1
 12721 da72 9C       		.byte	0x9c
 12722 da73 80DA0000 		.long	0xda80
 12723 da77 32       		.uleb128 0x32
 12724 da78 0BDA0000 		.long	0xda0b
 12725 da7c 02       		.uleb128 0x2
 12726 da7d 91       		.byte	0x91
 12727 da7e 00       		.sleb128 0
 12728 da7f 00       		.byte	0
 12729 da80 38       		.uleb128 0x38
 12730 da81 8B780000 		.long	0x788b
 12731 da85 8EDA0000 		.long	0xda8e
 12732 da89 02       		.byte	0x2
 12733 da8a A1DA0000 		.long	0xdaa1
 12734 da8e 1F       		.uleb128 0x1f
 12735 da8f 1E010000 		.secrel32	.LASF93
 12736 da93 3FD50000 		.long	0xd53f
 12737 da97 1F       		.uleb128 0x1f
 12738 da98 2C000000 		.secrel32	.LASF94
 12739 da9c A3B20000 		.long	0xb2a3
 12740 daa0 00       		.byte	0
 12741 daa1 3F       		.uleb128 0x3f
 12742 daa2 80DA0000 		.long	0xda80
 12743 daa6 5F5A4E53 		.ascii "_ZNSt6vectorISt4pairIclESaIS1_EED1Ev\0"
 12743      74367665 
 12743      63746F72 
 12743      49537434 
GAS LISTING C:\Users\Ilya\AppData\Local\Temp\ccxaKDG8.s 			page 310


 12743      70616972 
 12744 dacb E5DA0000 		.long	0xdae5
 12745 dacf 00000000 		.quad	.LFB2258
 12745      00000000 
 12746 dad7 48000000 		.quad	.LFE2258-.LFB2258
 12746      00000000 
 12747 dadf 01       		.uleb128 0x1
 12748 dae0 9C       		.byte	0x9c
 12749 dae1 EEDA0000 		.long	0xdaee
 12750 dae5 32       		.uleb128 0x32
 12751 dae6 8EDA0000 		.long	0xda8e
 12752 daea 02       		.uleb128 0x2
 12753 daeb 91       		.byte	0x91
 12754 daec 00       		.sleb128 0
 12755 daed 00       		.byte	0
 12756 daee 9501     		.uleb128 0x95
 12757 daf0 6D61696E 		.ascii "main\0"
 12757      00
 12758 daf5 02       		.byte	0x2
 12759 daf6 07       		.byte	0x7
 12760 daf7 05       		.byte	0x5
 12761 daf8 9CB20000 		.long	0xb29c
 12762 dafc 00000000 		.quad	.LFB2008
 12762      00000000 
 12763 db04 43010000 		.quad	.LFE2008-.LFB2008
 12763      00000000 
 12764 db0c 01       		.uleb128 0x1
 12765 db0d 9C       		.byte	0x9c
 12766 db0e 5EDB0000 		.long	0xdb5e
 12767 db12 9601     		.uleb128 0x96
 12768 db14 00000000 		.secrel32	.Ldebug_ranges0+0
 12769 db18 3CDB0000 		.long	0xdb3c
 12770 db1c 4C       		.uleb128 0x4c
 12771 db1d 747500   		.ascii "tu\0"
 12772 db20 02       		.byte	0x2
 12773 db21 0B       		.byte	0xb
 12774 db22 16       		.byte	0x16
 12775 db23 96CC0000 		.long	0xcc96
 12776 db27 02       		.uleb128 0x2
 12777 db28 91       		.byte	0x91
 12778 db29 40       		.sleb128 -64
 12779 db2a 4C       		.uleb128 0x4c
 12780 db2b 70726F63 		.ascii "proc\0"
 12780      00
 12781 db30 02       		.byte	0x2
 12782 db31 0D       		.byte	0xd
 12783 db32 11       		.byte	0x11
 12784 db33 C4D00000 		.long	0xd0c4
 12785 db37 03       		.uleb128 0x3
 12786 db38 91       		.byte	0x91
 12787 db39 907F     		.sleb128 -112
 12788 db3b 00       		.byte	0
 12789 db3c 9701     		.uleb128 0x97
 12790 db3e AE000000 		.quad	.LBB5
 12790      00000000 
 12791 db46 8D000000 		.quad	.LBE5-.LBB5
 12791      00000000 
GAS LISTING C:\Users\Ilya\AppData\Local\Temp\ccxaKDG8.s 			page 311


 12792 db4e 4C       		.uleb128 0x4c
 12793 db4f 696500   		.ascii "ie\0"
 12794 db52 02       		.byte	0x2
 12795 db53 11       		.byte	0x11
 12796 db54 29       		.byte	0x29
 12797 db55 5EDB0000 		.long	0xdb5e
 12798 db59 02       		.uleb128 0x2
 12799 db5a 91       		.byte	0x91
 12800 db5b 58       		.sleb128 -40
 12801 db5c 00       		.byte	0
 12802 db5d 00       		.byte	0
 12803 db5e 08       		.uleb128 0x8
 12804 db5f 08       		.byte	0x8
 12805 db60 72D40000 		.long	0xd472
 12806 db64 38       		.uleb128 0x38
 12807 db65 5ACD0000 		.long	0xcd5a
 12808 db69 72DB0000 		.long	0xdb72
 12809 db6d 02       		.byte	0x2
 12810 db6e 85DB0000 		.long	0xdb85
 12811 db72 1F       		.uleb128 0x1f
 12812 db73 1E010000 		.secrel32	.LASF93
 12813 db77 7AD50000 		.long	0xd57a
 12814 db7b 1F       		.uleb128 0x1f
 12815 db7c 2C000000 		.secrel32	.LASF94
 12816 db80 A3B20000 		.long	0xb2a3
 12817 db84 00       		.byte	0
 12818 db85 9801     		.uleb128 0x98
 12819 db87 64DB0000 		.long	0xdb64
 12820 db8b 5F5A4E31 		.ascii "_ZN13BFInterpreter12TransferUnitD1Ev\0"
 12820      33424649 
 12820      6E746572 
 12820      70726574 
 12820      65723132 
 12821 dbb0 C6DB0000 		.long	0xdbc6
 12822 dbb4 00000000 		.quad	.LFB2011
 12822      00000000 
 12823 dbbc 1F000000 		.quad	.LFE2011-.LFB2011
 12823      00000000 
 12824 dbc4 01       		.uleb128 0x1
 12825 dbc5 9C       		.byte	0x9c
 12826 dbc6 32       		.uleb128 0x32
 12827 dbc7 72DB0000 		.long	0xdb72
 12828 dbcb 02       		.uleb128 0x2
 12829 dbcc 91       		.byte	0x91
 12830 dbcd 00       		.sleb128 0
 12831 dbce 00       		.byte	0
 12832 dbcf 00       		.byte	0
 12833              		.section	.debug_abbrev,"dr"
 12834              	.Ldebug_abbrev0:
 12835 0000 01       		.uleb128 0x1
 12836 0001 05       		.uleb128 0x5
 12837 0002 00       		.byte	0
 12838 0003 49       		.uleb128 0x49
 12839 0004 13       		.uleb128 0x13
 12840 0005 00       		.byte	0
 12841 0006 00       		.byte	0
 12842 0007 02       		.uleb128 0x2
GAS LISTING C:\Users\Ilya\AppData\Local\Temp\ccxaKDG8.s 			page 312


 12843 0008 05       		.uleb128 0x5
 12844 0009 00       		.byte	0
 12845 000a 49       		.uleb128 0x49
 12846 000b 13       		.uleb128 0x13
 12847 000c 34       		.uleb128 0x34
 12848 000d 19       		.uleb128 0x19
 12849 000e 00       		.byte	0
 12850 000f 00       		.byte	0
 12851 0010 03       		.uleb128 0x3
 12852 0011 08       		.uleb128 0x8
 12853 0012 00       		.byte	0
 12854 0013 3A       		.uleb128 0x3a
 12855 0014 0B       		.uleb128 0xb
 12856 0015 3B       		.uleb128 0x3b
 12857 0016 0B       		.uleb128 0xb
 12858 0017 39       		.uleb128 0x39
 12859 0018 0B       		.uleb128 0xb
 12860 0019 18       		.uleb128 0x18
 12861 001a 13       		.uleb128 0x13
 12862 001b 00       		.byte	0
 12863 001c 00       		.byte	0
 12864 001d 04       		.uleb128 0x4
 12865 001e 2E       		.uleb128 0x2e
 12866 001f 01       		.byte	0x1
 12867 0020 3F       		.uleb128 0x3f
 12868 0021 19       		.uleb128 0x19
 12869 0022 03       		.uleb128 0x3
 12870 0023 0E       		.uleb128 0xe
 12871 0024 3A       		.uleb128 0x3a
 12872 0025 0B       		.uleb128 0xb
 12873 0026 3B       		.uleb128 0x3b
 12874 0027 05       		.uleb128 0x5
 12875 0028 39       		.uleb128 0x39
 12876 0029 0B       		.uleb128 0xb
 12877 002a 6E       		.uleb128 0x6e
 12878 002b 08       		.uleb128 0x8
 12879 002c 49       		.uleb128 0x49
 12880 002d 13       		.uleb128 0x13
 12881 002e 32       		.uleb128 0x32
 12882 002f 0B       		.uleb128 0xb
 12883 0030 3C       		.uleb128 0x3c
 12884 0031 19       		.uleb128 0x19
 12885 0032 64       		.uleb128 0x64
 12886 0033 13       		.uleb128 0x13
 12887 0034 01       		.uleb128 0x1
 12888 0035 13       		.uleb128 0x13
 12889 0036 00       		.byte	0
 12890 0037 00       		.byte	0
 12891 0038 05       		.uleb128 0x5
 12892 0039 2E       		.uleb128 0x2e
 12893 003a 01       		.byte	0x1
 12894 003b 3F       		.uleb128 0x3f
 12895 003c 19       		.uleb128 0x19
 12896 003d 03       		.uleb128 0x3
 12897 003e 08       		.uleb128 0x8
 12898 003f 3A       		.uleb128 0x3a
 12899 0040 0B       		.uleb128 0xb
GAS LISTING C:\Users\Ilya\AppData\Local\Temp\ccxaKDG8.s 			page 313


 12900 0041 3B       		.uleb128 0x3b
 12901 0042 05       		.uleb128 0x5
 12902 0043 39       		.uleb128 0x39
 12903 0044 0B       		.uleb128 0xb
 12904 0045 49       		.uleb128 0x49
 12905 0046 13       		.uleb128 0x13
 12906 0047 3C       		.uleb128 0x3c
 12907 0048 19       		.uleb128 0x19
 12908 0049 01       		.uleb128 0x1
 12909 004a 13       		.uleb128 0x13
 12910 004b 00       		.byte	0
 12911 004c 00       		.byte	0
 12912 004d 06       		.uleb128 0x6
 12913 004e 0F       		.uleb128 0xf
 12914 004f 00       		.byte	0
 12915 0050 0B       		.uleb128 0xb
 12916 0051 0B       		.uleb128 0xb
 12917 0052 49       		.uleb128 0x49
 12918 0053 13       		.uleb128 0x13
 12919 0054 00       		.byte	0
 12920 0055 00       		.byte	0
 12921 0056 07       		.uleb128 0x7
 12922 0057 26       		.uleb128 0x26
 12923 0058 00       		.byte	0
 12924 0059 49       		.uleb128 0x49
 12925 005a 13       		.uleb128 0x13
 12926 005b 00       		.byte	0
 12927 005c 00       		.byte	0
 12928 005d 08       		.uleb128 0x8
 12929 005e 10       		.uleb128 0x10
 12930 005f 00       		.byte	0
 12931 0060 0B       		.uleb128 0xb
 12932 0061 0B       		.uleb128 0xb
 12933 0062 49       		.uleb128 0x49
 12934 0063 13       		.uleb128 0x13
 12935 0064 00       		.byte	0
 12936 0065 00       		.byte	0
 12937 0066 09       		.uleb128 0x9
 12938 0067 0D       		.uleb128 0xd
 12939 0068 00       		.byte	0
 12940 0069 03       		.uleb128 0x3
 12941 006a 08       		.uleb128 0x8
 12942 006b 3A       		.uleb128 0x3a
 12943 006c 0B       		.uleb128 0xb
 12944 006d 3B       		.uleb128 0x3b
 12945 006e 0B       		.uleb128 0xb
 12946 006f 39       		.uleb128 0x39
 12947 0070 0B       		.uleb128 0xb
 12948 0071 49       		.uleb128 0x49
 12949 0072 13       		.uleb128 0x13
 12950 0073 38       		.uleb128 0x38
 12951 0074 0B       		.uleb128 0xb
 12952 0075 00       		.byte	0
 12953 0076 00       		.byte	0
 12954 0077 0A       		.uleb128 0xa
 12955 0078 16       		.uleb128 0x16
 12956 0079 00       		.byte	0
GAS LISTING C:\Users\Ilya\AppData\Local\Temp\ccxaKDG8.s 			page 314


 12957 007a 03       		.uleb128 0x3
 12958 007b 08       		.uleb128 0x8
 12959 007c 3A       		.uleb128 0x3a
 12960 007d 0B       		.uleb128 0xb
 12961 007e 3B       		.uleb128 0x3b
 12962 007f 0B       		.uleb128 0xb
 12963 0080 39       		.uleb128 0x39
 12964 0081 0B       		.uleb128 0xb
 12965 0082 49       		.uleb128 0x49
 12966 0083 13       		.uleb128 0x13
 12967 0084 00       		.byte	0
 12968 0085 00       		.byte	0
 12969 0086 0B       		.uleb128 0xb
 12970 0087 2E       		.uleb128 0x2e
 12971 0088 01       		.byte	0x1
 12972 0089 3F       		.uleb128 0x3f
 12973 008a 19       		.uleb128 0x19
 12974 008b 03       		.uleb128 0x3
 12975 008c 08       		.uleb128 0x8
 12976 008d 3A       		.uleb128 0x3a
 12977 008e 0B       		.uleb128 0xb
 12978 008f 3B       		.uleb128 0x3b
 12979 0090 05       		.uleb128 0x5
 12980 0091 39       		.uleb128 0x39
 12981 0092 0B       		.uleb128 0xb
 12982 0093 6E       		.uleb128 0x6e
 12983 0094 08       		.uleb128 0x8
 12984 0095 49       		.uleb128 0x49
 12985 0096 13       		.uleb128 0x13
 12986 0097 32       		.uleb128 0x32
 12987 0098 0B       		.uleb128 0xb
 12988 0099 3C       		.uleb128 0x3c
 12989 009a 19       		.uleb128 0x19
 12990 009b 64       		.uleb128 0x64
 12991 009c 13       		.uleb128 0x13
 12992 009d 01       		.uleb128 0x1
 12993 009e 13       		.uleb128 0x13
 12994 009f 00       		.byte	0
 12995 00a0 00       		.byte	0
 12996 00a1 0C       		.uleb128 0xc
 12997 00a2 2E       		.uleb128 0x2e
 12998 00a3 01       		.byte	0x1
 12999 00a4 3F       		.uleb128 0x3f
 13000 00a5 19       		.uleb128 0x19
 13001 00a6 03       		.uleb128 0x3
 13002 00a7 0E       		.uleb128 0xe
 13003 00a8 3A       		.uleb128 0x3a
 13004 00a9 0B       		.uleb128 0xb
 13005 00aa 3B       		.uleb128 0x3b
 13006 00ab 05       		.uleb128 0x5
 13007 00ac 39       		.uleb128 0x39
 13008 00ad 0B       		.uleb128 0xb
 13009 00ae 6E       		.uleb128 0x6e
 13010 00af 08       		.uleb128 0x8
 13011 00b0 32       		.uleb128 0x32
 13012 00b1 0B       		.uleb128 0xb
 13013 00b2 3C       		.uleb128 0x3c
GAS LISTING C:\Users\Ilya\AppData\Local\Temp\ccxaKDG8.s 			page 315


 13014 00b3 19       		.uleb128 0x19
 13015 00b4 64       		.uleb128 0x64
 13016 00b5 13       		.uleb128 0x13
 13017 00b6 01       		.uleb128 0x1
 13018 00b7 13       		.uleb128 0x13
 13019 00b8 00       		.byte	0
 13020 00b9 00       		.byte	0
 13021 00ba 0D       		.uleb128 0xd
 13022 00bb 2E       		.uleb128 0x2e
 13023 00bc 01       		.byte	0x1
 13024 00bd 03       		.uleb128 0x3
 13025 00be 08       		.uleb128 0x8
 13026 00bf 3A       		.uleb128 0x3a
 13027 00c0 0B       		.uleb128 0xb
 13028 00c1 3B       		.uleb128 0x3b
 13029 00c2 05       		.uleb128 0x5
 13030 00c3 39       		.uleb128 0x39
 13031 00c4 0B       		.uleb128 0xb
 13032 00c5 49       		.uleb128 0x49
 13033 00c6 13       		.uleb128 0x13
 13034 00c7 3C       		.uleb128 0x3c
 13035 00c8 19       		.uleb128 0x19
 13036 00c9 01       		.uleb128 0x1
 13037 00ca 13       		.uleb128 0x13
 13038 00cb 00       		.byte	0
 13039 00cc 00       		.byte	0
 13040 00cd 0E       		.uleb128 0xe
 13041 00ce 16       		.uleb128 0x16
 13042 00cf 00       		.byte	0
 13043 00d0 03       		.uleb128 0x3
 13044 00d1 0E       		.uleb128 0xe
 13045 00d2 3A       		.uleb128 0x3a
 13046 00d3 0B       		.uleb128 0xb
 13047 00d4 3B       		.uleb128 0x3b
 13048 00d5 0B       		.uleb128 0xb
 13049 00d6 39       		.uleb128 0x39
 13050 00d7 0B       		.uleb128 0xb
 13051 00d8 49       		.uleb128 0x49
 13052 00d9 13       		.uleb128 0x13
 13053 00da 32       		.uleb128 0x32
 13054 00db 0B       		.uleb128 0xb
 13055 00dc 00       		.byte	0
 13056 00dd 00       		.byte	0
 13057 00de 0F       		.uleb128 0xf
 13058 00df 2E       		.uleb128 0x2e
 13059 00e0 01       		.byte	0x1
 13060 00e1 3F       		.uleb128 0x3f
 13061 00e2 19       		.uleb128 0x19
 13062 00e3 03       		.uleb128 0x3
 13063 00e4 0E       		.uleb128 0xe
 13064 00e5 3A       		.uleb128 0x3a
 13065 00e6 0B       		.uleb128 0xb
 13066 00e7 3B       		.uleb128 0x3b
 13067 00e8 0B       		.uleb128 0xb
 13068 00e9 39       		.uleb128 0x39
 13069 00ea 0B       		.uleb128 0xb
 13070 00eb 6E       		.uleb128 0x6e
GAS LISTING C:\Users\Ilya\AppData\Local\Temp\ccxaKDG8.s 			page 316


 13071 00ec 08       		.uleb128 0x8
 13072 00ed 32       		.uleb128 0x32
 13073 00ee 0B       		.uleb128 0xb
 13074 00ef 3C       		.uleb128 0x3c
 13075 00f0 19       		.uleb128 0x19
 13076 00f1 64       		.uleb128 0x64
 13077 00f2 13       		.uleb128 0x13
 13078 00f3 01       		.uleb128 0x1
 13079 00f4 13       		.uleb128 0x13
 13080 00f5 00       		.byte	0
 13081 00f6 00       		.byte	0
 13082 00f7 10       		.uleb128 0x10
 13083 00f8 16       		.uleb128 0x16
 13084 00f9 00       		.byte	0
 13085 00fa 03       		.uleb128 0x3
 13086 00fb 0E       		.uleb128 0xe
 13087 00fc 3A       		.uleb128 0x3a
 13088 00fd 0B       		.uleb128 0xb
 13089 00fe 3B       		.uleb128 0x3b
 13090 00ff 0B       		.uleb128 0xb
 13091 0100 39       		.uleb128 0x39
 13092 0101 0B       		.uleb128 0xb
 13093 0102 49       		.uleb128 0x49
 13094 0103 13       		.uleb128 0x13
 13095 0104 00       		.byte	0
 13096 0105 00       		.byte	0
 13097 0106 11       		.uleb128 0x11
 13098 0107 24       		.uleb128 0x24
 13099 0108 00       		.byte	0
 13100 0109 0B       		.uleb128 0xb
 13101 010a 0B       		.uleb128 0xb
 13102 010b 3E       		.uleb128 0x3e
 13103 010c 0B       		.uleb128 0xb
 13104 010d 03       		.uleb128 0x3
 13105 010e 08       		.uleb128 0x8
 13106 010f 00       		.byte	0
 13107 0110 00       		.byte	0
 13108 0111 12       		.uleb128 0x12
 13109 0112 2F       		.uleb128 0x2f
 13110 0113 00       		.byte	0
 13111 0114 03       		.uleb128 0x3
 13112 0115 0E       		.uleb128 0xe
 13113 0116 49       		.uleb128 0x49
 13114 0117 13       		.uleb128 0x13
 13115 0118 00       		.byte	0
 13116 0119 00       		.byte	0
 13117 011a 13       		.uleb128 0x13
 13118 011b 08       		.uleb128 0x8
 13119 011c 00       		.byte	0
 13120 011d 3A       		.uleb128 0x3a
 13121 011e 0B       		.uleb128 0xb
 13122 011f 3B       		.uleb128 0x3b
 13123 0120 05       		.uleb128 0x5
 13124 0121 39       		.uleb128 0x39
 13125 0122 0B       		.uleb128 0xb
 13126 0123 18       		.uleb128 0x18
 13127 0124 13       		.uleb128 0x13
GAS LISTING C:\Users\Ilya\AppData\Local\Temp\ccxaKDG8.s 			page 317


 13128 0125 00       		.byte	0
 13129 0126 00       		.byte	0
 13130 0127 14       		.uleb128 0x14
 13131 0128 2E       		.uleb128 0x2e
 13132 0129 01       		.byte	0x1
 13133 012a 3F       		.uleb128 0x3f
 13134 012b 19       		.uleb128 0x19
 13135 012c 03       		.uleb128 0x3
 13136 012d 0E       		.uleb128 0xe
 13137 012e 3A       		.uleb128 0x3a
 13138 012f 0B       		.uleb128 0xb
 13139 0130 3B       		.uleb128 0x3b
 13140 0131 0B       		.uleb128 0xb
 13141 0132 39       		.uleb128 0x39
 13142 0133 0B       		.uleb128 0xb
 13143 0134 6E       		.uleb128 0x6e
 13144 0135 08       		.uleb128 0x8
 13145 0136 49       		.uleb128 0x49
 13146 0137 13       		.uleb128 0x13
 13147 0138 32       		.uleb128 0x32
 13148 0139 0B       		.uleb128 0xb
 13149 013a 3C       		.uleb128 0x3c
 13150 013b 19       		.uleb128 0x19
 13151 013c 64       		.uleb128 0x64
 13152 013d 13       		.uleb128 0x13
 13153 013e 01       		.uleb128 0x1
 13154 013f 13       		.uleb128 0x13
 13155 0140 00       		.byte	0
 13156 0141 00       		.byte	0
 13157 0142 15       		.uleb128 0x15
 13158 0143 13       		.uleb128 0x13
 13159 0144 01       		.byte	0x1
 13160 0145 03       		.uleb128 0x3
 13161 0146 08       		.uleb128 0x8
 13162 0147 0B       		.uleb128 0xb
 13163 0148 0B       		.uleb128 0xb
 13164 0149 3A       		.uleb128 0x3a
 13165 014a 0B       		.uleb128 0xb
 13166 014b 3B       		.uleb128 0x3b
 13167 014c 0B       		.uleb128 0xb
 13168 014d 39       		.uleb128 0x39
 13169 014e 0B       		.uleb128 0xb
 13170 014f 01       		.uleb128 0x1
 13171 0150 13       		.uleb128 0x13
 13172 0151 00       		.byte	0
 13173 0152 00       		.byte	0
 13174 0153 16       		.uleb128 0x16
 13175 0154 2F       		.uleb128 0x2f
 13176 0155 00       		.byte	0
 13177 0156 03       		.uleb128 0x3
 13178 0157 08       		.uleb128 0x8
 13179 0158 49       		.uleb128 0x49
 13180 0159 13       		.uleb128 0x13
 13181 015a 00       		.byte	0
 13182 015b 00       		.byte	0
 13183 015c 17       		.uleb128 0x17
 13184 015d 2E       		.uleb128 0x2e
GAS LISTING C:\Users\Ilya\AppData\Local\Temp\ccxaKDG8.s 			page 318


 13185 015e 01       		.byte	0x1
 13186 015f 3F       		.uleb128 0x3f
 13187 0160 19       		.uleb128 0x19
 13188 0161 03       		.uleb128 0x3
 13189 0162 08       		.uleb128 0x8
 13190 0163 3A       		.uleb128 0x3a
 13191 0164 0B       		.uleb128 0xb
 13192 0165 3B       		.uleb128 0x3b
 13193 0166 05       		.uleb128 0x5
 13194 0167 39       		.uleb128 0x39
 13195 0168 0B       		.uleb128 0xb
 13196 0169 6E       		.uleb128 0x6e
 13197 016a 08       		.uleb128 0x8
 13198 016b 32       		.uleb128 0x32
 13199 016c 0B       		.uleb128 0xb
 13200 016d 3C       		.uleb128 0x3c
 13201 016e 19       		.uleb128 0x19
 13202 016f 64       		.uleb128 0x64
 13203 0170 13       		.uleb128 0x13
 13204 0171 01       		.uleb128 0x1
 13205 0172 13       		.uleb128 0x13
 13206 0173 00       		.byte	0
 13207 0174 00       		.byte	0
 13208 0175 18       		.uleb128 0x18
 13209 0176 16       		.uleb128 0x16
 13210 0177 00       		.byte	0
 13211 0178 03       		.uleb128 0x3
 13212 0179 0E       		.uleb128 0xe
 13213 017a 3A       		.uleb128 0x3a
 13214 017b 0B       		.uleb128 0xb
 13215 017c 3B       		.uleb128 0x3b
 13216 017d 05       		.uleb128 0x5
 13217 017e 39       		.uleb128 0x39
 13218 017f 0B       		.uleb128 0xb
 13219 0180 49       		.uleb128 0x49
 13220 0181 13       		.uleb128 0x13
 13221 0182 32       		.uleb128 0x32
 13222 0183 0B       		.uleb128 0xb
 13223 0184 00       		.byte	0
 13224 0185 00       		.byte	0
 13225 0186 19       		.uleb128 0x19
 13226 0187 16       		.uleb128 0x16
 13227 0188 00       		.byte	0
 13228 0189 03       		.uleb128 0x3
 13229 018a 0E       		.uleb128 0xe
 13230 018b 3A       		.uleb128 0x3a
 13231 018c 0B       		.uleb128 0xb
 13232 018d 3B       		.uleb128 0x3b
 13233 018e 05       		.uleb128 0x5
 13234 018f 39       		.uleb128 0x39
 13235 0190 0B       		.uleb128 0xb
 13236 0191 49       		.uleb128 0x49
 13237 0192 13       		.uleb128 0x13
 13238 0193 00       		.byte	0
 13239 0194 00       		.byte	0
 13240 0195 1A       		.uleb128 0x1a
 13241 0196 2E       		.uleb128 0x2e
GAS LISTING C:\Users\Ilya\AppData\Local\Temp\ccxaKDG8.s 			page 319


 13242 0197 01       		.byte	0x1
 13243 0198 3F       		.uleb128 0x3f
 13244 0199 19       		.uleb128 0x19
 13245 019a 03       		.uleb128 0x3
 13246 019b 0E       		.uleb128 0xe
 13247 019c 3A       		.uleb128 0x3a
 13248 019d 0B       		.uleb128 0xb
 13249 019e 3B       		.uleb128 0x3b
 13250 019f 05       		.uleb128 0x5
 13251 01a0 39       		.uleb128 0x39
 13252 01a1 0B       		.uleb128 0xb
 13253 01a2 6E       		.uleb128 0x6e
 13254 01a3 08       		.uleb128 0x8
 13255 01a4 49       		.uleb128 0x49
 13256 01a5 13       		.uleb128 0x13
 13257 01a6 3C       		.uleb128 0x3c
 13258 01a7 19       		.uleb128 0x19
 13259 01a8 01       		.uleb128 0x1
 13260 01a9 13       		.uleb128 0x13
 13261 01aa 00       		.byte	0
 13262 01ab 00       		.byte	0
 13263 01ac 1B       		.uleb128 0x1b
 13264 01ad 18       		.uleb128 0x18
 13265 01ae 00       		.byte	0
 13266 01af 00       		.byte	0
 13267 01b0 00       		.byte	0
 13268 01b1 1C       		.uleb128 0x1c
 13269 01b2 2E       		.uleb128 0x2e
 13270 01b3 01       		.byte	0x1
 13271 01b4 3F       		.uleb128 0x3f
 13272 01b5 19       		.uleb128 0x19
 13273 01b6 03       		.uleb128 0x3
 13274 01b7 08       		.uleb128 0x8
 13275 01b8 3A       		.uleb128 0x3a
 13276 01b9 0B       		.uleb128 0xb
 13277 01ba 3B       		.uleb128 0x3b
 13278 01bb 05       		.uleb128 0x5
 13279 01bc 39       		.uleb128 0x39
 13280 01bd 0B       		.uleb128 0xb
 13281 01be 6E       		.uleb128 0x6e
 13282 01bf 08       		.uleb128 0x8
 13283 01c0 49       		.uleb128 0x49
 13284 01c1 13       		.uleb128 0x13
 13285 01c2 3C       		.uleb128 0x3c
 13286 01c3 19       		.uleb128 0x19
 13287 01c4 01       		.uleb128 0x1
 13288 01c5 13       		.uleb128 0x13
 13289 01c6 00       		.byte	0
 13290 01c7 00       		.byte	0
 13291 01c8 1D       		.uleb128 0x1d
 13292 01c9 0D       		.uleb128 0xd
 13293 01ca 00       		.byte	0
 13294 01cb 03       		.uleb128 0x3
 13295 01cc 08       		.uleb128 0x8
 13296 01cd 3A       		.uleb128 0x3a
 13297 01ce 0B       		.uleb128 0xb
 13298 01cf 3B       		.uleb128 0x3b
GAS LISTING C:\Users\Ilya\AppData\Local\Temp\ccxaKDG8.s 			page 320


 13299 01d0 05       		.uleb128 0x5
 13300 01d1 39       		.uleb128 0x39
 13301 01d2 0B       		.uleb128 0xb
 13302 01d3 49       		.uleb128 0x49
 13303 01d4 13       		.uleb128 0x13
 13304 01d5 38       		.uleb128 0x38
 13305 01d6 0B       		.uleb128 0xb
 13306 01d7 00       		.byte	0
 13307 01d8 00       		.byte	0
 13308 01d9 1E       		.uleb128 0x1e
 13309 01da 42       		.uleb128 0x42
 13310 01db 00       		.byte	0
 13311 01dc 0B       		.uleb128 0xb
 13312 01dd 0B       		.uleb128 0xb
 13313 01de 49       		.uleb128 0x49
 13314 01df 13       		.uleb128 0x13
 13315 01e0 00       		.byte	0
 13316 01e1 00       		.byte	0
 13317 01e2 1F       		.uleb128 0x1f
 13318 01e3 05       		.uleb128 0x5
 13319 01e4 00       		.byte	0
 13320 01e5 03       		.uleb128 0x3
 13321 01e6 0E       		.uleb128 0xe
 13322 01e7 49       		.uleb128 0x49
 13323 01e8 13       		.uleb128 0x13
 13324 01e9 34       		.uleb128 0x34
 13325 01ea 19       		.uleb128 0x19
 13326 01eb 00       		.byte	0
 13327 01ec 00       		.byte	0
 13328 01ed 20       		.uleb128 0x20
 13329 01ee 2E       		.uleb128 0x2e
 13330 01ef 01       		.byte	0x1
 13331 01f0 3F       		.uleb128 0x3f
 13332 01f1 19       		.uleb128 0x19
 13333 01f2 03       		.uleb128 0x3
 13334 01f3 0E       		.uleb128 0xe
 13335 01f4 3A       		.uleb128 0x3a
 13336 01f5 0B       		.uleb128 0xb
 13337 01f6 3B       		.uleb128 0x3b
 13338 01f7 05       		.uleb128 0x5
 13339 01f8 39       		.uleb128 0x39
 13340 01f9 0B       		.uleb128 0xb
 13341 01fa 6E       		.uleb128 0x6e
 13342 01fb 08       		.uleb128 0x8
 13343 01fc 3C       		.uleb128 0x3c
 13344 01fd 19       		.uleb128 0x19
 13345 01fe 64       		.uleb128 0x64
 13346 01ff 13       		.uleb128 0x13
 13347 0200 01       		.uleb128 0x1
 13348 0201 13       		.uleb128 0x13
 13349 0202 00       		.byte	0
 13350 0203 00       		.byte	0
 13351 0204 21       		.uleb128 0x21
 13352 0205 2E       		.uleb128 0x2e
 13353 0206 01       		.byte	0x1
 13354 0207 3F       		.uleb128 0x3f
 13355 0208 19       		.uleb128 0x19
GAS LISTING C:\Users\Ilya\AppData\Local\Temp\ccxaKDG8.s 			page 321


 13356 0209 03       		.uleb128 0x3
 13357 020a 0E       		.uleb128 0xe
 13358 020b 3A       		.uleb128 0x3a
 13359 020c 0B       		.uleb128 0xb
 13360 020d 3B       		.uleb128 0x3b
 13361 020e 0B       		.uleb128 0xb
 13362 020f 39       		.uleb128 0x39
 13363 0210 0B       		.uleb128 0xb
 13364 0211 6E       		.uleb128 0x6e
 13365 0212 08       		.uleb128 0x8
 13366 0213 3C       		.uleb128 0x3c
 13367 0214 19       		.uleb128 0x19
 13368 0215 64       		.uleb128 0x64
 13369 0216 13       		.uleb128 0x13
 13370 0217 01       		.uleb128 0x1
 13371 0218 13       		.uleb128 0x13
 13372 0219 00       		.byte	0
 13373 021a 00       		.byte	0
 13374 021b 22       		.uleb128 0x22
 13375 021c 2E       		.uleb128 0x2e
 13376 021d 00       		.byte	0
 13377 021e 3F       		.uleb128 0x3f
 13378 021f 19       		.uleb128 0x19
 13379 0220 03       		.uleb128 0x3
 13380 0221 0E       		.uleb128 0xe
 13381 0222 3A       		.uleb128 0x3a
 13382 0223 0B       		.uleb128 0xb
 13383 0224 3B       		.uleb128 0x3b
 13384 0225 0B       		.uleb128 0xb
 13385 0226 39       		.uleb128 0x39
 13386 0227 0B       		.uleb128 0xb
 13387 0228 6E       		.uleb128 0x6e
 13388 0229 08       		.uleb128 0x8
 13389 022a 49       		.uleb128 0x49
 13390 022b 13       		.uleb128 0x13
 13391 022c 3C       		.uleb128 0x3c
 13392 022d 19       		.uleb128 0x19
 13393 022e 00       		.byte	0
 13394 022f 00       		.byte	0
 13395 0230 23       		.uleb128 0x23
 13396 0231 2E       		.uleb128 0x2e
 13397 0232 01       		.byte	0x1
 13398 0233 3F       		.uleb128 0x3f
 13399 0234 19       		.uleb128 0x19
 13400 0235 03       		.uleb128 0x3
 13401 0236 08       		.uleb128 0x8
 13402 0237 3A       		.uleb128 0x3a
 13403 0238 0B       		.uleb128 0xb
 13404 0239 3B       		.uleb128 0x3b
 13405 023a 0B       		.uleb128 0xb
 13406 023b 39       		.uleb128 0x39
 13407 023c 0B       		.uleb128 0xb
 13408 023d 6E       		.uleb128 0x6e
 13409 023e 08       		.uleb128 0x8
 13410 023f 3C       		.uleb128 0x3c
 13411 0240 19       		.uleb128 0x19
 13412 0241 64       		.uleb128 0x64
GAS LISTING C:\Users\Ilya\AppData\Local\Temp\ccxaKDG8.s 			page 322


 13413 0242 13       		.uleb128 0x13
 13414 0243 01       		.uleb128 0x1
 13415 0244 13       		.uleb128 0x13
 13416 0245 00       		.byte	0
 13417 0246 00       		.byte	0
 13418 0247 24       		.uleb128 0x24
 13419 0248 16       		.uleb128 0x16
 13420 0249 00       		.byte	0
 13421 024a 03       		.uleb128 0x3
 13422 024b 08       		.uleb128 0x8
 13423 024c 3A       		.uleb128 0x3a
 13424 024d 0B       		.uleb128 0xb
 13425 024e 3B       		.uleb128 0x3b
 13426 024f 05       		.uleb128 0x5
 13427 0250 39       		.uleb128 0x39
 13428 0251 0B       		.uleb128 0xb
 13429 0252 49       		.uleb128 0x49
 13430 0253 13       		.uleb128 0x13
 13431 0254 00       		.byte	0
 13432 0255 00       		.byte	0
 13433 0256 25       		.uleb128 0x25
 13434 0257 02       		.uleb128 0x2
 13435 0258 00       		.byte	0
 13436 0259 03       		.uleb128 0x3
 13437 025a 08       		.uleb128 0x8
 13438 025b 3C       		.uleb128 0x3c
 13439 025c 19       		.uleb128 0x19
 13440 025d 00       		.byte	0
 13441 025e 00       		.byte	0
 13442 025f 26       		.uleb128 0x26
 13443 0260 2E       		.uleb128 0x2e
 13444 0261 01       		.byte	0x1
 13445 0262 3F       		.uleb128 0x3f
 13446 0263 19       		.uleb128 0x19
 13447 0264 03       		.uleb128 0x3
 13448 0265 08       		.uleb128 0x8
 13449 0266 3A       		.uleb128 0x3a
 13450 0267 0B       		.uleb128 0xb
 13451 0268 3B       		.uleb128 0x3b
 13452 0269 0B       		.uleb128 0xb
 13453 026a 39       		.uleb128 0x39
 13454 026b 0B       		.uleb128 0xb
 13455 026c 6E       		.uleb128 0x6e
 13456 026d 08       		.uleb128 0x8
 13457 026e 49       		.uleb128 0x49
 13458 026f 13       		.uleb128 0x13
 13459 0270 3C       		.uleb128 0x3c
 13460 0271 19       		.uleb128 0x19
 13461 0272 64       		.uleb128 0x64
 13462 0273 13       		.uleb128 0x13
 13463 0274 01       		.uleb128 0x1
 13464 0275 13       		.uleb128 0x13
 13465 0276 00       		.byte	0
 13466 0277 00       		.byte	0
 13467 0278 27       		.uleb128 0x27
 13468 0279 2E       		.uleb128 0x2e
 13469 027a 01       		.byte	0x1
GAS LISTING C:\Users\Ilya\AppData\Local\Temp\ccxaKDG8.s 			page 323


 13470 027b 3F       		.uleb128 0x3f
 13471 027c 19       		.uleb128 0x19
 13472 027d 03       		.uleb128 0x3
 13473 027e 08       		.uleb128 0x8
 13474 027f 3A       		.uleb128 0x3a
 13475 0280 0B       		.uleb128 0xb
 13476 0281 3B       		.uleb128 0x3b
 13477 0282 05       		.uleb128 0x5
 13478 0283 39       		.uleb128 0x39
 13479 0284 0B       		.uleb128 0xb
 13480 0285 6E       		.uleb128 0x6e
 13481 0286 08       		.uleb128 0x8
 13482 0287 3C       		.uleb128 0x3c
 13483 0288 19       		.uleb128 0x19
 13484 0289 64       		.uleb128 0x64
 13485 028a 13       		.uleb128 0x13
 13486 028b 01       		.uleb128 0x1
 13487 028c 13       		.uleb128 0x13
 13488 028d 00       		.byte	0
 13489 028e 00       		.byte	0
 13490 028f 28       		.uleb128 0x28
 13491 0290 02       		.uleb128 0x2
 13492 0291 01       		.byte	0x1
 13493 0292 03       		.uleb128 0x3
 13494 0293 08       		.uleb128 0x8
 13495 0294 0B       		.uleb128 0xb
 13496 0295 0B       		.uleb128 0xb
 13497 0296 3A       		.uleb128 0x3a
 13498 0297 0B       		.uleb128 0xb
 13499 0298 3B       		.uleb128 0x3b
 13500 0299 0B       		.uleb128 0xb
 13501 029a 39       		.uleb128 0x39
 13502 029b 0B       		.uleb128 0xb
 13503 029c 01       		.uleb128 0x1
 13504 029d 13       		.uleb128 0x13
 13505 029e 00       		.byte	0
 13506 029f 00       		.byte	0
 13507 02a0 29       		.uleb128 0x29
 13508 02a1 2E       		.uleb128 0x2e
 13509 02a2 01       		.byte	0x1
 13510 02a3 3F       		.uleb128 0x3f
 13511 02a4 19       		.uleb128 0x19
 13512 02a5 03       		.uleb128 0x3
 13513 02a6 0E       		.uleb128 0xe
 13514 02a7 3A       		.uleb128 0x3a
 13515 02a8 0B       		.uleb128 0xb
 13516 02a9 3B       		.uleb128 0x3b
 13517 02aa 05       		.uleb128 0x5
 13518 02ab 39       		.uleb128 0x39
 13519 02ac 0B       		.uleb128 0xb
 13520 02ad 6E       		.uleb128 0x6e
 13521 02ae 08       		.uleb128 0x8
 13522 02af 49       		.uleb128 0x49
 13523 02b0 13       		.uleb128 0x13
 13524 02b1 3C       		.uleb128 0x3c
 13525 02b2 19       		.uleb128 0x19
 13526 02b3 64       		.uleb128 0x64
GAS LISTING C:\Users\Ilya\AppData\Local\Temp\ccxaKDG8.s 			page 324


 13527 02b4 13       		.uleb128 0x13
 13528 02b5 01       		.uleb128 0x1
 13529 02b6 13       		.uleb128 0x13
 13530 02b7 00       		.byte	0
 13531 02b8 00       		.byte	0
 13532 02b9 2A       		.uleb128 0x2a
 13533 02ba 2E       		.uleb128 0x2e
 13534 02bb 01       		.byte	0x1
 13535 02bc 3F       		.uleb128 0x3f
 13536 02bd 19       		.uleb128 0x19
 13537 02be 03       		.uleb128 0x3
 13538 02bf 08       		.uleb128 0x8
 13539 02c0 3A       		.uleb128 0x3a
 13540 02c1 0B       		.uleb128 0xb
 13541 02c2 3B       		.uleb128 0x3b
 13542 02c3 05       		.uleb128 0x5
 13543 02c4 39       		.uleb128 0x39
 13544 02c5 0B       		.uleb128 0xb
 13545 02c6 6E       		.uleb128 0x6e
 13546 02c7 08       		.uleb128 0x8
 13547 02c8 49       		.uleb128 0x49
 13548 02c9 13       		.uleb128 0x13
 13549 02ca 3C       		.uleb128 0x3c
 13550 02cb 19       		.uleb128 0x19
 13551 02cc 64       		.uleb128 0x64
 13552 02cd 13       		.uleb128 0x13
 13553 02ce 01       		.uleb128 0x1
 13554 02cf 13       		.uleb128 0x13
 13555 02d0 00       		.byte	0
 13556 02d1 00       		.byte	0
 13557 02d2 2B       		.uleb128 0x2b
 13558 02d3 2E       		.uleb128 0x2e
 13559 02d4 01       		.byte	0x1
 13560 02d5 3F       		.uleb128 0x3f
 13561 02d6 19       		.uleb128 0x19
 13562 02d7 03       		.uleb128 0x3
 13563 02d8 0E       		.uleb128 0xe
 13564 02d9 3A       		.uleb128 0x3a
 13565 02da 0B       		.uleb128 0xb
 13566 02db 3B       		.uleb128 0x3b
 13567 02dc 05       		.uleb128 0x5
 13568 02dd 39       		.uleb128 0x39
 13569 02de 0B       		.uleb128 0xb
 13570 02df 6E       		.uleb128 0x6e
 13571 02e0 08       		.uleb128 0x8
 13572 02e1 3C       		.uleb128 0x3c
 13573 02e2 19       		.uleb128 0x19
 13574 02e3 01       		.uleb128 0x1
 13575 02e4 13       		.uleb128 0x13
 13576 02e5 00       		.byte	0
 13577 02e6 00       		.byte	0
 13578 02e7 2C       		.uleb128 0x2c
 13579 02e8 05       		.uleb128 0x5
 13580 02e9 00       		.byte	0
 13581 02ea 03       		.uleb128 0x3
 13582 02eb 08       		.uleb128 0x8
 13583 02ec 3A       		.uleb128 0x3a
GAS LISTING C:\Users\Ilya\AppData\Local\Temp\ccxaKDG8.s 			page 325


 13584 02ed 0B       		.uleb128 0xb
 13585 02ee 3B       		.uleb128 0x3b
 13586 02ef 05       		.uleb128 0x5
 13587 02f0 39       		.uleb128 0x39
 13588 02f1 0B       		.uleb128 0xb
 13589 02f2 49       		.uleb128 0x49
 13590 02f3 13       		.uleb128 0x13
 13591 02f4 02       		.uleb128 0x2
 13592 02f5 18       		.uleb128 0x18
 13593 02f6 00       		.byte	0
 13594 02f7 00       		.byte	0
 13595 02f8 2D       		.uleb128 0x2d
 13596 02f9 2E       		.uleb128 0x2e
 13597 02fa 01       		.byte	0x1
 13598 02fb 3F       		.uleb128 0x3f
 13599 02fc 19       		.uleb128 0x19
 13600 02fd 03       		.uleb128 0x3
 13601 02fe 0E       		.uleb128 0xe
 13602 02ff 3A       		.uleb128 0x3a
 13603 0300 0B       		.uleb128 0xb
 13604 0301 3B       		.uleb128 0x3b
 13605 0302 0B       		.uleb128 0xb
 13606 0303 39       		.uleb128 0x39
 13607 0304 0B       		.uleb128 0xb
 13608 0305 6E       		.uleb128 0x6e
 13609 0306 08       		.uleb128 0x8
 13610 0307 49       		.uleb128 0x49
 13611 0308 13       		.uleb128 0x13
 13612 0309 3C       		.uleb128 0x3c
 13613 030a 19       		.uleb128 0x19
 13614 030b 64       		.uleb128 0x64
 13615 030c 13       		.uleb128 0x13
 13616 030d 01       		.uleb128 0x1
 13617 030e 13       		.uleb128 0x13
 13618 030f 00       		.byte	0
 13619 0310 00       		.byte	0
 13620 0311 2E       		.uleb128 0x2e
 13621 0312 13       		.uleb128 0x13
 13622 0313 01       		.byte	0x1
 13623 0314 03       		.uleb128 0x3
 13624 0315 08       		.uleb128 0x8
 13625 0316 0B       		.uleb128 0xb
 13626 0317 0B       		.uleb128 0xb
 13627 0318 3A       		.uleb128 0x3a
 13628 0319 0B       		.uleb128 0xb
 13629 031a 3B       		.uleb128 0x3b
 13630 031b 05       		.uleb128 0x5
 13631 031c 39       		.uleb128 0x39
 13632 031d 0B       		.uleb128 0xb
 13633 031e 01       		.uleb128 0x1
 13634 031f 13       		.uleb128 0x13
 13635 0320 00       		.byte	0
 13636 0321 00       		.byte	0
 13637 0322 2F       		.uleb128 0x2f
 13638 0323 2E       		.uleb128 0x2e
 13639 0324 01       		.byte	0x1
 13640 0325 3F       		.uleb128 0x3f
GAS LISTING C:\Users\Ilya\AppData\Local\Temp\ccxaKDG8.s 			page 326


 13641 0326 19       		.uleb128 0x19
 13642 0327 03       		.uleb128 0x3
 13643 0328 08       		.uleb128 0x8
 13644 0329 3A       		.uleb128 0x3a
 13645 032a 0B       		.uleb128 0xb
 13646 032b 3B       		.uleb128 0x3b
 13647 032c 05       		.uleb128 0x5
 13648 032d 39       		.uleb128 0x39
 13649 032e 0B       		.uleb128 0xb
 13650 032f 3C       		.uleb128 0x3c
 13651 0330 19       		.uleb128 0x19
 13652 0331 01       		.uleb128 0x1
 13653 0332 13       		.uleb128 0x13
 13654 0333 00       		.byte	0
 13655 0334 00       		.byte	0
 13656 0335 30       		.uleb128 0x30
 13657 0336 28       		.uleb128 0x28
 13658 0337 00       		.byte	0
 13659 0338 03       		.uleb128 0x3
 13660 0339 08       		.uleb128 0x8
 13661 033a 1C       		.uleb128 0x1c
 13662 033b 0B       		.uleb128 0xb
 13663 033c 00       		.byte	0
 13664 033d 00       		.byte	0
 13665 033e 31       		.uleb128 0x31
 13666 033f 05       		.uleb128 0x5
 13667 0340 00       		.byte	0
 13668 0341 03       		.uleb128 0x3
 13669 0342 08       		.uleb128 0x8
 13670 0343 3A       		.uleb128 0x3a
 13671 0344 0B       		.uleb128 0xb
 13672 0345 3B       		.uleb128 0x3b
 13673 0346 0B       		.uleb128 0xb
 13674 0347 39       		.uleb128 0x39
 13675 0348 0B       		.uleb128 0xb
 13676 0349 49       		.uleb128 0x49
 13677 034a 13       		.uleb128 0x13
 13678 034b 02       		.uleb128 0x2
 13679 034c 18       		.uleb128 0x18
 13680 034d 00       		.byte	0
 13681 034e 00       		.byte	0
 13682 034f 32       		.uleb128 0x32
 13683 0350 05       		.uleb128 0x5
 13684 0351 00       		.byte	0
 13685 0352 31       		.uleb128 0x31
 13686 0353 13       		.uleb128 0x13
 13687 0354 02       		.uleb128 0x2
 13688 0355 18       		.uleb128 0x18
 13689 0356 00       		.byte	0
 13690 0357 00       		.byte	0
 13691 0358 33       		.uleb128 0x33
 13692 0359 1C       		.uleb128 0x1c
 13693 035a 00       		.byte	0
 13694 035b 49       		.uleb128 0x49
 13695 035c 13       		.uleb128 0x13
 13696 035d 38       		.uleb128 0x38
 13697 035e 0B       		.uleb128 0xb
GAS LISTING C:\Users\Ilya\AppData\Local\Temp\ccxaKDG8.s 			page 327


 13698 035f 00       		.byte	0
 13699 0360 00       		.byte	0
 13700 0361 34       		.uleb128 0x34
 13701 0362 2E       		.uleb128 0x2e
 13702 0363 01       		.byte	0x1
 13703 0364 3F       		.uleb128 0x3f
 13704 0365 19       		.uleb128 0x19
 13705 0366 03       		.uleb128 0x3
 13706 0367 0E       		.uleb128 0xe
 13707 0368 3A       		.uleb128 0x3a
 13708 0369 0B       		.uleb128 0xb
 13709 036a 3B       		.uleb128 0x3b
 13710 036b 05       		.uleb128 0x5
 13711 036c 39       		.uleb128 0x39
 13712 036d 0B       		.uleb128 0xb
 13713 036e 6E       		.uleb128 0x6e
 13714 036f 08       		.uleb128 0x8
 13715 0370 32       		.uleb128 0x32
 13716 0371 0B       		.uleb128 0xb
 13717 0372 3C       		.uleb128 0x3c
 13718 0373 19       		.uleb128 0x19
 13719 0374 63       		.uleb128 0x63
 13720 0375 19       		.uleb128 0x19
 13721 0376 64       		.uleb128 0x64
 13722 0377 13       		.uleb128 0x13
 13723 0378 01       		.uleb128 0x1
 13724 0379 13       		.uleb128 0x13
 13725 037a 00       		.byte	0
 13726 037b 00       		.byte	0
 13727 037c 35       		.uleb128 0x35
 13728 037d 2E       		.uleb128 0x2e
 13729 037e 01       		.byte	0x1
 13730 037f 3F       		.uleb128 0x3f
 13731 0380 19       		.uleb128 0x19
 13732 0381 03       		.uleb128 0x3
 13733 0382 08       		.uleb128 0x8
 13734 0383 3A       		.uleb128 0x3a
 13735 0384 0B       		.uleb128 0xb
 13736 0385 3B       		.uleb128 0x3b
 13737 0386 0B       		.uleb128 0xb
 13738 0387 39       		.uleb128 0x39
 13739 0388 0B       		.uleb128 0xb
 13740 0389 6E       		.uleb128 0x6e
 13741 038a 08       		.uleb128 0x8
 13742 038b 32       		.uleb128 0x32
 13743 038c 0B       		.uleb128 0xb
 13744 038d 3C       		.uleb128 0x3c
 13745 038e 19       		.uleb128 0x19
 13746 038f 64       		.uleb128 0x64
 13747 0390 13       		.uleb128 0x13
 13748 0391 01       		.uleb128 0x1
 13749 0392 13       		.uleb128 0x13
 13750 0393 00       		.byte	0
 13751 0394 00       		.byte	0
 13752 0395 36       		.uleb128 0x36
 13753 0396 2E       		.uleb128 0x2e
 13754 0397 01       		.byte	0x1
GAS LISTING C:\Users\Ilya\AppData\Local\Temp\ccxaKDG8.s 			page 328


 13755 0398 3F       		.uleb128 0x3f
 13756 0399 19       		.uleb128 0x19
 13757 039a 03       		.uleb128 0x3
 13758 039b 08       		.uleb128 0x8
 13759 039c 3A       		.uleb128 0x3a
 13760 039d 0B       		.uleb128 0xb
 13761 039e 3B       		.uleb128 0x3b
 13762 039f 0B       		.uleb128 0xb
 13763 03a0 39       		.uleb128 0x39
 13764 03a1 0B       		.uleb128 0xb
 13765 03a2 6E       		.uleb128 0x6e
 13766 03a3 08       		.uleb128 0x8
 13767 03a4 49       		.uleb128 0x49
 13768 03a5 13       		.uleb128 0x13
 13769 03a6 32       		.uleb128 0x32
 13770 03a7 0B       		.uleb128 0xb
 13771 03a8 3C       		.uleb128 0x3c
 13772 03a9 19       		.uleb128 0x19
 13773 03aa 64       		.uleb128 0x64
 13774 03ab 13       		.uleb128 0x13
 13775 03ac 01       		.uleb128 0x1
 13776 03ad 13       		.uleb128 0x13
 13777 03ae 00       		.byte	0
 13778 03af 00       		.byte	0
 13779 03b0 37       		.uleb128 0x37
 13780 03b1 2E       		.uleb128 0x2e
 13781 03b2 01       		.byte	0x1
 13782 03b3 3F       		.uleb128 0x3f
 13783 03b4 19       		.uleb128 0x19
 13784 03b5 03       		.uleb128 0x3
 13785 03b6 08       		.uleb128 0x8
 13786 03b7 3A       		.uleb128 0x3a
 13787 03b8 0B       		.uleb128 0xb
 13788 03b9 3B       		.uleb128 0x3b
 13789 03ba 0B       		.uleb128 0xb
 13790 03bb 39       		.uleb128 0x39
 13791 03bc 0B       		.uleb128 0xb
 13792 03bd 49       		.uleb128 0x49
 13793 03be 13       		.uleb128 0x13
 13794 03bf 3C       		.uleb128 0x3c
 13795 03c0 19       		.uleb128 0x19
 13796 03c1 01       		.uleb128 0x1
 13797 03c2 13       		.uleb128 0x13
 13798 03c3 00       		.byte	0
 13799 03c4 00       		.byte	0
 13800 03c5 38       		.uleb128 0x38
 13801 03c6 2E       		.uleb128 0x2e
 13802 03c7 01       		.byte	0x1
 13803 03c8 47       		.uleb128 0x47
 13804 03c9 13       		.uleb128 0x13
 13805 03ca 64       		.uleb128 0x64
 13806 03cb 13       		.uleb128 0x13
 13807 03cc 20       		.uleb128 0x20
 13808 03cd 0B       		.uleb128 0xb
 13809 03ce 01       		.uleb128 0x1
 13810 03cf 13       		.uleb128 0x13
 13811 03d0 00       		.byte	0
GAS LISTING C:\Users\Ilya\AppData\Local\Temp\ccxaKDG8.s 			page 329


 13812 03d1 00       		.byte	0
 13813 03d2 39       		.uleb128 0x39
 13814 03d3 13       		.uleb128 0x13
 13815 03d4 01       		.byte	0x1
 13816 03d5 03       		.uleb128 0x3
 13817 03d6 0E       		.uleb128 0xe
 13818 03d7 0B       		.uleb128 0xb
 13819 03d8 0B       		.uleb128 0xb
 13820 03d9 3A       		.uleb128 0x3a
 13821 03da 0B       		.uleb128 0xb
 13822 03db 3B       		.uleb128 0x3b
 13823 03dc 0B       		.uleb128 0xb
 13824 03dd 39       		.uleb128 0x39
 13825 03de 0B       		.uleb128 0xb
 13826 03df 01       		.uleb128 0x1
 13827 03e0 13       		.uleb128 0x13
 13828 03e1 00       		.byte	0
 13829 03e2 00       		.byte	0
 13830 03e3 3A       		.uleb128 0x3a
 13831 03e4 3A       		.uleb128 0x3a
 13832 03e5 00       		.byte	0
 13833 03e6 3A       		.uleb128 0x3a
 13834 03e7 0B       		.uleb128 0xb
 13835 03e8 3B       		.uleb128 0x3b
 13836 03e9 05       		.uleb128 0x5
 13837 03ea 39       		.uleb128 0x39
 13838 03eb 0B       		.uleb128 0xb
 13839 03ec 18       		.uleb128 0x18
 13840 03ed 13       		.uleb128 0x13
 13841 03ee 00       		.byte	0
 13842 03ef 00       		.byte	0
 13843 03f0 3B       		.uleb128 0x3b
 13844 03f1 1C       		.uleb128 0x1c
 13845 03f2 00       		.byte	0
 13846 03f3 49       		.uleb128 0x49
 13847 03f4 13       		.uleb128 0x13
 13848 03f5 38       		.uleb128 0x38
 13849 03f6 0B       		.uleb128 0xb
 13850 03f7 32       		.uleb128 0x32
 13851 03f8 0B       		.uleb128 0xb
 13852 03f9 00       		.byte	0
 13853 03fa 00       		.byte	0
 13854 03fb 3C       		.uleb128 0x3c
 13855 03fc 2E       		.uleb128 0x2e
 13856 03fd 01       		.byte	0x1
 13857 03fe 3F       		.uleb128 0x3f
 13858 03ff 19       		.uleb128 0x19
 13859 0400 03       		.uleb128 0x3
 13860 0401 0E       		.uleb128 0xe
 13861 0402 3A       		.uleb128 0x3a
 13862 0403 0B       		.uleb128 0xb
 13863 0404 3B       		.uleb128 0x3b
 13864 0405 0B       		.uleb128 0xb
 13865 0406 39       		.uleb128 0x39
 13866 0407 0B       		.uleb128 0xb
 13867 0408 6E       		.uleb128 0x6e
 13868 0409 08       		.uleb128 0x8
GAS LISTING C:\Users\Ilya\AppData\Local\Temp\ccxaKDG8.s 			page 330


 13869 040a 49       		.uleb128 0x49
 13870 040b 13       		.uleb128 0x13
 13871 040c 32       		.uleb128 0x32
 13872 040d 0B       		.uleb128 0xb
 13873 040e 3C       		.uleb128 0x3c
 13874 040f 19       		.uleb128 0x19
 13875 0410 8B01     		.uleb128 0x8b
 13876 0412 0B       		.uleb128 0xb
 13877 0413 64       		.uleb128 0x64
 13878 0414 13       		.uleb128 0x13
 13879 0415 01       		.uleb128 0x1
 13880 0416 13       		.uleb128 0x13
 13881 0417 00       		.byte	0
 13882 0418 00       		.byte	0
 13883 0419 3D       		.uleb128 0x3d
 13884 041a 2E       		.uleb128 0x2e
 13885 041b 00       		.byte	0
 13886 041c 3F       		.uleb128 0x3f
 13887 041d 19       		.uleb128 0x19
 13888 041e 03       		.uleb128 0x3
 13889 041f 08       		.uleb128 0x8
 13890 0420 3A       		.uleb128 0x3a
 13891 0421 0B       		.uleb128 0xb
 13892 0422 3B       		.uleb128 0x3b
 13893 0423 05       		.uleb128 0x5
 13894 0424 39       		.uleb128 0x39
 13895 0425 0B       		.uleb128 0xb
 13896 0426 49       		.uleb128 0x49
 13897 0427 13       		.uleb128 0x13
 13898 0428 3C       		.uleb128 0x3c
 13899 0429 19       		.uleb128 0x19
 13900 042a 00       		.byte	0
 13901 042b 00       		.byte	0
 13902 042c 3E       		.uleb128 0x3e
 13903 042d 2E       		.uleb128 0x2e
 13904 042e 01       		.byte	0x1
 13905 042f 03       		.uleb128 0x3
 13906 0430 0E       		.uleb128 0xe
 13907 0431 3A       		.uleb128 0x3a
 13908 0432 0B       		.uleb128 0xb
 13909 0433 3B       		.uleb128 0x3b
 13910 0434 0B       		.uleb128 0xb
 13911 0435 39       		.uleb128 0x39
 13912 0436 0B       		.uleb128 0xb
 13913 0437 49       		.uleb128 0x49
 13914 0438 13       		.uleb128 0x13
 13915 0439 3C       		.uleb128 0x3c
 13916 043a 19       		.uleb128 0x19
 13917 043b 01       		.uleb128 0x1
 13918 043c 13       		.uleb128 0x13
 13919 043d 00       		.byte	0
 13920 043e 00       		.byte	0
 13921 043f 3F       		.uleb128 0x3f
 13922 0440 2E       		.uleb128 0x2e
 13923 0441 01       		.byte	0x1
 13924 0442 31       		.uleb128 0x31
 13925 0443 13       		.uleb128 0x13
GAS LISTING C:\Users\Ilya\AppData\Local\Temp\ccxaKDG8.s 			page 331


 13926 0444 6E       		.uleb128 0x6e
 13927 0445 08       		.uleb128 0x8
 13928 0446 64       		.uleb128 0x64
 13929 0447 13       		.uleb128 0x13
 13930 0448 11       		.uleb128 0x11
 13931 0449 01       		.uleb128 0x1
 13932 044a 12       		.uleb128 0x12
 13933 044b 07       		.uleb128 0x7
 13934 044c 40       		.uleb128 0x40
 13935 044d 18       		.uleb128 0x18
 13936 044e 9642     		.uleb128 0x2116
 13937 0450 19       		.uleb128 0x19
 13938 0451 01       		.uleb128 0x1
 13939 0452 13       		.uleb128 0x13
 13940 0453 00       		.byte	0
 13941 0454 00       		.byte	0
 13942 0455 40       		.uleb128 0x40
 13943 0456 2E       		.uleb128 0x2e
 13944 0457 01       		.byte	0x1
 13945 0458 3F       		.uleb128 0x3f
 13946 0459 19       		.uleb128 0x19
 13947 045a 03       		.uleb128 0x3
 13948 045b 08       		.uleb128 0x8
 13949 045c 3A       		.uleb128 0x3a
 13950 045d 0B       		.uleb128 0xb
 13951 045e 3B       		.uleb128 0x3b
 13952 045f 05       		.uleb128 0x5
 13953 0460 39       		.uleb128 0x39
 13954 0461 0B       		.uleb128 0xb
 13955 0462 6E       		.uleb128 0x6e
 13956 0463 08       		.uleb128 0x8
 13957 0464 3C       		.uleb128 0x3c
 13958 0465 19       		.uleb128 0x19
 13959 0466 01       		.uleb128 0x1
 13960 0467 13       		.uleb128 0x13
 13961 0468 00       		.byte	0
 13962 0469 00       		.byte	0
 13963 046a 41       		.uleb128 0x41
 13964 046b 16       		.uleb128 0x16
 13965 046c 00       		.byte	0
 13966 046d 03       		.uleb128 0x3
 13967 046e 08       		.uleb128 0x8
 13968 046f 3A       		.uleb128 0x3a
 13969 0470 0B       		.uleb128 0xb
 13970 0471 3B       		.uleb128 0x3b
 13971 0472 0B       		.uleb128 0xb
 13972 0473 39       		.uleb128 0x39
 13973 0474 0B       		.uleb128 0xb
 13974 0475 49       		.uleb128 0x49
 13975 0476 13       		.uleb128 0x13
 13976 0477 32       		.uleb128 0x32
 13977 0478 0B       		.uleb128 0xb
 13978 0479 00       		.byte	0
 13979 047a 00       		.byte	0
 13980 047b 42       		.uleb128 0x42
 13981 047c 39       		.uleb128 0x39
 13982 047d 01       		.byte	0x1
GAS LISTING C:\Users\Ilya\AppData\Local\Temp\ccxaKDG8.s 			page 332


 13983 047e 03       		.uleb128 0x3
 13984 047f 08       		.uleb128 0x8
 13985 0480 3A       		.uleb128 0x3a
 13986 0481 0B       		.uleb128 0xb
 13987 0482 3B       		.uleb128 0x3b
 13988 0483 0B       		.uleb128 0xb
 13989 0484 39       		.uleb128 0x39
 13990 0485 0B       		.uleb128 0xb
 13991 0486 01       		.uleb128 0x1
 13992 0487 13       		.uleb128 0x13
 13993 0488 00       		.byte	0
 13994 0489 00       		.byte	0
 13995 048a 43       		.uleb128 0x43
 13996 048b 02       		.uleb128 0x2
 13997 048c 01       		.byte	0x1
 13998 048d 03       		.uleb128 0x3
 13999 048e 0E       		.uleb128 0xe
 14000 048f 0B       		.uleb128 0xb
 14001 0490 0B       		.uleb128 0xb
 14002 0491 3A       		.uleb128 0x3a
 14003 0492 0B       		.uleb128 0xb
 14004 0493 3B       		.uleb128 0x3b
 14005 0494 0B       		.uleb128 0xb
 14006 0495 39       		.uleb128 0x39
 14007 0496 0B       		.uleb128 0xb
 14008 0497 01       		.uleb128 0x1
 14009 0498 13       		.uleb128 0x13
 14010 0499 00       		.byte	0
 14011 049a 00       		.byte	0
 14012 049b 44       		.uleb128 0x44
 14013 049c 04       		.uleb128 0x4
 14014 049d 01       		.byte	0x1
 14015 049e 3E       		.uleb128 0x3e
 14016 049f 0B       		.uleb128 0xb
 14017 04a0 0B       		.uleb128 0xb
 14018 04a1 0B       		.uleb128 0xb
 14019 04a2 49       		.uleb128 0x49
 14020 04a3 13       		.uleb128 0x13
 14021 04a4 3A       		.uleb128 0x3a
 14022 04a5 0B       		.uleb128 0xb
 14023 04a6 3B       		.uleb128 0x3b
 14024 04a7 0B       		.uleb128 0xb
 14025 04a8 39       		.uleb128 0x39
 14026 04a9 0B       		.uleb128 0xb
 14027 04aa 01       		.uleb128 0x1
 14028 04ab 13       		.uleb128 0x13
 14029 04ac 00       		.byte	0
 14030 04ad 00       		.byte	0
 14031 04ae 45       		.uleb128 0x45
 14032 04af 28       		.uleb128 0x28
 14033 04b0 00       		.byte	0
 14034 04b1 03       		.uleb128 0x3
 14035 04b2 0E       		.uleb128 0xe
 14036 04b3 1C       		.uleb128 0x1c
 14037 04b4 0B       		.uleb128 0xb
 14038 04b5 00       		.byte	0
 14039 04b6 00       		.byte	0
GAS LISTING C:\Users\Ilya\AppData\Local\Temp\ccxaKDG8.s 			page 333


 14040 04b7 46       		.uleb128 0x46
 14041 04b8 3A       		.uleb128 0x3a
 14042 04b9 00       		.byte	0
 14043 04ba 3A       		.uleb128 0x3a
 14044 04bb 0B       		.uleb128 0xb
 14045 04bc 3B       		.uleb128 0x3b
 14046 04bd 0B       		.uleb128 0xb
 14047 04be 39       		.uleb128 0x39
 14048 04bf 0B       		.uleb128 0xb
 14049 04c0 18       		.uleb128 0x18
 14050 04c1 13       		.uleb128 0x13
 14051 04c2 00       		.byte	0
 14052 04c3 00       		.byte	0
 14053 04c4 47       		.uleb128 0x47
 14054 04c5 2E       		.uleb128 0x2e
 14055 04c6 01       		.byte	0x1
 14056 04c7 3F       		.uleb128 0x3f
 14057 04c8 19       		.uleb128 0x19
 14058 04c9 03       		.uleb128 0x3
 14059 04ca 08       		.uleb128 0x8
 14060 04cb 3A       		.uleb128 0x3a
 14061 04cc 0B       		.uleb128 0xb
 14062 04cd 3B       		.uleb128 0x3b
 14063 04ce 0B       		.uleb128 0xb
 14064 04cf 39       		.uleb128 0x39
 14065 04d0 0B       		.uleb128 0xb
 14066 04d1 6E       		.uleb128 0x6e
 14067 04d2 08       		.uleb128 0x8
 14068 04d3 3C       		.uleb128 0x3c
 14069 04d4 19       		.uleb128 0x19
 14070 04d5 64       		.uleb128 0x64
 14071 04d6 13       		.uleb128 0x13
 14072 04d7 00       		.byte	0
 14073 04d8 00       		.byte	0
 14074 04d9 48       		.uleb128 0x48
 14075 04da 02       		.uleb128 0x2
 14076 04db 01       		.byte	0x1
 14077 04dc 03       		.uleb128 0x3
 14078 04dd 08       		.uleb128 0x8
 14079 04de 0B       		.uleb128 0xb
 14080 04df 0B       		.uleb128 0xb
 14081 04e0 3A       		.uleb128 0x3a
 14082 04e1 0B       		.uleb128 0xb
 14083 04e2 3B       		.uleb128 0x3b
 14084 04e3 05       		.uleb128 0x5
 14085 04e4 39       		.uleb128 0x39
 14086 04e5 0B       		.uleb128 0xb
 14087 04e6 01       		.uleb128 0x1
 14088 04e7 13       		.uleb128 0x13
 14089 04e8 00       		.byte	0
 14090 04e9 00       		.byte	0
 14091 04ea 49       		.uleb128 0x49
 14092 04eb 05       		.uleb128 0x5
 14093 04ec 00       		.byte	0
 14094 04ed 03       		.uleb128 0x3
 14095 04ee 0E       		.uleb128 0xe
 14096 04ef 49       		.uleb128 0x49
GAS LISTING C:\Users\Ilya\AppData\Local\Temp\ccxaKDG8.s 			page 334


 14097 04f0 13       		.uleb128 0x13
 14098 04f1 34       		.uleb128 0x34
 14099 04f2 19       		.uleb128 0x19
 14100 04f3 02       		.uleb128 0x2
 14101 04f4 18       		.uleb128 0x18
 14102 04f5 00       		.byte	0
 14103 04f6 00       		.byte	0
 14104 04f7 4A       		.uleb128 0x4a
 14105 04f8 05       		.uleb128 0x5
 14106 04f9 00       		.byte	0
 14107 04fa 49       		.uleb128 0x49
 14108 04fb 13       		.uleb128 0x13
 14109 04fc 02       		.uleb128 0x2
 14110 04fd 18       		.uleb128 0x18
 14111 04fe 00       		.byte	0
 14112 04ff 00       		.byte	0
 14113 0500 4B       		.uleb128 0x4b
 14114 0501 2E       		.uleb128 0x2e
 14115 0502 01       		.byte	0x1
 14116 0503 47       		.uleb128 0x47
 14117 0504 13       		.uleb128 0x13
 14118 0505 11       		.uleb128 0x11
 14119 0506 01       		.uleb128 0x1
 14120 0507 12       		.uleb128 0x12
 14121 0508 07       		.uleb128 0x7
 14122 0509 40       		.uleb128 0x40
 14123 050a 18       		.uleb128 0x18
 14124 050b 9642     		.uleb128 0x2116
 14125 050d 19       		.uleb128 0x19
 14126 050e 01       		.uleb128 0x1
 14127 050f 13       		.uleb128 0x13
 14128 0510 00       		.byte	0
 14129 0511 00       		.byte	0
 14130 0512 4C       		.uleb128 0x4c
 14131 0513 34       		.uleb128 0x34
 14132 0514 00       		.byte	0
 14133 0515 03       		.uleb128 0x3
 14134 0516 08       		.uleb128 0x8
 14135 0517 3A       		.uleb128 0x3a
 14136 0518 0B       		.uleb128 0xb
 14137 0519 3B       		.uleb128 0x3b
 14138 051a 0B       		.uleb128 0xb
 14139 051b 39       		.uleb128 0x39
 14140 051c 0B       		.uleb128 0xb
 14141 051d 49       		.uleb128 0x49
 14142 051e 13       		.uleb128 0x13
 14143 051f 02       		.uleb128 0x2
 14144 0520 18       		.uleb128 0x18
 14145 0521 00       		.byte	0
 14146 0522 00       		.byte	0
 14147 0523 4D       		.uleb128 0x4d
 14148 0524 39       		.uleb128 0x39
 14149 0525 01       		.byte	0x1
 14150 0526 03       		.uleb128 0x3
 14151 0527 08       		.uleb128 0x8
 14152 0528 3A       		.uleb128 0x3a
 14153 0529 0B       		.uleb128 0xb
GAS LISTING C:\Users\Ilya\AppData\Local\Temp\ccxaKDG8.s 			page 335


 14154 052a 3B       		.uleb128 0x3b
 14155 052b 05       		.uleb128 0x5
 14156 052c 39       		.uleb128 0x39
 14157 052d 0B       		.uleb128 0xb
 14158 052e 8901     		.uleb128 0x89
 14159 0530 19       		.uleb128 0x19
 14160 0531 01       		.uleb128 0x1
 14161 0532 13       		.uleb128 0x13
 14162 0533 00       		.byte	0
 14163 0534 00       		.byte	0
 14164 0535 4E       		.uleb128 0x4e
 14165 0536 0D       		.uleb128 0xd
 14166 0537 00       		.byte	0
 14167 0538 03       		.uleb128 0x3
 14168 0539 08       		.uleb128 0x8
 14169 053a 3A       		.uleb128 0x3a
 14170 053b 0B       		.uleb128 0xb
 14171 053c 3B       		.uleb128 0x3b
 14172 053d 0B       		.uleb128 0xb
 14173 053e 39       		.uleb128 0x39
 14174 053f 0B       		.uleb128 0xb
 14175 0540 49       		.uleb128 0x49
 14176 0541 13       		.uleb128 0x13
 14177 0542 00       		.byte	0
 14178 0543 00       		.byte	0
 14179 0544 4F       		.uleb128 0x4f
 14180 0545 2F       		.uleb128 0x2f
 14181 0546 00       		.byte	0
 14182 0547 03       		.uleb128 0x3
 14183 0548 08       		.uleb128 0x8
 14184 0549 49       		.uleb128 0x49
 14185 054a 13       		.uleb128 0x13
 14186 054b 1E       		.uleb128 0x1e
 14187 054c 19       		.uleb128 0x19
 14188 054d 00       		.byte	0
 14189 054e 00       		.byte	0
 14190 054f 50       		.uleb128 0x50
 14191 0550 2F       		.uleb128 0x2f
 14192 0551 00       		.byte	0
 14193 0552 03       		.uleb128 0x3
 14194 0553 0E       		.uleb128 0xe
 14195 0554 49       		.uleb128 0x49
 14196 0555 13       		.uleb128 0x13
 14197 0556 1E       		.uleb128 0x1e
 14198 0557 19       		.uleb128 0x19
 14199 0558 00       		.byte	0
 14200 0559 00       		.byte	0
 14201 055a 51       		.uleb128 0x51
 14202 055b 0D       		.uleb128 0xd
 14203 055c 00       		.byte	0
 14204 055d 03       		.uleb128 0x3
 14205 055e 08       		.uleb128 0x8
 14206 055f 3A       		.uleb128 0x3a
 14207 0560 0B       		.uleb128 0xb
 14208 0561 3B       		.uleb128 0x3b
 14209 0562 0B       		.uleb128 0xb
 14210 0563 39       		.uleb128 0x39
GAS LISTING C:\Users\Ilya\AppData\Local\Temp\ccxaKDG8.s 			page 336


 14211 0564 0B       		.uleb128 0xb
 14212 0565 49       		.uleb128 0x49
 14213 0566 13       		.uleb128 0x13
 14214 0567 3F       		.uleb128 0x3f
 14215 0568 19       		.uleb128 0x19
 14216 0569 3C       		.uleb128 0x3c
 14217 056a 19       		.uleb128 0x19
 14218 056b 6C       		.uleb128 0x6c
 14219 056c 19       		.uleb128 0x19
 14220 056d 00       		.byte	0
 14221 056e 00       		.byte	0
 14222 056f 52       		.uleb128 0x52
 14223 0570 30       		.uleb128 0x30
 14224 0571 00       		.byte	0
 14225 0572 03       		.uleb128 0x3
 14226 0573 08       		.uleb128 0x8
 14227 0574 49       		.uleb128 0x49
 14228 0575 13       		.uleb128 0x13
 14229 0576 1C       		.uleb128 0x1c
 14230 0577 0B       		.uleb128 0xb
 14231 0578 00       		.byte	0
 14232 0579 00       		.byte	0
 14233 057a 53       		.uleb128 0x53
 14234 057b 39       		.uleb128 0x39
 14235 057c 00       		.byte	0
 14236 057d 03       		.uleb128 0x3
 14237 057e 08       		.uleb128 0x8
 14238 057f 3A       		.uleb128 0x3a
 14239 0580 0B       		.uleb128 0xb
 14240 0581 3B       		.uleb128 0x3b
 14241 0582 05       		.uleb128 0x5
 14242 0583 39       		.uleb128 0x39
 14243 0584 0B       		.uleb128 0xb
 14244 0585 00       		.byte	0
 14245 0586 00       		.byte	0
 14246 0587 54       		.uleb128 0x54
 14247 0588 39       		.uleb128 0x39
 14248 0589 00       		.byte	0
 14249 058a 03       		.uleb128 0x3
 14250 058b 08       		.uleb128 0x8
 14251 058c 3A       		.uleb128 0x3a
 14252 058d 0B       		.uleb128 0xb
 14253 058e 3B       		.uleb128 0x3b
 14254 058f 0B       		.uleb128 0xb
 14255 0590 39       		.uleb128 0x39
 14256 0591 0B       		.uleb128 0xb
 14257 0592 00       		.byte	0
 14258 0593 00       		.byte	0
 14259 0594 55       		.uleb128 0x55
 14260 0595 2E       		.uleb128 0x2e
 14261 0596 00       		.byte	0
 14262 0597 3F       		.uleb128 0x3f
 14263 0598 19       		.uleb128 0x19
 14264 0599 03       		.uleb128 0x3
 14265 059a 08       		.uleb128 0x8
 14266 059b 3A       		.uleb128 0x3a
 14267 059c 0B       		.uleb128 0xb
GAS LISTING C:\Users\Ilya\AppData\Local\Temp\ccxaKDG8.s 			page 337


 14268 059d 3B       		.uleb128 0x3b
 14269 059e 05       		.uleb128 0x5
 14270 059f 39       		.uleb128 0x39
 14271 05a0 0B       		.uleb128 0xb
 14272 05a1 6E       		.uleb128 0x6e
 14273 05a2 08       		.uleb128 0x8
 14274 05a3 49       		.uleb128 0x49
 14275 05a4 13       		.uleb128 0x13
 14276 05a5 3C       		.uleb128 0x3c
 14277 05a6 19       		.uleb128 0x19
 14278 05a7 00       		.byte	0
 14279 05a8 00       		.byte	0
 14280 05a9 56       		.uleb128 0x56
 14281 05aa 2E       		.uleb128 0x2e
 14282 05ab 01       		.byte	0x1
 14283 05ac 3F       		.uleb128 0x3f
 14284 05ad 19       		.uleb128 0x19
 14285 05ae 03       		.uleb128 0x3
 14286 05af 0E       		.uleb128 0xe
 14287 05b0 3A       		.uleb128 0x3a
 14288 05b1 0B       		.uleb128 0xb
 14289 05b2 3B       		.uleb128 0x3b
 14290 05b3 0B       		.uleb128 0xb
 14291 05b4 39       		.uleb128 0x39
 14292 05b5 0B       		.uleb128 0xb
 14293 05b6 6E       		.uleb128 0x6e
 14294 05b7 08       		.uleb128 0x8
 14295 05b8 32       		.uleb128 0x32
 14296 05b9 0B       		.uleb128 0xb
 14297 05ba 3C       		.uleb128 0x3c
 14298 05bb 19       		.uleb128 0x19
 14299 05bc 64       		.uleb128 0x64
 14300 05bd 13       		.uleb128 0x13
 14301 05be 00       		.byte	0
 14302 05bf 00       		.byte	0
 14303 05c0 57       		.uleb128 0x57
 14304 05c1 39       		.uleb128 0x39
 14305 05c2 00       		.byte	0
 14306 05c3 03       		.uleb128 0x3
 14307 05c4 08       		.uleb128 0x8
 14308 05c5 3A       		.uleb128 0x3a
 14309 05c6 0B       		.uleb128 0xb
 14310 05c7 3B       		.uleb128 0x3b
 14311 05c8 05       		.uleb128 0x5
 14312 05c9 39       		.uleb128 0x39
 14313 05ca 0B       		.uleb128 0xb
 14314 05cb 8901     		.uleb128 0x89
 14315 05cd 19       		.uleb128 0x19
 14316 05ce 00       		.byte	0
 14317 05cf 00       		.byte	0
 14318 05d0 58       		.uleb128 0x58
 14319 05d1 02       		.uleb128 0x2
 14320 05d2 01       		.byte	0x1
 14321 05d3 03       		.uleb128 0x3
 14322 05d4 08       		.uleb128 0x8
 14323 05d5 3C       		.uleb128 0x3c
 14324 05d6 19       		.uleb128 0x19
GAS LISTING C:\Users\Ilya\AppData\Local\Temp\ccxaKDG8.s 			page 338


 14325 05d7 01       		.uleb128 0x1
 14326 05d8 13       		.uleb128 0x13
 14327 05d9 00       		.byte	0
 14328 05da 00       		.byte	0
 14329 05db 59       		.uleb128 0x59
 14330 05dc 0D       		.uleb128 0xd
 14331 05dd 00       		.byte	0
 14332 05de 03       		.uleb128 0x3
 14333 05df 08       		.uleb128 0x8
 14334 05e0 3A       		.uleb128 0x3a
 14335 05e1 0B       		.uleb128 0xb
 14336 05e2 3B       		.uleb128 0x3b
 14337 05e3 05       		.uleb128 0x5
 14338 05e4 39       		.uleb128 0x39
 14339 05e5 0B       		.uleb128 0xb
 14340 05e6 49       		.uleb128 0x49
 14341 05e7 13       		.uleb128 0x13
 14342 05e8 3F       		.uleb128 0x3f
 14343 05e9 19       		.uleb128 0x19
 14344 05ea 3C       		.uleb128 0x3c
 14345 05eb 19       		.uleb128 0x19
 14346 05ec 00       		.byte	0
 14347 05ed 00       		.byte	0
 14348 05ee 5A       		.uleb128 0x5a
 14349 05ef 2E       		.uleb128 0x2e
 14350 05f0 01       		.byte	0x1
 14351 05f1 3F       		.uleb128 0x3f
 14352 05f2 19       		.uleb128 0x19
 14353 05f3 03       		.uleb128 0x3
 14354 05f4 08       		.uleb128 0x8
 14355 05f5 3A       		.uleb128 0x3a
 14356 05f6 0B       		.uleb128 0xb
 14357 05f7 3B       		.uleb128 0x3b
 14358 05f8 05       		.uleb128 0x5
 14359 05f9 39       		.uleb128 0x39
 14360 05fa 0B       		.uleb128 0xb
 14361 05fb 6E       		.uleb128 0x6e
 14362 05fc 08       		.uleb128 0x8
 14363 05fd 3C       		.uleb128 0x3c
 14364 05fe 19       		.uleb128 0x19
 14365 05ff 8B01     		.uleb128 0x8b
 14366 0601 0B       		.uleb128 0xb
 14367 0602 64       		.uleb128 0x64
 14368 0603 13       		.uleb128 0x13
 14369 0604 01       		.uleb128 0x1
 14370 0605 13       		.uleb128 0x13
 14371 0606 00       		.byte	0
 14372 0607 00       		.byte	0
 14373 0608 5B       		.uleb128 0x5b
 14374 0609 2E       		.uleb128 0x2e
 14375 060a 01       		.byte	0x1
 14376 060b 3F       		.uleb128 0x3f
 14377 060c 19       		.uleb128 0x19
 14378 060d 03       		.uleb128 0x3
 14379 060e 0E       		.uleb128 0xe
 14380 060f 3A       		.uleb128 0x3a
 14381 0610 0B       		.uleb128 0xb
GAS LISTING C:\Users\Ilya\AppData\Local\Temp\ccxaKDG8.s 			page 339


 14382 0611 3B       		.uleb128 0x3b
 14383 0612 05       		.uleb128 0x5
 14384 0613 39       		.uleb128 0x39
 14385 0614 0B       		.uleb128 0xb
 14386 0615 6E       		.uleb128 0x6e
 14387 0616 08       		.uleb128 0x8
 14388 0617 3C       		.uleb128 0x3c
 14389 0618 19       		.uleb128 0x19
 14390 0619 8B01     		.uleb128 0x8b
 14391 061b 0B       		.uleb128 0xb
 14392 061c 64       		.uleb128 0x64
 14393 061d 13       		.uleb128 0x13
 14394 061e 01       		.uleb128 0x1
 14395 061f 13       		.uleb128 0x13
 14396 0620 00       		.byte	0
 14397 0621 00       		.byte	0
 14398 0622 5C       		.uleb128 0x5c
 14399 0623 2E       		.uleb128 0x2e
 14400 0624 01       		.byte	0x1
 14401 0625 3F       		.uleb128 0x3f
 14402 0626 19       		.uleb128 0x19
 14403 0627 03       		.uleb128 0x3
 14404 0628 0E       		.uleb128 0xe
 14405 0629 3A       		.uleb128 0x3a
 14406 062a 0B       		.uleb128 0xb
 14407 062b 3B       		.uleb128 0x3b
 14408 062c 05       		.uleb128 0x5
 14409 062d 39       		.uleb128 0x39
 14410 062e 0B       		.uleb128 0xb
 14411 062f 6E       		.uleb128 0x6e
 14412 0630 08       		.uleb128 0x8
 14413 0631 32       		.uleb128 0x32
 14414 0632 0B       		.uleb128 0xb
 14415 0633 3C       		.uleb128 0x3c
 14416 0634 19       		.uleb128 0x19
 14417 0635 8B01     		.uleb128 0x8b
 14418 0637 0B       		.uleb128 0xb
 14419 0638 64       		.uleb128 0x64
 14420 0639 13       		.uleb128 0x13
 14421 063a 01       		.uleb128 0x1
 14422 063b 13       		.uleb128 0x13
 14423 063c 00       		.byte	0
 14424 063d 00       		.byte	0
 14425 063e 5D       		.uleb128 0x5d
 14426 063f 2E       		.uleb128 0x2e
 14427 0640 01       		.byte	0x1
 14428 0641 3F       		.uleb128 0x3f
 14429 0642 19       		.uleb128 0x19
 14430 0643 03       		.uleb128 0x3
 14431 0644 08       		.uleb128 0x8
 14432 0645 3A       		.uleb128 0x3a
 14433 0646 0B       		.uleb128 0xb
 14434 0647 3B       		.uleb128 0x3b
 14435 0648 05       		.uleb128 0x5
 14436 0649 39       		.uleb128 0x39
 14437 064a 0B       		.uleb128 0xb
 14438 064b 6E       		.uleb128 0x6e
GAS LISTING C:\Users\Ilya\AppData\Local\Temp\ccxaKDG8.s 			page 340


 14439 064c 08       		.uleb128 0x8
 14440 064d 49       		.uleb128 0x49
 14441 064e 13       		.uleb128 0x13
 14442 064f 32       		.uleb128 0x32
 14443 0650 0B       		.uleb128 0xb
 14444 0651 3C       		.uleb128 0x3c
 14445 0652 19       		.uleb128 0x19
 14446 0653 01       		.uleb128 0x1
 14447 0654 13       		.uleb128 0x13
 14448 0655 00       		.byte	0
 14449 0656 00       		.byte	0
 14450 0657 5E       		.uleb128 0x5e
 14451 0658 2E       		.uleb128 0x2e
 14452 0659 01       		.byte	0x1
 14453 065a 3F       		.uleb128 0x3f
 14454 065b 19       		.uleb128 0x19
 14455 065c 03       		.uleb128 0x3
 14456 065d 0E       		.uleb128 0xe
 14457 065e 3A       		.uleb128 0x3a
 14458 065f 0B       		.uleb128 0xb
 14459 0660 3B       		.uleb128 0x3b
 14460 0661 0B       		.uleb128 0xb
 14461 0662 39       		.uleb128 0x39
 14462 0663 0B       		.uleb128 0xb
 14463 0664 6E       		.uleb128 0x6e
 14464 0665 08       		.uleb128 0x8
 14465 0666 3C       		.uleb128 0x3c
 14466 0667 19       		.uleb128 0x19
 14467 0668 8B01     		.uleb128 0x8b
 14468 066a 0B       		.uleb128 0xb
 14469 066b 64       		.uleb128 0x64
 14470 066c 13       		.uleb128 0x13
 14471 066d 01       		.uleb128 0x1
 14472 066e 13       		.uleb128 0x13
 14473 066f 00       		.byte	0
 14474 0670 00       		.byte	0
 14475 0671 5F       		.uleb128 0x5f
 14476 0672 2E       		.uleb128 0x2e
 14477 0673 01       		.byte	0x1
 14478 0674 3F       		.uleb128 0x3f
 14479 0675 19       		.uleb128 0x19
 14480 0676 03       		.uleb128 0x3
 14481 0677 0E       		.uleb128 0xe
 14482 0678 3A       		.uleb128 0x3a
 14483 0679 0B       		.uleb128 0xb
 14484 067a 3B       		.uleb128 0x3b
 14485 067b 0B       		.uleb128 0xb
 14486 067c 39       		.uleb128 0x39
 14487 067d 0B       		.uleb128 0xb
 14488 067e 6E       		.uleb128 0x6e
 14489 067f 08       		.uleb128 0x8
 14490 0680 49       		.uleb128 0x49
 14491 0681 13       		.uleb128 0x13
 14492 0682 3C       		.uleb128 0x3c
 14493 0683 19       		.uleb128 0x19
 14494 0684 01       		.uleb128 0x1
 14495 0685 13       		.uleb128 0x13
GAS LISTING C:\Users\Ilya\AppData\Local\Temp\ccxaKDG8.s 			page 341


 14496 0686 00       		.byte	0
 14497 0687 00       		.byte	0
 14498 0688 60       		.uleb128 0x60
 14499 0689 2E       		.uleb128 0x2e
 14500 068a 01       		.byte	0x1
 14501 068b 3F       		.uleb128 0x3f
 14502 068c 19       		.uleb128 0x19
 14503 068d 03       		.uleb128 0x3
 14504 068e 0E       		.uleb128 0xe
 14505 068f 3A       		.uleb128 0x3a
 14506 0690 0B       		.uleb128 0xb
 14507 0691 3B       		.uleb128 0x3b
 14508 0692 0B       		.uleb128 0xb
 14509 0693 39       		.uleb128 0x39
 14510 0694 0B       		.uleb128 0xb
 14511 0695 6E       		.uleb128 0x6e
 14512 0696 08       		.uleb128 0x8
 14513 0697 3C       		.uleb128 0x3c
 14514 0698 19       		.uleb128 0x19
 14515 0699 01       		.uleb128 0x1
 14516 069a 13       		.uleb128 0x13
 14517 069b 00       		.byte	0
 14518 069c 00       		.byte	0
 14519 069d 61       		.uleb128 0x61
 14520 069e 0D       		.uleb128 0xd
 14521 069f 00       		.byte	0
 14522 06a0 03       		.uleb128 0x3
 14523 06a1 0E       		.uleb128 0xe
 14524 06a2 3A       		.uleb128 0x3a
 14525 06a3 0B       		.uleb128 0xb
 14526 06a4 3B       		.uleb128 0x3b
 14527 06a5 05       		.uleb128 0x5
 14528 06a6 39       		.uleb128 0x39
 14529 06a7 0B       		.uleb128 0xb
 14530 06a8 49       		.uleb128 0x49
 14531 06a9 13       		.uleb128 0x13
 14532 06aa 38       		.uleb128 0x38
 14533 06ab 0B       		.uleb128 0xb
 14534 06ac 32       		.uleb128 0x32
 14535 06ad 0B       		.uleb128 0xb
 14536 06ae 00       		.byte	0
 14537 06af 00       		.byte	0
 14538 06b0 62       		.uleb128 0x62
 14539 06b1 34       		.uleb128 0x34
 14540 06b2 00       		.byte	0
 14541 06b3 47       		.uleb128 0x47
 14542 06b4 13       		.uleb128 0x13
 14543 06b5 00       		.byte	0
 14544 06b6 00       		.byte	0
 14545 06b7 63       		.uleb128 0x63
 14546 06b8 2E       		.uleb128 0x2e
 14547 06b9 01       		.byte	0x1
 14548 06ba 3F       		.uleb128 0x3f
 14549 06bb 19       		.uleb128 0x19
 14550 06bc 03       		.uleb128 0x3
 14551 06bd 0E       		.uleb128 0xe
 14552 06be 3A       		.uleb128 0x3a
GAS LISTING C:\Users\Ilya\AppData\Local\Temp\ccxaKDG8.s 			page 342


 14553 06bf 0B       		.uleb128 0xb
 14554 06c0 3B       		.uleb128 0x3b
 14555 06c1 0B       		.uleb128 0xb
 14556 06c2 39       		.uleb128 0x39
 14557 06c3 0B       		.uleb128 0xb
 14558 06c4 6E       		.uleb128 0x6e
 14559 06c5 08       		.uleb128 0x8
 14560 06c6 32       		.uleb128 0x32
 14561 06c7 0B       		.uleb128 0xb
 14562 06c8 3C       		.uleb128 0x3c
 14563 06c9 19       		.uleb128 0x19
 14564 06ca 63       		.uleb128 0x63
 14565 06cb 19       		.uleb128 0x19
 14566 06cc 64       		.uleb128 0x64
 14567 06cd 13       		.uleb128 0x13
 14568 06ce 01       		.uleb128 0x1
 14569 06cf 13       		.uleb128 0x13
 14570 06d0 00       		.byte	0
 14571 06d1 00       		.byte	0
 14572 06d2 64       		.uleb128 0x64
 14573 06d3 2E       		.uleb128 0x2e
 14574 06d4 01       		.byte	0x1
 14575 06d5 3F       		.uleb128 0x3f
 14576 06d6 19       		.uleb128 0x19
 14577 06d7 03       		.uleb128 0x3
 14578 06d8 0E       		.uleb128 0xe
 14579 06d9 3A       		.uleb128 0x3a
 14580 06da 0B       		.uleb128 0xb
 14581 06db 3B       		.uleb128 0x3b
 14582 06dc 0B       		.uleb128 0xb
 14583 06dd 39       		.uleb128 0x39
 14584 06de 0B       		.uleb128 0xb
 14585 06df 6E       		.uleb128 0x6e
 14586 06e0 08       		.uleb128 0x8
 14587 06e1 32       		.uleb128 0x32
 14588 06e2 0B       		.uleb128 0xb
 14589 06e3 3C       		.uleb128 0x3c
 14590 06e4 19       		.uleb128 0x19
 14591 06e5 8B01     		.uleb128 0x8b
 14592 06e7 0B       		.uleb128 0xb
 14593 06e8 64       		.uleb128 0x64
 14594 06e9 13       		.uleb128 0x13
 14595 06ea 01       		.uleb128 0x1
 14596 06eb 13       		.uleb128 0x13
 14597 06ec 00       		.byte	0
 14598 06ed 00       		.byte	0
 14599 06ee 65       		.uleb128 0x65
 14600 06ef 2E       		.uleb128 0x2e
 14601 06f0 00       		.byte	0
 14602 06f1 03       		.uleb128 0x3
 14603 06f2 08       		.uleb128 0x8
 14604 06f3 34       		.uleb128 0x34
 14605 06f4 19       		.uleb128 0x19
 14606 06f5 11       		.uleb128 0x11
 14607 06f6 01       		.uleb128 0x1
 14608 06f7 12       		.uleb128 0x12
 14609 06f8 07       		.uleb128 0x7
GAS LISTING C:\Users\Ilya\AppData\Local\Temp\ccxaKDG8.s 			page 343


 14610 06f9 40       		.uleb128 0x40
 14611 06fa 18       		.uleb128 0x18
 14612 06fb 9642     		.uleb128 0x2116
 14613 06fd 19       		.uleb128 0x19
 14614 06fe 00       		.byte	0
 14615 06ff 00       		.byte	0
 14616 0700 66       		.uleb128 0x66
 14617 0701 2E       		.uleb128 0x2e
 14618 0702 01       		.byte	0x1
 14619 0703 47       		.uleb128 0x47
 14620 0704 13       		.uleb128 0x13
 14621 0705 64       		.uleb128 0x64
 14622 0706 13       		.uleb128 0x13
 14623 0707 11       		.uleb128 0x11
 14624 0708 01       		.uleb128 0x1
 14625 0709 12       		.uleb128 0x12
 14626 070a 07       		.uleb128 0x7
 14627 070b 40       		.uleb128 0x40
 14628 070c 18       		.uleb128 0x18
 14629 070d 9642     		.uleb128 0x2116
 14630 070f 19       		.uleb128 0x19
 14631 0710 01       		.uleb128 0x1
 14632 0711 13       		.uleb128 0x13
 14633 0712 00       		.byte	0
 14634 0713 00       		.byte	0
 14635 0714 67       		.uleb128 0x67
 14636 0715 11       		.uleb128 0x11
 14637 0716 01       		.byte	0x1
 14638 0717 25       		.uleb128 0x25
 14639 0718 08       		.uleb128 0x8
 14640 0719 13       		.uleb128 0x13
 14641 071a 0B       		.uleb128 0xb
 14642 071b 03       		.uleb128 0x3
 14643 071c 08       		.uleb128 0x8
 14644 071d 1B       		.uleb128 0x1b
 14645 071e 08       		.uleb128 0x8
 14646 071f 55       		.uleb128 0x55
 14647 0720 17       		.uleb128 0x17
 14648 0721 11       		.uleb128 0x11
 14649 0722 01       		.uleb128 0x1
 14650 0723 10       		.uleb128 0x10
 14651 0724 17       		.uleb128 0x17
 14652 0725 00       		.byte	0
 14653 0726 00       		.byte	0
 14654 0727 68       		.uleb128 0x68
 14655 0728 39       		.uleb128 0x39
 14656 0729 01       		.byte	0x1
 14657 072a 03       		.uleb128 0x3
 14658 072b 08       		.uleb128 0x8
 14659 072c 3A       		.uleb128 0x3a
 14660 072d 0B       		.uleb128 0xb
 14661 072e 3B       		.uleb128 0x3b
 14662 072f 0B       		.uleb128 0xb
 14663 0730 01       		.uleb128 0x1
 14664 0731 13       		.uleb128 0x13
 14665 0732 00       		.byte	0
 14666 0733 00       		.byte	0
GAS LISTING C:\Users\Ilya\AppData\Local\Temp\ccxaKDG8.s 			page 344


 14667 0734 69       		.uleb128 0x69
 14668 0735 17       		.uleb128 0x17
 14669 0736 01       		.byte	0x1
 14670 0737 0B       		.uleb128 0xb
 14671 0738 0B       		.uleb128 0xb
 14672 0739 3A       		.uleb128 0x3a
 14673 073a 0B       		.uleb128 0xb
 14674 073b 3B       		.uleb128 0x3b
 14675 073c 0B       		.uleb128 0xb
 14676 073d 39       		.uleb128 0x39
 14677 073e 0B       		.uleb128 0xb
 14678 073f 01       		.uleb128 0x1
 14679 0740 13       		.uleb128 0x13
 14680 0741 00       		.byte	0
 14681 0742 00       		.byte	0
 14682 0743 6A       		.uleb128 0x6a
 14683 0744 0D       		.uleb128 0xd
 14684 0745 00       		.byte	0
 14685 0746 03       		.uleb128 0x3
 14686 0747 08       		.uleb128 0x8
 14687 0748 3A       		.uleb128 0x3a
 14688 0749 0B       		.uleb128 0xb
 14689 074a 3B       		.uleb128 0x3b
 14690 074b 0B       		.uleb128 0xb
 14691 074c 39       		.uleb128 0x39
 14692 074d 0B       		.uleb128 0xb
 14693 074e 49       		.uleb128 0x49
 14694 074f 13       		.uleb128 0x13
 14695 0750 3F       		.uleb128 0x3f
 14696 0751 19       		.uleb128 0x19
 14697 0752 32       		.uleb128 0x32
 14698 0753 0B       		.uleb128 0xb
 14699 0754 3C       		.uleb128 0x3c
 14700 0755 19       		.uleb128 0x19
 14701 0756 00       		.byte	0
 14702 0757 00       		.byte	0
 14703 0758 6B       		.uleb128 0x6b
 14704 0759 0D       		.uleb128 0xd
 14705 075a 00       		.byte	0
 14706 075b 49       		.uleb128 0x49
 14707 075c 13       		.uleb128 0x13
 14708 075d 38       		.uleb128 0x38
 14709 075e 0B       		.uleb128 0xb
 14710 075f 00       		.byte	0
 14711 0760 00       		.byte	0
 14712 0761 6C       		.uleb128 0x6c
 14713 0762 2E       		.uleb128 0x2e
 14714 0763 01       		.byte	0x1
 14715 0764 3F       		.uleb128 0x3f
 14716 0765 19       		.uleb128 0x19
 14717 0766 03       		.uleb128 0x3
 14718 0767 0E       		.uleb128 0xe
 14719 0768 3A       		.uleb128 0x3a
 14720 0769 0B       		.uleb128 0xb
 14721 076a 3B       		.uleb128 0x3b
 14722 076b 0B       		.uleb128 0xb
 14723 076c 39       		.uleb128 0x39
GAS LISTING C:\Users\Ilya\AppData\Local\Temp\ccxaKDG8.s 			page 345


 14724 076d 0B       		.uleb128 0xb
 14725 076e 6E       		.uleb128 0x6e
 14726 076f 08       		.uleb128 0x8
 14727 0770 3C       		.uleb128 0x3c
 14728 0771 19       		.uleb128 0x19
 14729 0772 63       		.uleb128 0x63
 14730 0773 19       		.uleb128 0x19
 14731 0774 64       		.uleb128 0x64
 14732 0775 13       		.uleb128 0x13
 14733 0776 01       		.uleb128 0x1
 14734 0777 13       		.uleb128 0x13
 14735 0778 00       		.byte	0
 14736 0779 00       		.byte	0
 14737 077a 6D       		.uleb128 0x6d
 14738 077b 2E       		.uleb128 0x2e
 14739 077c 01       		.byte	0x1
 14740 077d 3F       		.uleb128 0x3f
 14741 077e 19       		.uleb128 0x19
 14742 077f 03       		.uleb128 0x3
 14743 0780 08       		.uleb128 0x8
 14744 0781 3A       		.uleb128 0x3a
 14745 0782 0B       		.uleb128 0xb
 14746 0783 3B       		.uleb128 0x3b
 14747 0784 0B       		.uleb128 0xb
 14748 0785 39       		.uleb128 0x39
 14749 0786 0B       		.uleb128 0xb
 14750 0787 6E       		.uleb128 0x6e
 14751 0788 08       		.uleb128 0x8
 14752 0789 49       		.uleb128 0x49
 14753 078a 13       		.uleb128 0x13
 14754 078b 32       		.uleb128 0x32
 14755 078c 0B       		.uleb128 0xb
 14756 078d 3C       		.uleb128 0x3c
 14757 078e 19       		.uleb128 0x19
 14758 078f 63       		.uleb128 0x63
 14759 0790 19       		.uleb128 0x19
 14760 0791 64       		.uleb128 0x64
 14761 0792 13       		.uleb128 0x13
 14762 0793 01       		.uleb128 0x1
 14763 0794 13       		.uleb128 0x13
 14764 0795 00       		.byte	0
 14765 0796 00       		.byte	0
 14766 0797 6E       		.uleb128 0x6e
 14767 0798 2E       		.uleb128 0x2e
 14768 0799 01       		.byte	0x1
 14769 079a 3F       		.uleb128 0x3f
 14770 079b 19       		.uleb128 0x19
 14771 079c 03       		.uleb128 0x3
 14772 079d 08       		.uleb128 0x8
 14773 079e 3A       		.uleb128 0x3a
 14774 079f 0B       		.uleb128 0xb
 14775 07a0 3B       		.uleb128 0x3b
 14776 07a1 0B       		.uleb128 0xb
 14777 07a2 39       		.uleb128 0x39
 14778 07a3 0B       		.uleb128 0xb
 14779 07a4 6E       		.uleb128 0x6e
 14780 07a5 08       		.uleb128 0x8
GAS LISTING C:\Users\Ilya\AppData\Local\Temp\ccxaKDG8.s 			page 346


 14781 07a6 49       		.uleb128 0x49
 14782 07a7 13       		.uleb128 0x13
 14783 07a8 32       		.uleb128 0x32
 14784 07a9 0B       		.uleb128 0xb
 14785 07aa 3C       		.uleb128 0x3c
 14786 07ab 19       		.uleb128 0x19
 14787 07ac 64       		.uleb128 0x64
 14788 07ad 13       		.uleb128 0x13
 14789 07ae 00       		.byte	0
 14790 07af 00       		.byte	0
 14791 07b0 6F       		.uleb128 0x6f
 14792 07b1 2E       		.uleb128 0x2e
 14793 07b2 01       		.byte	0x1
 14794 07b3 3F       		.uleb128 0x3f
 14795 07b4 19       		.uleb128 0x19
 14796 07b5 03       		.uleb128 0x3
 14797 07b6 08       		.uleb128 0x8
 14798 07b7 3A       		.uleb128 0x3a
 14799 07b8 0B       		.uleb128 0xb
 14800 07b9 3B       		.uleb128 0x3b
 14801 07ba 0B       		.uleb128 0xb
 14802 07bb 39       		.uleb128 0x39
 14803 07bc 0B       		.uleb128 0xb
 14804 07bd 6E       		.uleb128 0x6e
 14805 07be 08       		.uleb128 0x8
 14806 07bf 8701     		.uleb128 0x87
 14807 07c1 19       		.uleb128 0x19
 14808 07c2 3C       		.uleb128 0x3c
 14809 07c3 19       		.uleb128 0x19
 14810 07c4 01       		.uleb128 0x1
 14811 07c5 13       		.uleb128 0x13
 14812 07c6 00       		.byte	0
 14813 07c7 00       		.byte	0
 14814 07c8 70       		.uleb128 0x70
 14815 07c9 2E       		.uleb128 0x2e
 14816 07ca 01       		.byte	0x1
 14817 07cb 3F       		.uleb128 0x3f
 14818 07cc 19       		.uleb128 0x19
 14819 07cd 03       		.uleb128 0x3
 14820 07ce 0E       		.uleb128 0xe
 14821 07cf 3A       		.uleb128 0x3a
 14822 07d0 0B       		.uleb128 0xb
 14823 07d1 3B       		.uleb128 0x3b
 14824 07d2 0B       		.uleb128 0xb
 14825 07d3 39       		.uleb128 0x39
 14826 07d4 0B       		.uleb128 0xb
 14827 07d5 6E       		.uleb128 0x6e
 14828 07d6 08       		.uleb128 0x8
 14829 07d7 3C       		.uleb128 0x3c
 14830 07d8 19       		.uleb128 0x19
 14831 07d9 63       		.uleb128 0x63
 14832 07da 19       		.uleb128 0x19
 14833 07db 8B01     		.uleb128 0x8b
 14834 07dd 0B       		.uleb128 0xb
 14835 07de 64       		.uleb128 0x64
 14836 07df 13       		.uleb128 0x13
 14837 07e0 00       		.byte	0
GAS LISTING C:\Users\Ilya\AppData\Local\Temp\ccxaKDG8.s 			page 347


 14838 07e1 00       		.byte	0
 14839 07e2 71       		.uleb128 0x71
 14840 07e3 34       		.uleb128 0x34
 14841 07e4 00       		.byte	0
 14842 07e5 03       		.uleb128 0x3
 14843 07e6 08       		.uleb128 0x8
 14844 07e7 3A       		.uleb128 0x3a
 14845 07e8 0B       		.uleb128 0xb
 14846 07e9 3B       		.uleb128 0x3b
 14847 07ea 0B       		.uleb128 0xb
 14848 07eb 39       		.uleb128 0x39
 14849 07ec 0B       		.uleb128 0xb
 14850 07ed 49       		.uleb128 0x49
 14851 07ee 13       		.uleb128 0x13
 14852 07ef 3C       		.uleb128 0x3c
 14853 07f0 19       		.uleb128 0x19
 14854 07f1 1C       		.uleb128 0x1c
 14855 07f2 0A       		.uleb128 0xa
 14856 07f3 6C       		.uleb128 0x6c
 14857 07f4 19       		.uleb128 0x19
 14858 07f5 00       		.byte	0
 14859 07f6 00       		.byte	0
 14860 07f7 72       		.uleb128 0x72
 14861 07f8 13       		.uleb128 0x13
 14862 07f9 00       		.byte	0
 14863 07fa 03       		.uleb128 0x3
 14864 07fb 08       		.uleb128 0x8
 14865 07fc 0B       		.uleb128 0xb
 14866 07fd 0B       		.uleb128 0xb
 14867 07fe 3A       		.uleb128 0x3a
 14868 07ff 0B       		.uleb128 0xb
 14869 0800 3B       		.uleb128 0x3b
 14870 0801 0B       		.uleb128 0xb
 14871 0802 39       		.uleb128 0x39
 14872 0803 0B       		.uleb128 0xb
 14873 0804 00       		.byte	0
 14874 0805 00       		.byte	0
 14875 0806 73       		.uleb128 0x73
 14876 0807 2E       		.uleb128 0x2e
 14877 0808 01       		.byte	0x1
 14878 0809 3F       		.uleb128 0x3f
 14879 080a 19       		.uleb128 0x19
 14880 080b 03       		.uleb128 0x3
 14881 080c 08       		.uleb128 0x8
 14882 080d 3A       		.uleb128 0x3a
 14883 080e 0B       		.uleb128 0xb
 14884 080f 3B       		.uleb128 0x3b
 14885 0810 0B       		.uleb128 0xb
 14886 0811 39       		.uleb128 0x39
 14887 0812 0B       		.uleb128 0xb
 14888 0813 6E       		.uleb128 0x6e
 14889 0814 08       		.uleb128 0x8
 14890 0815 3C       		.uleb128 0x3c
 14891 0816 19       		.uleb128 0x19
 14892 0817 00       		.byte	0
 14893 0818 00       		.byte	0
 14894 0819 74       		.uleb128 0x74
GAS LISTING C:\Users\Ilya\AppData\Local\Temp\ccxaKDG8.s 			page 348


 14895 081a 39       		.uleb128 0x39
 14896 081b 00       		.byte	0
 14897 081c 03       		.uleb128 0x3
 14898 081d 08       		.uleb128 0x8
 14899 081e 3A       		.uleb128 0x3a
 14900 081f 0B       		.uleb128 0xb
 14901 0820 3B       		.uleb128 0x3b
 14902 0821 0B       		.uleb128 0xb
 14903 0822 39       		.uleb128 0x39
 14904 0823 0B       		.uleb128 0xb
 14905 0824 8901     		.uleb128 0x89
 14906 0826 19       		.uleb128 0x19
 14907 0827 00       		.byte	0
 14908 0828 00       		.byte	0
 14909 0829 75       		.uleb128 0x75
 14910 082a 02       		.uleb128 0x2
 14911 082b 01       		.byte	0x1
 14912 082c 03       		.uleb128 0x3
 14913 082d 08       		.uleb128 0x8
 14914 082e 0B       		.uleb128 0xb
 14915 082f 0B       		.uleb128 0xb
 14916 0830 3A       		.uleb128 0x3a
 14917 0831 0B       		.uleb128 0xb
 14918 0832 3B       		.uleb128 0x3b
 14919 0833 05       		.uleb128 0x5
 14920 0834 39       		.uleb128 0x39
 14921 0835 0B       		.uleb128 0xb
 14922 0836 32       		.uleb128 0x32
 14923 0837 0B       		.uleb128 0xb
 14924 0838 01       		.uleb128 0x1
 14925 0839 13       		.uleb128 0x13
 14926 083a 00       		.byte	0
 14927 083b 00       		.byte	0
 14928 083c 76       		.uleb128 0x76
 14929 083d 2E       		.uleb128 0x2e
 14930 083e 01       		.byte	0x1
 14931 083f 3F       		.uleb128 0x3f
 14932 0840 19       		.uleb128 0x19
 14933 0841 03       		.uleb128 0x3
 14934 0842 08       		.uleb128 0x8
 14935 0843 3A       		.uleb128 0x3a
 14936 0844 0B       		.uleb128 0xb
 14937 0845 3B       		.uleb128 0x3b
 14938 0846 05       		.uleb128 0x5
 14939 0847 39       		.uleb128 0x39
 14940 0848 0B       		.uleb128 0xb
 14941 0849 6E       		.uleb128 0x6e
 14942 084a 08       		.uleb128 0x8
 14943 084b 32       		.uleb128 0x32
 14944 084c 0B       		.uleb128 0xb
 14945 084d 3C       		.uleb128 0x3c
 14946 084e 19       		.uleb128 0x19
 14947 084f 8B01     		.uleb128 0x8b
 14948 0851 0B       		.uleb128 0xb
 14949 0852 64       		.uleb128 0x64
 14950 0853 13       		.uleb128 0x13
 14951 0854 01       		.uleb128 0x1
GAS LISTING C:\Users\Ilya\AppData\Local\Temp\ccxaKDG8.s 			page 349


 14952 0855 13       		.uleb128 0x13
 14953 0856 00       		.byte	0
 14954 0857 00       		.byte	0
 14955 0858 77       		.uleb128 0x77
 14956 0859 2E       		.uleb128 0x2e
 14957 085a 01       		.byte	0x1
 14958 085b 3F       		.uleb128 0x3f
 14959 085c 19       		.uleb128 0x19
 14960 085d 03       		.uleb128 0x3
 14961 085e 0E       		.uleb128 0xe
 14962 085f 3A       		.uleb128 0x3a
 14963 0860 0B       		.uleb128 0xb
 14964 0861 3B       		.uleb128 0x3b
 14965 0862 05       		.uleb128 0x5
 14966 0863 39       		.uleb128 0x39
 14967 0864 0B       		.uleb128 0xb
 14968 0865 6E       		.uleb128 0x6e
 14969 0866 08       		.uleb128 0x8
 14970 0867 49       		.uleb128 0x49
 14971 0868 13       		.uleb128 0x13
 14972 0869 32       		.uleb128 0x32
 14973 086a 0B       		.uleb128 0xb
 14974 086b 3C       		.uleb128 0x3c
 14975 086c 19       		.uleb128 0x19
 14976 086d 8B01     		.uleb128 0x8b
 14977 086f 0B       		.uleb128 0xb
 14978 0870 64       		.uleb128 0x64
 14979 0871 13       		.uleb128 0x13
 14980 0872 01       		.uleb128 0x1
 14981 0873 13       		.uleb128 0x13
 14982 0874 00       		.byte	0
 14983 0875 00       		.byte	0
 14984 0876 78       		.uleb128 0x78
 14985 0877 34       		.uleb128 0x34
 14986 0878 00       		.byte	0
 14987 0879 03       		.uleb128 0x3
 14988 087a 08       		.uleb128 0x8
 14989 087b 3A       		.uleb128 0x3a
 14990 087c 0B       		.uleb128 0xb
 14991 087d 3B       		.uleb128 0x3b
 14992 087e 0B       		.uleb128 0xb
 14993 087f 39       		.uleb128 0x39
 14994 0880 0B       		.uleb128 0xb
 14995 0881 6E       		.uleb128 0x6e
 14996 0882 08       		.uleb128 0x8
 14997 0883 49       		.uleb128 0x49
 14998 0884 13       		.uleb128 0x13
 14999 0885 3F       		.uleb128 0x3f
 15000 0886 19       		.uleb128 0x19
 15001 0887 3C       		.uleb128 0x3c
 15002 0888 19       		.uleb128 0x19
 15003 0889 00       		.byte	0
 15004 088a 00       		.byte	0
 15005 088b 79       		.uleb128 0x79
 15006 088c 34       		.uleb128 0x34
 15007 088d 00       		.byte	0
 15008 088e 03       		.uleb128 0x3
GAS LISTING C:\Users\Ilya\AppData\Local\Temp\ccxaKDG8.s 			page 350


 15009 088f 08       		.uleb128 0x8
 15010 0890 3A       		.uleb128 0x3a
 15011 0891 0B       		.uleb128 0xb
 15012 0892 3B       		.uleb128 0x3b
 15013 0893 0B       		.uleb128 0xb
 15014 0894 39       		.uleb128 0x39
 15015 0895 0B       		.uleb128 0xb
 15016 0896 49       		.uleb128 0x49
 15017 0897 13       		.uleb128 0x13
 15018 0898 3C       		.uleb128 0x3c
 15019 0899 19       		.uleb128 0x19
 15020 089a 00       		.byte	0
 15021 089b 00       		.byte	0
 15022 089c 7A       		.uleb128 0x7a
 15023 089d 2E       		.uleb128 0x2e
 15024 089e 01       		.byte	0x1
 15025 089f 3F       		.uleb128 0x3f
 15026 08a0 19       		.uleb128 0x19
 15027 08a1 03       		.uleb128 0x3
 15028 08a2 08       		.uleb128 0x8
 15029 08a3 6E       		.uleb128 0x6e
 15030 08a4 08       		.uleb128 0x8
 15031 08a5 34       		.uleb128 0x34
 15032 08a6 19       		.uleb128 0x19
 15033 08a7 3C       		.uleb128 0x3c
 15034 08a8 19       		.uleb128 0x19
 15035 08a9 64       		.uleb128 0x64
 15036 08aa 13       		.uleb128 0x13
 15037 08ab 00       		.byte	0
 15038 08ac 00       		.byte	0
 15039 08ad 7B       		.uleb128 0x7b
 15040 08ae 2E       		.uleb128 0x2e
 15041 08af 01       		.byte	0x1
 15042 08b0 3F       		.uleb128 0x3f
 15043 08b1 19       		.uleb128 0x19
 15044 08b2 03       		.uleb128 0x3
 15045 08b3 08       		.uleb128 0x8
 15046 08b4 3A       		.uleb128 0x3a
 15047 08b5 0B       		.uleb128 0xb
 15048 08b6 3B       		.uleb128 0x3b
 15049 08b7 0B       		.uleb128 0xb
 15050 08b8 39       		.uleb128 0x39
 15051 08b9 0B       		.uleb128 0xb
 15052 08ba 6E       		.uleb128 0x6e
 15053 08bb 08       		.uleb128 0x8
 15054 08bc 3C       		.uleb128 0x3c
 15055 08bd 19       		.uleb128 0x19
 15056 08be 8B01     		.uleb128 0x8b
 15057 08c0 0B       		.uleb128 0xb
 15058 08c1 64       		.uleb128 0x64
 15059 08c2 13       		.uleb128 0x13
 15060 08c3 01       		.uleb128 0x1
 15061 08c4 13       		.uleb128 0x13
 15062 08c5 00       		.byte	0
 15063 08c6 00       		.byte	0
 15064 08c7 7C       		.uleb128 0x7c
 15065 08c8 2E       		.uleb128 0x2e
GAS LISTING C:\Users\Ilya\AppData\Local\Temp\ccxaKDG8.s 			page 351


 15066 08c9 01       		.byte	0x1
 15067 08ca 3F       		.uleb128 0x3f
 15068 08cb 19       		.uleb128 0x19
 15069 08cc 03       		.uleb128 0x3
 15070 08cd 0E       		.uleb128 0xe
 15071 08ce 3A       		.uleb128 0x3a
 15072 08cf 0B       		.uleb128 0xb
 15073 08d0 3B       		.uleb128 0x3b
 15074 08d1 0B       		.uleb128 0xb
 15075 08d2 39       		.uleb128 0x39
 15076 08d3 0B       		.uleb128 0xb
 15077 08d4 6E       		.uleb128 0x6e
 15078 08d5 08       		.uleb128 0x8
 15079 08d6 49       		.uleb128 0x49
 15080 08d7 13       		.uleb128 0x13
 15081 08d8 3C       		.uleb128 0x3c
 15082 08d9 19       		.uleb128 0x19
 15083 08da 8A01     		.uleb128 0x8a
 15084 08dc 19       		.uleb128 0x19
 15085 08dd 64       		.uleb128 0x64
 15086 08de 13       		.uleb128 0x13
 15087 08df 01       		.uleb128 0x1
 15088 08e0 13       		.uleb128 0x13
 15089 08e1 00       		.byte	0
 15090 08e2 00       		.byte	0
 15091 08e3 7D       		.uleb128 0x7d
 15092 08e4 2E       		.uleb128 0x2e
 15093 08e5 01       		.byte	0x1
 15094 08e6 3F       		.uleb128 0x3f
 15095 08e7 19       		.uleb128 0x19
 15096 08e8 03       		.uleb128 0x3
 15097 08e9 08       		.uleb128 0x8
 15098 08ea 3A       		.uleb128 0x3a
 15099 08eb 0B       		.uleb128 0xb
 15100 08ec 3B       		.uleb128 0x3b
 15101 08ed 0B       		.uleb128 0xb
 15102 08ee 39       		.uleb128 0x39
 15103 08ef 0B       		.uleb128 0xb
 15104 08f0 6E       		.uleb128 0x6e
 15105 08f1 08       		.uleb128 0x8
 15106 08f2 3C       		.uleb128 0x3c
 15107 08f3 19       		.uleb128 0x19
 15108 08f4 01       		.uleb128 0x1
 15109 08f5 13       		.uleb128 0x13
 15110 08f6 00       		.byte	0
 15111 08f7 00       		.byte	0
 15112 08f8 7E       		.uleb128 0x7e
 15113 08f9 2E       		.uleb128 0x2e
 15114 08fa 01       		.byte	0x1
 15115 08fb 3F       		.uleb128 0x3f
 15116 08fc 19       		.uleb128 0x19
 15117 08fd 03       		.uleb128 0x3
 15118 08fe 08       		.uleb128 0x8
 15119 08ff 3A       		.uleb128 0x3a
 15120 0900 0B       		.uleb128 0xb
 15121 0901 3B       		.uleb128 0x3b
 15122 0902 05       		.uleb128 0x5
GAS LISTING C:\Users\Ilya\AppData\Local\Temp\ccxaKDG8.s 			page 352


 15123 0903 39       		.uleb128 0x39
 15124 0904 0B       		.uleb128 0xb
 15125 0905 6E       		.uleb128 0x6e
 15126 0906 08       		.uleb128 0x8
 15127 0907 3C       		.uleb128 0x3c
 15128 0908 19       		.uleb128 0x19
 15129 0909 00       		.byte	0
 15130 090a 00       		.byte	0
 15131 090b 7F       		.uleb128 0x7f
 15132 090c 39       		.uleb128 0x39
 15133 090d 01       		.byte	0x1
 15134 090e 03       		.uleb128 0x3
 15135 090f 08       		.uleb128 0x8
 15136 0910 3A       		.uleb128 0x3a
 15137 0911 0B       		.uleb128 0xb
 15138 0912 3B       		.uleb128 0x3b
 15139 0913 05       		.uleb128 0x5
 15140 0914 39       		.uleb128 0x39
 15141 0915 0B       		.uleb128 0xb
 15142 0916 01       		.uleb128 0x1
 15143 0917 13       		.uleb128 0x13
 15144 0918 00       		.byte	0
 15145 0919 00       		.byte	0
 15146 091a 8001     		.uleb128 0x80
 15147 091c 2E       		.uleb128 0x2e
 15148 091d 01       		.byte	0x1
 15149 091e 3F       		.uleb128 0x3f
 15150 091f 19       		.uleb128 0x19
 15151 0920 03       		.uleb128 0x3
 15152 0921 08       		.uleb128 0x8
 15153 0922 3A       		.uleb128 0x3a
 15154 0923 0B       		.uleb128 0xb
 15155 0924 3B       		.uleb128 0x3b
 15156 0925 0B       		.uleb128 0xb
 15157 0926 39       		.uleb128 0x39
 15158 0927 0B       		.uleb128 0xb
 15159 0928 6E       		.uleb128 0x6e
 15160 0929 08       		.uleb128 0x8
 15161 092a 49       		.uleb128 0x49
 15162 092b 13       		.uleb128 0x13
 15163 092c 3C       		.uleb128 0x3c
 15164 092d 19       		.uleb128 0x19
 15165 092e 01       		.uleb128 0x1
 15166 092f 13       		.uleb128 0x13
 15167 0930 00       		.byte	0
 15168 0931 00       		.byte	0
 15169 0932 8101     		.uleb128 0x81
 15170 0934 0F       		.uleb128 0xf
 15171 0935 00       		.byte	0
 15172 0936 0B       		.uleb128 0xb
 15173 0937 0B       		.uleb128 0xb
 15174 0938 03       		.uleb128 0x3
 15175 0939 08       		.uleb128 0x8
 15176 093a 49       		.uleb128 0x49
 15177 093b 13       		.uleb128 0x13
 15178 093c 00       		.byte	0
 15179 093d 00       		.byte	0
GAS LISTING C:\Users\Ilya\AppData\Local\Temp\ccxaKDG8.s 			page 353


 15180 093e 8201     		.uleb128 0x82
 15181 0940 0F       		.uleb128 0xf
 15182 0941 00       		.byte	0
 15183 0942 0B       		.uleb128 0xb
 15184 0943 0B       		.uleb128 0xb
 15185 0944 00       		.byte	0
 15186 0945 00       		.byte	0
 15187 0946 8301     		.uleb128 0x83
 15188 0948 3B       		.uleb128 0x3b
 15189 0949 00       		.byte	0
 15190 094a 03       		.uleb128 0x3
 15191 094b 08       		.uleb128 0x8
 15192 094c 00       		.byte	0
 15193 094d 00       		.byte	0
 15194 094e 8401     		.uleb128 0x84
 15195 0950 2E       		.uleb128 0x2e
 15196 0951 00       		.byte	0
 15197 0952 3F       		.uleb128 0x3f
 15198 0953 19       		.uleb128 0x19
 15199 0954 03       		.uleb128 0x3
 15200 0955 08       		.uleb128 0x8
 15201 0956 3A       		.uleb128 0x3a
 15202 0957 0B       		.uleb128 0xb
 15203 0958 3B       		.uleb128 0x3b
 15204 0959 0B       		.uleb128 0xb
 15205 095a 39       		.uleb128 0x39
 15206 095b 0B       		.uleb128 0xb
 15207 095c 49       		.uleb128 0x49
 15208 095d 13       		.uleb128 0x13
 15209 095e 3C       		.uleb128 0x3c
 15210 095f 19       		.uleb128 0x19
 15211 0960 00       		.byte	0
 15212 0961 00       		.byte	0
 15213 0962 8501     		.uleb128 0x85
 15214 0964 15       		.uleb128 0x15
 15215 0965 00       		.byte	0
 15216 0966 00       		.byte	0
 15217 0967 00       		.byte	0
 15218 0968 8601     		.uleb128 0x86
 15219 096a 26       		.uleb128 0x26
 15220 096b 00       		.byte	0
 15221 096c 00       		.byte	0
 15222 096d 00       		.byte	0
 15223 096e 8701     		.uleb128 0x87
 15224 0970 13       		.uleb128 0x13
 15225 0971 01       		.byte	0x1
 15226 0972 0B       		.uleb128 0xb
 15227 0973 0B       		.uleb128 0xb
 15228 0974 3A       		.uleb128 0x3a
 15229 0975 0B       		.uleb128 0xb
 15230 0976 3B       		.uleb128 0x3b
 15231 0977 05       		.uleb128 0x5
 15232 0978 39       		.uleb128 0x39
 15233 0979 0B       		.uleb128 0xb
 15234 097a 6E       		.uleb128 0x6e
 15235 097b 08       		.uleb128 0x8
 15236 097c 01       		.uleb128 0x1
GAS LISTING C:\Users\Ilya\AppData\Local\Temp\ccxaKDG8.s 			page 354


 15237 097d 13       		.uleb128 0x13
 15238 097e 00       		.byte	0
 15239 097f 00       		.byte	0
 15240 0980 8801     		.uleb128 0x88
 15241 0982 15       		.uleb128 0x15
 15242 0983 01       		.byte	0x1
 15243 0984 49       		.uleb128 0x49
 15244 0985 13       		.uleb128 0x13
 15245 0986 01       		.uleb128 0x1
 15246 0987 13       		.uleb128 0x13
 15247 0988 00       		.byte	0
 15248 0989 00       		.byte	0
 15249 098a 8901     		.uleb128 0x89
 15250 098c 01       		.uleb128 0x1
 15251 098d 01       		.byte	0x1
 15252 098e 49       		.uleb128 0x49
 15253 098f 13       		.uleb128 0x13
 15254 0990 01       		.uleb128 0x1
 15255 0991 13       		.uleb128 0x13
 15256 0992 00       		.byte	0
 15257 0993 00       		.byte	0
 15258 0994 8A01     		.uleb128 0x8a
 15259 0996 21       		.uleb128 0x21
 15260 0997 00       		.byte	0
 15261 0998 49       		.uleb128 0x49
 15262 0999 13       		.uleb128 0x13
 15263 099a 2F       		.uleb128 0x2f
 15264 099b 0B       		.uleb128 0xb
 15265 099c 00       		.byte	0
 15266 099d 00       		.byte	0
 15267 099e 8B01     		.uleb128 0x8b
 15268 09a0 34       		.uleb128 0x34
 15269 09a1 00       		.byte	0
 15270 09a2 47       		.uleb128 0x47
 15271 09a3 13       		.uleb128 0x13
 15272 09a4 02       		.uleb128 0x2
 15273 09a5 18       		.uleb128 0x18
 15274 09a6 00       		.byte	0
 15275 09a7 00       		.byte	0
 15276 09a8 8C01     		.uleb128 0x8c
 15277 09aa 04       		.uleb128 0x4
 15278 09ab 01       		.byte	0x1
 15279 09ac 03       		.uleb128 0x3
 15280 09ad 08       		.uleb128 0x8
 15281 09ae 3E       		.uleb128 0x3e
 15282 09af 0B       		.uleb128 0xb
 15283 09b0 0B       		.uleb128 0xb
 15284 09b1 0B       		.uleb128 0xb
 15285 09b2 49       		.uleb128 0x49
 15286 09b3 13       		.uleb128 0x13
 15287 09b4 3A       		.uleb128 0x3a
 15288 09b5 0B       		.uleb128 0xb
 15289 09b6 3B       		.uleb128 0x3b
 15290 09b7 0B       		.uleb128 0xb
 15291 09b8 39       		.uleb128 0x39
 15292 09b9 0B       		.uleb128 0xb
 15293 09ba 01       		.uleb128 0x1
GAS LISTING C:\Users\Ilya\AppData\Local\Temp\ccxaKDG8.s 			page 355


 15294 09bb 13       		.uleb128 0x13
 15295 09bc 00       		.byte	0
 15296 09bd 00       		.byte	0
 15297 09be 8D01     		.uleb128 0x8d
 15298 09c0 34       		.uleb128 0x34
 15299 09c1 00       		.byte	0
 15300 09c2 03       		.uleb128 0x3
 15301 09c3 08       		.uleb128 0x8
 15302 09c4 3A       		.uleb128 0x3a
 15303 09c5 0B       		.uleb128 0xb
 15304 09c6 3B       		.uleb128 0x3b
 15305 09c7 0B       		.uleb128 0xb
 15306 09c8 39       		.uleb128 0x39
 15307 09c9 0B       		.uleb128 0xb
 15308 09ca 49       		.uleb128 0x49
 15309 09cb 13       		.uleb128 0x13
 15310 09cc 3C       		.uleb128 0x3c
 15311 09cd 19       		.uleb128 0x19
 15312 09ce 1C       		.uleb128 0x1c
 15313 09cf 0D       		.uleb128 0xd
 15314 09d0 00       		.byte	0
 15315 09d1 00       		.byte	0
 15316 09d2 8E01     		.uleb128 0x8e
 15317 09d4 2E       		.uleb128 0x2e
 15318 09d5 01       		.byte	0x1
 15319 09d6 3F       		.uleb128 0x3f
 15320 09d7 19       		.uleb128 0x19
 15321 09d8 03       		.uleb128 0x3
 15322 09d9 08       		.uleb128 0x8
 15323 09da 3A       		.uleb128 0x3a
 15324 09db 0B       		.uleb128 0xb
 15325 09dc 3B       		.uleb128 0x3b
 15326 09dd 0B       		.uleb128 0xb
 15327 09de 39       		.uleb128 0x39
 15328 09df 0B       		.uleb128 0xb
 15329 09e0 6E       		.uleb128 0x6e
 15330 09e1 08       		.uleb128 0x8
 15331 09e2 32       		.uleb128 0x32
 15332 09e3 0B       		.uleb128 0xb
 15333 09e4 3C       		.uleb128 0x3c
 15334 09e5 19       		.uleb128 0x19
 15335 09e6 8B01     		.uleb128 0x8b
 15336 09e8 0B       		.uleb128 0xb
 15337 09e9 64       		.uleb128 0x64
 15338 09ea 13       		.uleb128 0x13
 15339 09eb 01       		.uleb128 0x1
 15340 09ec 13       		.uleb128 0x13
 15341 09ed 00       		.byte	0
 15342 09ee 00       		.byte	0
 15343 09ef 8F01     		.uleb128 0x8f
 15344 09f1 0D       		.uleb128 0xd
 15345 09f2 00       		.byte	0
 15346 09f3 03       		.uleb128 0x3
 15347 09f4 08       		.uleb128 0x8
 15348 09f5 3A       		.uleb128 0x3a
 15349 09f6 0B       		.uleb128 0xb
 15350 09f7 3B       		.uleb128 0x3b
GAS LISTING C:\Users\Ilya\AppData\Local\Temp\ccxaKDG8.s 			page 356


 15351 09f8 0B       		.uleb128 0xb
 15352 09f9 39       		.uleb128 0x39
 15353 09fa 0B       		.uleb128 0xb
 15354 09fb 49       		.uleb128 0x49
 15355 09fc 13       		.uleb128 0x13
 15356 09fd 3F       		.uleb128 0x3f
 15357 09fe 19       		.uleb128 0x19
 15358 09ff 3C       		.uleb128 0x3c
 15359 0a00 19       		.uleb128 0x19
 15360 0a01 1C       		.uleb128 0x1c
 15361 0a02 05       		.uleb128 0x5
 15362 0a03 6C       		.uleb128 0x6c
 15363 0a04 19       		.uleb128 0x19
 15364 0a05 00       		.byte	0
 15365 0a06 00       		.byte	0
 15366 0a07 9001     		.uleb128 0x90
 15367 0a09 2E       		.uleb128 0x2e
 15368 0a0a 01       		.byte	0x1
 15369 0a0b 03       		.uleb128 0x3
 15370 0a0c 08       		.uleb128 0x8
 15371 0a0d 34       		.uleb128 0x34
 15372 0a0e 19       		.uleb128 0x19
 15373 0a0f 11       		.uleb128 0x11
 15374 0a10 01       		.uleb128 0x1
 15375 0a11 12       		.uleb128 0x12
 15376 0a12 07       		.uleb128 0x7
 15377 0a13 40       		.uleb128 0x40
 15378 0a14 18       		.uleb128 0x18
 15379 0a15 9642     		.uleb128 0x2116
 15380 0a17 19       		.uleb128 0x19
 15381 0a18 01       		.uleb128 0x1
 15382 0a19 13       		.uleb128 0x13
 15383 0a1a 00       		.byte	0
 15384 0a1b 00       		.byte	0
 15385 0a1c 9101     		.uleb128 0x91
 15386 0a1e 2E       		.uleb128 0x2e
 15387 0a1f 01       		.byte	0x1
 15388 0a20 47       		.uleb128 0x47
 15389 0a21 13       		.uleb128 0x13
 15390 0a22 11       		.uleb128 0x11
 15391 0a23 01       		.uleb128 0x1
 15392 0a24 12       		.uleb128 0x12
 15393 0a25 07       		.uleb128 0x7
 15394 0a26 40       		.uleb128 0x40
 15395 0a27 18       		.uleb128 0x18
 15396 0a28 9742     		.uleb128 0x2117
 15397 0a2a 19       		.uleb128 0x19
 15398 0a2b 01       		.uleb128 0x1
 15399 0a2c 13       		.uleb128 0x13
 15400 0a2d 00       		.byte	0
 15401 0a2e 00       		.byte	0
 15402 0a2f 9201     		.uleb128 0x92
 15403 0a31 2E       		.uleb128 0x2e
 15404 0a32 01       		.byte	0x1
 15405 0a33 31       		.uleb128 0x31
 15406 0a34 13       		.uleb128 0x13
 15407 0a35 6E       		.uleb128 0x6e
GAS LISTING C:\Users\Ilya\AppData\Local\Temp\ccxaKDG8.s 			page 357


 15408 0a36 08       		.uleb128 0x8
 15409 0a37 64       		.uleb128 0x64
 15410 0a38 13       		.uleb128 0x13
 15411 0a39 11       		.uleb128 0x11
 15412 0a3a 01       		.uleb128 0x1
 15413 0a3b 12       		.uleb128 0x12
 15414 0a3c 07       		.uleb128 0x7
 15415 0a3d 40       		.uleb128 0x40
 15416 0a3e 18       		.uleb128 0x18
 15417 0a3f 9742     		.uleb128 0x2117
 15418 0a41 19       		.uleb128 0x19
 15419 0a42 01       		.uleb128 0x1
 15420 0a43 13       		.uleb128 0x13
 15421 0a44 00       		.byte	0
 15422 0a45 00       		.byte	0
 15423 0a46 9301     		.uleb128 0x93
 15424 0a48 2E       		.uleb128 0x2e
 15425 0a49 01       		.byte	0x1
 15426 0a4a 47       		.uleb128 0x47
 15427 0a4b 13       		.uleb128 0x13
 15428 0a4c 64       		.uleb128 0x64
 15429 0a4d 13       		.uleb128 0x13
 15430 0a4e 11       		.uleb128 0x11
 15431 0a4f 01       		.uleb128 0x1
 15432 0a50 12       		.uleb128 0x12
 15433 0a51 07       		.uleb128 0x7
 15434 0a52 40       		.uleb128 0x40
 15435 0a53 18       		.uleb128 0x18
 15436 0a54 9742     		.uleb128 0x2117
 15437 0a56 19       		.uleb128 0x19
 15438 0a57 01       		.uleb128 0x1
 15439 0a58 13       		.uleb128 0x13
 15440 0a59 00       		.byte	0
 15441 0a5a 00       		.byte	0
 15442 0a5b 9401     		.uleb128 0x94
 15443 0a5d 2E       		.uleb128 0x2e
 15444 0a5e 01       		.byte	0x1
 15445 0a5f 47       		.uleb128 0x47
 15446 0a60 13       		.uleb128 0x13
 15447 0a61 3A       		.uleb128 0x3a
 15448 0a62 0B       		.uleb128 0xb
 15449 0a63 3B       		.uleb128 0x3b
 15450 0a64 0B       		.uleb128 0xb
 15451 0a65 39       		.uleb128 0x39
 15452 0a66 0B       		.uleb128 0xb
 15453 0a67 64       		.uleb128 0x64
 15454 0a68 13       		.uleb128 0x13
 15455 0a69 20       		.uleb128 0x20
 15456 0a6a 0B       		.uleb128 0xb
 15457 0a6b 01       		.uleb128 0x1
 15458 0a6c 13       		.uleb128 0x13
 15459 0a6d 00       		.byte	0
 15460 0a6e 00       		.byte	0
 15461 0a6f 9501     		.uleb128 0x95
 15462 0a71 2E       		.uleb128 0x2e
 15463 0a72 01       		.byte	0x1
 15464 0a73 3F       		.uleb128 0x3f
GAS LISTING C:\Users\Ilya\AppData\Local\Temp\ccxaKDG8.s 			page 358


 15465 0a74 19       		.uleb128 0x19
 15466 0a75 03       		.uleb128 0x3
 15467 0a76 08       		.uleb128 0x8
 15468 0a77 3A       		.uleb128 0x3a
 15469 0a78 0B       		.uleb128 0xb
 15470 0a79 3B       		.uleb128 0x3b
 15471 0a7a 0B       		.uleb128 0xb
 15472 0a7b 39       		.uleb128 0x39
 15473 0a7c 0B       		.uleb128 0xb
 15474 0a7d 49       		.uleb128 0x49
 15475 0a7e 13       		.uleb128 0x13
 15476 0a7f 11       		.uleb128 0x11
 15477 0a80 01       		.uleb128 0x1
 15478 0a81 12       		.uleb128 0x12
 15479 0a82 07       		.uleb128 0x7
 15480 0a83 40       		.uleb128 0x40
 15481 0a84 18       		.uleb128 0x18
 15482 0a85 9642     		.uleb128 0x2116
 15483 0a87 19       		.uleb128 0x19
 15484 0a88 01       		.uleb128 0x1
 15485 0a89 13       		.uleb128 0x13
 15486 0a8a 00       		.byte	0
 15487 0a8b 00       		.byte	0
 15488 0a8c 9601     		.uleb128 0x96
 15489 0a8e 0B       		.uleb128 0xb
 15490 0a8f 01       		.byte	0x1
 15491 0a90 55       		.uleb128 0x55
 15492 0a91 17       		.uleb128 0x17
 15493 0a92 01       		.uleb128 0x1
 15494 0a93 13       		.uleb128 0x13
 15495 0a94 00       		.byte	0
 15496 0a95 00       		.byte	0
 15497 0a96 9701     		.uleb128 0x97
 15498 0a98 0B       		.uleb128 0xb
 15499 0a99 01       		.byte	0x1
 15500 0a9a 11       		.uleb128 0x11
 15501 0a9b 01       		.uleb128 0x1
 15502 0a9c 12       		.uleb128 0x12
 15503 0a9d 07       		.uleb128 0x7
 15504 0a9e 00       		.byte	0
 15505 0a9f 00       		.byte	0
 15506 0aa0 9801     		.uleb128 0x98
 15507 0aa2 2E       		.uleb128 0x2e
 15508 0aa3 01       		.byte	0x1
 15509 0aa4 31       		.uleb128 0x31
 15510 0aa5 13       		.uleb128 0x13
 15511 0aa6 6E       		.uleb128 0x6e
 15512 0aa7 08       		.uleb128 0x8
 15513 0aa8 64       		.uleb128 0x64
 15514 0aa9 13       		.uleb128 0x13
 15515 0aaa 11       		.uleb128 0x11
 15516 0aab 01       		.uleb128 0x1
 15517 0aac 12       		.uleb128 0x12
 15518 0aad 07       		.uleb128 0x7
 15519 0aae 40       		.uleb128 0x40
 15520 0aaf 18       		.uleb128 0x18
 15521 0ab0 9642     		.uleb128 0x2116
GAS LISTING C:\Users\Ilya\AppData\Local\Temp\ccxaKDG8.s 			page 359


 15522 0ab2 19       		.uleb128 0x19
 15523 0ab3 00       		.byte	0
 15524 0ab4 00       		.byte	0
 15525 0ab5 00       		.byte	0
 15526              		.section	.debug_aranges,"dr"
 15527 0000 FC000000 		.long	0xfc
 15528 0004 0200     		.word	0x2
 15529 0006 00000000 		.secrel32	.Ldebug_info0
 15530 000a 08       		.byte	0x8
 15531 000b 00       		.byte	0
 15532 000c 0000     		.word	0
 15533 000e 0000     		.word	0
 15534 0010 00000000 		.quad	.Ltext0
 15534      00000000 
 15535 0018 B8010000 		.quad	.Letext0-.Ltext0
 15535      00000000 
 15536 0020 00000000 		.quad	.LFB2011
 15536      00000000 
 15537 0028 1F000000 		.quad	.LFE2011-.LFB2011
 15537      00000000 
 15538 0030 00000000 		.quad	.LFB2258
 15538      00000000 
 15539 0038 48000000 		.quad	.LFE2258-.LFB2258
 15539      00000000 
 15540 0040 00000000 		.quad	.LFB2374
 15540      00000000 
 15541 0048 1C000000 		.quad	.LFE2374-.LFB2374
 15541      00000000 
 15542 0050 00000000 		.quad	.LFB2377
 15542      00000000 
 15543 0058 51000000 		.quad	.LFE2377-.LFB2377
 15543      00000000 
 15544 0060 00000000 		.quad	.LFB2379
 15544      00000000 
 15545 0068 0E000000 		.quad	.LFE2379-.LFB2379
 15545      00000000 
 15546 0070 00000000 		.quad	.LFB2380
 15546      00000000 
 15547 0078 2B000000 		.quad	.LFE2380-.LFB2380
 15547      00000000 
 15548 0080 00000000 		.quad	.LFB2419
 15548      00000000 
 15549 0088 1C000000 		.quad	.LFE2419-.LFB2419
 15549      00000000 
 15550 0090 00000000 		.quad	.LFB2421
 15550      00000000 
 15551 0098 39000000 		.quad	.LFE2421-.LFB2421
 15551      00000000 
 15552 00a0 00000000 		.quad	.LFB2422
 15552      00000000 
 15553 00a8 27000000 		.quad	.LFE2422-.LFB2422
 15553      00000000 
 15554 00b0 00000000 		.quad	.LFB2461
 15554      00000000 
 15555 00b8 0B000000 		.quad	.LFE2461-.LFB2461
 15555      00000000 
 15556 00c0 00000000 		.quad	.LFB2463
GAS LISTING C:\Users\Ilya\AppData\Local\Temp\ccxaKDG8.s 			page 360


 15556      00000000 
 15557 00c8 32000000 		.quad	.LFE2463-.LFB2463
 15557      00000000 
 15558 00d0 00000000 		.quad	.LFB2464
 15558      00000000 
 15559 00d8 0F000000 		.quad	.LFE2464-.LFB2464
 15559      00000000 
 15560 00e0 00000000 		.quad	.LFB2494
 15560      00000000 
 15561 00e8 33000000 		.quad	.LFE2494-.LFB2494
 15561      00000000 
 15562 00f0 00000000 		.quad	0
 15562      00000000 
 15563 00f8 00000000 		.quad	0
 15563      00000000 
 15564              		.section	.debug_ranges,"dr"
 15565              	.Ldebug_ranges0:
 15566 0000 0F000000 		.quad	.LBB3
 15566      00000000 
 15567 0008 68000000 		.quad	.LBE3
 15567      00000000 
 15568 0010 72000000 		.quad	.LBB4
 15568      00000000 
 15569 0018 A0000000 		.quad	.LBE4
 15569      00000000 
 15570 0020 00000000 		.quad	0
 15570      00000000 
 15571 0028 00000000 		.quad	0
 15571      00000000 
 15572 0030 00000000 		.quad	.Ltext0
 15572      00000000 
 15573 0038 B8010000 		.quad	.Letext0
 15573      00000000 
 15574 0040 00000000 		.quad	.LFB2011
 15574      00000000 
 15575 0048 1F000000 		.quad	.LFE2011
 15575      00000000 
 15576 0050 00000000 		.quad	.LFB2258
 15576      00000000 
 15577 0058 48000000 		.quad	.LFE2258
 15577      00000000 
 15578 0060 00000000 		.quad	.LFB2374
 15578      00000000 
 15579 0068 1C000000 		.quad	.LFE2374
 15579      00000000 
 15580 0070 00000000 		.quad	.LFB2377
 15580      00000000 
 15581 0078 51000000 		.quad	.LFE2377
 15581      00000000 
 15582 0080 00000000 		.quad	.LFB2379
 15582      00000000 
 15583 0088 0E000000 		.quad	.LFE2379
 15583      00000000 
 15584 0090 00000000 		.quad	.LFB2380
 15584      00000000 
 15585 0098 2B000000 		.quad	.LFE2380
 15585      00000000 
GAS LISTING C:\Users\Ilya\AppData\Local\Temp\ccxaKDG8.s 			page 361


 15586 00a0 00000000 		.quad	.LFB2419
 15586      00000000 
 15587 00a8 1C000000 		.quad	.LFE2419
 15587      00000000 
 15588 00b0 00000000 		.quad	.LFB2421
 15588      00000000 
 15589 00b8 39000000 		.quad	.LFE2421
 15589      00000000 
 15590 00c0 00000000 		.quad	.LFB2422
 15590      00000000 
 15591 00c8 27000000 		.quad	.LFE2422
 15591      00000000 
 15592 00d0 00000000 		.quad	.LFB2461
 15592      00000000 
 15593 00d8 0B000000 		.quad	.LFE2461
 15593      00000000 
 15594 00e0 00000000 		.quad	.LFB2463
 15594      00000000 
 15595 00e8 32000000 		.quad	.LFE2463
 15595      00000000 
 15596 00f0 00000000 		.quad	.LFB2464
 15596      00000000 
 15597 00f8 0F000000 		.quad	.LFE2464
 15597      00000000 
 15598 0100 00000000 		.quad	.LFB2494
 15598      00000000 
 15599 0108 33000000 		.quad	.LFE2494
 15599      00000000 
 15600 0110 00000000 		.quad	0
 15600      00000000 
 15601 0118 00000000 		.quad	0
 15601      00000000 
 15602              		.section	.debug_line,"dr"
 15603              	.Ldebug_line0:
 15604 0000 14060000 		.section	.debug_str,"dr"
 15604      0300E403 
 15604      00000101 
 15604      FB0E0D00 
 15604      01010101 
 15605              	.LASF20:
 15606 0000 63617061 		.ascii "capacity\0"
 15606      63697479 
 15606      00
 15607              	.LASF38:
 15608 0009 66696E64 		.ascii "find_last_not_of\0"
 15608      5F6C6173 
 15608      745F6E6F 
 15608      745F6F66 
 15608      00
 15609              	.LASF37:
 15610 001a 66696E64 		.ascii "find_first_not_of\0"
 15610      5F666972 
 15610      73745F6E 
 15610      6F745F6F 
 15610      6600
 15611              	.LASF94:
 15612 002c 5F5F696E 		.ascii "__in_chrg\0"
GAS LISTING C:\Users\Ilya\AppData\Local\Temp\ccxaKDG8.s 			page 362


 15612      5F636872 
 15612      6700
 15613              	.LASF44:
 15614 0036 5F436861 		.ascii "_CharT\0"
 15614      725400
 15615              	.LASF58:
 15616 003d 5F54705F 		.ascii "_Tp_alloc_type\0"
 15616      616C6C6F 
 15616      635F7479 
 15616      706500
 15617              	.LASF3:
 15618 004c 5F4D5F6C 		.ascii "_M_local_data\0"
 15618      6F63616C 
 15618      5F646174 
 15618      6100
 15619              	.LASF55:
 15620 005a 696E6974 		.ascii "initializer_list\0"
 15620      69616C69 
 15620      7A65725F 
 15620      6C697374 
 15620      00
 15621              	.LASF4:
 15622 006b 636F6E73 		.ascii "const_pointer\0"
 15622      745F706F 
 15622      696E7465 
 15622      7200
 15623              	.LASF46:
 15624 0079 70696563 		.ascii "piecewise_construct_t\0"
 15624      65776973 
 15624      655F636F 
 15624      6E737472 
 15624      7563745F 
 15625              	.LASF80:
 15626 008f 6F706572 		.ascii "operator*\0"
 15626      61746F72 
 15626      2A00
 15627              	.LASF43:
 15628 0099 6F706572 		.ascii "operator()\0"
 15628      61746F72 
 15628      282900
 15629              	.LASF63:
 15630 00a4 76656374 		.ascii "vector\0"
 15630      6F7200
 15631              	.LASF1:
 15632 00ab 706F696E 		.ascii "pointer\0"
 15632      74657200 
 15633              	.LASF2:
 15634 00b3 73697A65 		.ascii "size_type\0"
 15634      5F747970 
 15634      6500
 15635              	.LASF76:
 15636 00bd 5F535F61 		.ascii "_S_always_equal\0"
 15636      6C776179 
 15636      735F6571 
 15636      75616C00 
 15637              	.LASF72:
 15638 00cd 5F535F6F 		.ascii "_S_on_swap\0"
GAS LISTING C:\Users\Ilya\AppData\Local\Temp\ccxaKDG8.s 			page 363


 15638      6E5F7377 
 15638      617000
 15639              	.LASF12:
 15640 00d8 6F706572 		.ascii "operator=\0"
 15640      61746F72 
 15640      3D00
 15641              	.LASF30:
 15642 00e2 65726173 		.ascii "erase\0"
 15642      6500
 15643              	.LASF74:
 15644 00e8 5F535F70 		.ascii "_S_propagate_on_move_assign\0"
 15644      726F7061 
 15644      67617465 
 15644      5F6F6E5F 
 15644      6D6F7665 
 15645              	.LASF6:
 15646 0104 5F4D5F67 		.ascii "_M_get_allocator\0"
 15646      65745F61 
 15646      6C6C6F63 
 15646      61746F72 
 15646      00
 15647              	.LASF31:
 15648 0115 706F705F 		.ascii "pop_back\0"
 15648      6261636B 
 15648      00
 15649              	.LASF93:
 15650 011e 74686973 		.ascii "this\0"
 15650      00
 15651              	.LASF92:
 15652 0123 50726F63 		.ascii "Process\0"
 15652      65737300 
 15653              	.LASF61:
 15654 012b 5F535F6E 		.ascii "_S_nothrow_relocate\0"
 15654      6F746872 
 15654      6F775F72 
 15654      656C6F63 
 15654      61746500 
 15655              	.LASF64:
 15656 013f 5F4D5F6D 		.ascii "_M_move_assign\0"
 15656      6F76655F 
 15656      61737369 
 15656      676E00
 15657              	.LASF9:
 15658 014e 636F6E73 		.ascii "const_iterator\0"
 15658      745F6974 
 15658      65726174 
 15658      6F7200
 15659              	.LASF77:
 15660 015d 5F535F6E 		.ascii "_S_nothrow_move\0"
 15660      6F746872 
 15660      6F775F6D 
 15660      6F766500 
 15661              	.LASF78:
 15662 016d 5F4D5F63 		.ascii "_M_current\0"
 15662      75727265 
 15662      6E7400
 15663              	.LASF7:
GAS LISTING C:\Users\Ilya\AppData\Local\Temp\ccxaKDG8.s 			page 364


 15664 0178 5F535F63 		.ascii "_S_copy_chars\0"
 15664      6F70795F 
 15664      63686172 
 15664      7300
 15665              	.LASF35:
 15666 0186 66696E64 		.ascii "find_first_of\0"
 15666      5F666972 
 15666      73745F6F 
 15666      6600
 15667              	.LASF57:
 15668 0194 5F566563 		.ascii "_Vector_impl\0"
 15668      746F725F 
 15668      696D706C 
 15668      00
 15669              	.LASF65:
 15670 01a1 64696666 		.ascii "difference_type\0"
 15670      6572656E 
 15670      63655F74 
 15670      79706500 
 15671              	.LASF29:
 15672 01b1 696E7365 		.ascii "insert\0"
 15672      727400
 15673              	.LASF13:
 15674 01b8 62656769 		.ascii "begin\0"
 15674      6E00
 15675              	.LASF19:
 15676 01be 73687269 		.ascii "shrink_to_fit\0"
 15676      6E6B5F74 
 15676      6F5F6669 
 15676      7400
 15677              	.LASF59:
 15678 01cc 5F4D5F67 		.ascii "_M_get_Tp_allocator\0"
 15678      65745F54 
 15678      705F616C 
 15678      6C6F6361 
 15678      746F7200 
 15679              	.LASF28:
 15680 01e0 61737369 		.ascii "assign\0"
 15680      676E00
 15681              	.LASF70:
 15682 01e7 5F4D5F6D 		.ascii "_M_max_size\0"
 15682      61785F73 
 15682      697A6500 
 15683              	.LASF89:
 15684 01f3 73777072 		.ascii "swprintf\0"
 15684      696E7466 
 15684      00
 15685              	.LASF49:
 15686 01fc 5F466F72 		.ascii "_ForwardIterator\0"
 15686      77617264 
 15686      49746572 
 15686      61746F72 
 15686      00
 15687              	.LASF14:
 15688 020d 72657665 		.ascii "reverse_iterator\0"
 15688      7273655F 
 15688      69746572 
GAS LISTING C:\Users\Ilya\AppData\Local\Temp\ccxaKDG8.s 			page 365


 15688      61746F72 
 15688      00
 15689              	.LASF52:
 15690 021e 6465616C 		.ascii "deallocate\0"
 15690      6C6F6361 
 15690      746500
 15691              	.LASF73:
 15692 0229 5F535F70 		.ascii "_S_propagate_on_copy_assign\0"
 15692      726F7061 
 15692      67617465 
 15692      5F6F6E5F 
 15692      636F7079 
 15693              	.LASF23:
 15694 0245 72656665 		.ascii "reference\0"
 15694      72656E63 
 15694      6500
 15695              	.LASF82:
 15696 024f 6F706572 		.ascii "operator++\0"
 15696      61746F72 
 15696      2B2B00
 15697              	.LASF41:
 15698 025a 65786365 		.ascii "exception_ptr\0"
 15698      7074696F 
 15698      6E5F7074 
 15698      7200
 15699              	.LASF56:
 15700 0268 5F566563 		.ascii "_Vector_impl_data\0"
 15700      746F725F 
 15700      696D706C 
 15700      5F646174 
 15700      6100
 15701              	.LASF69:
 15702 027a 61646472 		.ascii "address\0"
 15702      65737300 
 15703              	.LASF79:
 15704 0282 5F5F6E6F 		.ascii "__normal_iterator\0"
 15704      726D616C 
 15704      5F697465 
 15704      7261746F 
 15704      7200
 15705              	.LASF90:
 15706 0294 76737770 		.ascii "vswprintf\0"
 15706      72696E74 
 15706      6600
 15707              	.LASF39:
 15708 029e 636F6D70 		.ascii "compare\0"
 15708      61726500 
 15709              	.LASF87:
 15710 02a6 5F497465 		.ascii "_Iterator\0"
 15710      7261746F 
 15710      7200
 15711              	.LASF21:
 15712 02b0 636F6E73 		.ascii "const_reference\0"
 15712      745F7265 
 15712      66657265 
 15712      6E636500 
 15713              	.LASF33:
GAS LISTING C:\Users\Ilya\AppData\Local\Temp\ccxaKDG8.s 			page 366


 15714 02c0 6765745F 		.ascii "get_allocator\0"
 15714      616C6C6F 
 15714      6361746F 
 15714      7200
 15715              	.LASF8:
 15716 02ce 69746572 		.ascii "iterator\0"
 15716      61746F72 
 15716      00
 15717              	.LASF16:
 15718 02d7 636F6E73 		.ascii "const_reverse_iterator\0"
 15718      745F7265 
 15718      76657273 
 15718      655F6974 
 15718      65726174 
 15719              	.LASF48:
 15720 02ee 7E616C6C 		.ascii "~allocator\0"
 15720      6F636174 
 15720      6F7200
 15721              	.LASF71:
 15722 02f9 5F535F73 		.ascii "_S_select_on_copy\0"
 15722      656C6563 
 15722      745F6F6E 
 15722      5F636F70 
 15722      7900
 15723              	.LASF84:
 15724 030b 6F706572 		.ascii "operator+\0"
 15724      61746F72 
 15724      2B00
 15725              	.LASF86:
 15726 0315 6F706572 		.ascii "operator-\0"
 15726      61746F72 
 15726      2D00
 15727              	.LASF60:
 15728 031f 5F566563 		.ascii "_Vector_base\0"
 15728      746F725F 
 15728      62617365 
 15728      00
 15729              	.LASF24:
 15730 032c 66726F6E 		.ascii "front\0"
 15730      7400
 15731              	.LASF53:
 15732 0332 73656C65 		.ascii "select_on_container_copy_construction\0"
 15732      63745F6F 
 15732      6E5F636F 
 15732      6E746169 
 15732      6E65725F 
 15733              	.LASF26:
 15734 0358 61707065 		.ascii "append\0"
 15734      6E6400
 15735              	.LASF62:
 15736 035f 5F535F64 		.ascii "_S_do_relocate\0"
 15736      6F5F7265 
 15736      6C6F6361 
 15736      746500
 15737              	.LASF11:
 15738 036e 62617369 		.ascii "basic_string\0"
 15738      635F7374 
GAS LISTING C:\Users\Ilya\AppData\Local\Temp\ccxaKDG8.s 			page 367


 15738      72696E67 
 15738      00
 15739              	.LASF0:
 15740 037b 5F416C6C 		.ascii "_Alloc_hider\0"
 15740      6F635F68 
 15740      69646572 
 15740      00
 15741              	.LASF25:
 15742 0388 6F706572 		.ascii "operator+=\0"
 15742      61746F72 
 15742      2B3D00
 15743              	.LASF91:
 15744 0393 5472616E 		.ascii "TransferUnit\0"
 15744      73666572 
 15744      556E6974 
 15744      00
 15745              	.LASF45:
 15746 03a0 5F5F7661 		.ascii "__value\0"
 15746      6C756500 
 15747              	.LASF15:
 15748 03a8 72626567 		.ascii "rbegin\0"
 15748      696E00
 15749              	.LASF83:
 15750 03af 6F706572 		.ascii "operator--\0"
 15750      61746F72 
 15750      2D2D00
 15751              	.LASF32:
 15752 03ba 7265706C 		.ascii "replace\0"
 15752      61636500 
 15753              	.LASF85:
 15754 03c2 6F706572 		.ascii "operator-=\0"
 15754      61746F72 
 15754      2D3D00
 15755              	.LASF81:
 15756 03cd 6F706572 		.ascii "operator->\0"
 15756      61746F72 
 15756      2D3E00
 15757              	.LASF54:
 15758 03d8 72656269 		.ascii "rebind_alloc\0"
 15758      6E645F61 
 15758      6C6C6F63 
 15758      00
 15759              	.LASF36:
 15760 03e5 66696E64 		.ascii "find_last_of\0"
 15760      5F6C6173 
 15760      745F6F66 
 15760      00
 15761              	.LASF47:
 15762 03f2 616C6C6F 		.ascii "allocator\0"
 15762      6361746F 
 15762      7200
 15763              	.LASF67:
 15764 03fc 6E65775F 		.ascii "new_allocator\0"
 15764      616C6C6F 
 15764      6361746F 
 15764      7200
 15765              	.LASF34:
GAS LISTING C:\Users\Ilya\AppData\Local\Temp\ccxaKDG8.s 			page 368


 15766 040a 7266696E 		.ascii "rfind\0"
 15766      6400
 15767              	.LASF10:
 15768 0410 5F4D5F65 		.ascii "_M_erase\0"
 15768      72617365 
 15768      00
 15769              	.LASF51:
 15770 0419 636F6E73 		.ascii "const_void_pointer\0"
 15770      745F766F 
 15770      69645F70 
 15770      6F696E74 
 15770      657200
 15771              	.LASF88:
 15772 042c 5F436F6E 		.ascii "_Container\0"
 15772      7461696E 
 15772      657200
 15773              	.LASF27:
 15774 0437 70757368 		.ascii "push_back\0"
 15774      5F626163 
 15774      6B00
 15775              	.LASF5:
 15776 0441 616C6C6F 		.ascii "allocator_type\0"
 15776      6361746F 
 15776      725F7479 
 15776      706500
 15777              	.LASF17:
 15778 0450 6D61785F 		.ascii "max_size\0"
 15778      73697A65 
 15778      00
 15779              	.LASF66:
 15780 0459 5F5F7061 		.ascii "__pair_base\0"
 15780      69725F62 
 15780      61736500 
 15781              	.LASF22:
 15782 0465 6F706572 		.ascii "operator[]\0"
 15782      61746F72 
 15782      5B5D00
 15783              	.LASF75:
 15784 0470 5F535F70 		.ascii "_S_propagate_on_swap\0"
 15784      726F7061 
 15784      67617465 
 15784      5F6F6E5F 
 15784      73776170 
 15785              	.LASF68:
 15786 0485 7E6E6577 		.ascii "~new_allocator\0"
 15786      5F616C6C 
 15786      6F636174 
 15786      6F7200
 15787              	.LASF18:
 15788 0494 72657369 		.ascii "resize\0"
 15788      7A6500
 15789              	.LASF40:
 15790 049b 5F416C6C 		.ascii "_Alloc\0"
 15790      6F6300
 15791              	.LASF42:
 15792 04a2 76616C75 		.ascii "value_type\0"
 15792      655F7479 
GAS LISTING C:\Users\Ilya\AppData\Local\Temp\ccxaKDG8.s 			page 369


 15792      706500
 15793              	.LASF50:
 15794 04ad 616C6C6F 		.ascii "allocate\0"
 15794      63617465 
 15794      00
 15795              		.data
 15796              		.align 8
 15797              	.LDFCM0:
 15798 0000 00000000 		.quad	_ZTIN13BFInterpreter20InterpreterExceptionE
 15798      00000000 
 15799              		.ident	"GCC: (Rev3, Built by MSYS2 project) 10.1.0"
 15817 0008 00000000 		.section	.rdata$.refptr._ZSt4endlIcSt11char_traitsIcEERSt13basic_ostreamIT_T0_ES6_, "dr"
 15817      00000000 
 15818              		.globl	.refptr._ZSt4endlIcSt11char_traitsIcEERSt13basic_ostreamIT_T0_ES6_
 15819              		.linkonce	discard
 15820              	.refptr._ZSt4endlIcSt11char_traitsIcEERSt13basic_ostreamIT_T0_ES6_:
 15821 0000 00000000 		.quad	_ZSt4endlIcSt11char_traitsIcEERSt13basic_ostreamIT_T0_ES6_
 15821      00000000 
 15822 0008 00000000 		.section	.rdata$.refptr._ZSt4cout, "dr"
 15822      00000000 
 15823              		.globl	.refptr._ZSt4cout
 15824              		.linkonce	discard
 15825              	.refptr._ZSt4cout:
 15826 0000 00000000 		.quad	_ZSt4cout
 15826      00000000 
 15826      00000000 
 15826      00000000 
GAS LISTING C:\Users\Ilya\AppData\Local\Temp\ccxaKDG8.s 			page 370


DEFINED SYMBOLS
                            *ABS*:0000000000000000 main.cpp
C:\Users\Ilya\AppData\Local\Temp\ccxaKDG8.s:6      .rdata:0000000000000000 _ZStL19piecewise_construct
                             .bss:0000000000000000 _ZStL8__ioinit
C:\Users\Ilya\AppData\Local\Temp\ccxaKDG8.s:10     .rdata:0000000000000004 _ZN13BFInterpreterL9UNSET_ARGE
C:\Users\Ilya\AppData\Local\Temp\ccxaKDG8.s:18     .text$_ZN13BFInterpreter12TransferUnitD1Ev:0000000000000000 _ZN13BFInterpreter12TransferUnitD1Ev
C:\Users\Ilya\AppData\Local\Temp\ccxaKDG8.s:62     .text:0000000000000000 main
C:\Users\Ilya\AppData\Local\Temp\ccxaKDG8.s:15825  .rdata$.refptr._ZSt4cout:0000000000000000 .refptr._ZSt4cout
C:\Users\Ilya\AppData\Local\Temp\ccxaKDG8.s:15820  .rdata$.refptr._ZSt4endlIcSt11char_traitsIcEERSt13basic_ostreamIT_T0_ES6_:0000000000000000 .refptr._ZSt4endlIcSt11char_traitsIcEERSt13basic_ostreamIT_T0_ES6_
C:\Users\Ilya\AppData\Local\Temp\ccxaKDG8.s:275    .text$_ZNSt6vectorISt4pairIclESaIS1_EED1Ev:0000000000000000 _ZNSt6vectorISt4pairIclESaIS1_EED1Ev
C:\Users\Ilya\AppData\Local\Temp\ccxaKDG8.s:336    .text$_ZNSt12_Vector_baseISt4pairIclESaIS1_EE12_Vector_implD1Ev:0000000000000000 _ZNSt12_Vector_baseISt4pairIclESaIS1_EE12_Vector_implD1Ev
C:\Users\Ilya\AppData\Local\Temp\ccxaKDG8.s:371    .text$_ZNSt12_Vector_baseISt4pairIclESaIS1_EED2Ev:0000000000000000 _ZNSt12_Vector_baseISt4pairIclESaIS1_EED2Ev
C:\Users\Ilya\AppData\Local\Temp\ccxaKDG8.s:436    .text$_ZNSt12_Vector_baseISt4pairIclESaIS1_EE19_M_get_Tp_allocatorEv:0000000000000000 _ZNSt12_Vector_baseISt4pairIclESaIS1_EE19_M_get_Tp_allocatorEv
C:\Users\Ilya\AppData\Local\Temp\ccxaKDG8.s:464    .text$_ZSt8_DestroyIPSt4pairIclES1_EvT_S3_RSaIT0_E:0000000000000000 _ZSt8_DestroyIPSt4pairIclES1_EvT_S3_RSaIT0_E
C:\Users\Ilya\AppData\Local\Temp\ccxaKDG8.s:503    .text$_ZNSaISt4pairIclEED2Ev:0000000000000000 _ZNSaISt4pairIclEED2Ev
C:\Users\Ilya\AppData\Local\Temp\ccxaKDG8.s:539    .text$_ZNSt12_Vector_baseISt4pairIclESaIS1_EE13_M_deallocateEPS1_y:0000000000000000 _ZNSt12_Vector_baseISt4pairIclESaIS1_EE13_M_deallocateEPS1_y
C:\Users\Ilya\AppData\Local\Temp\ccxaKDG8.s:583    .text$_ZSt8_DestroyIPSt4pairIclEEvT_S3_:0000000000000000 _ZSt8_DestroyIPSt4pairIclEEvT_S3_
C:\Users\Ilya\AppData\Local\Temp\ccxaKDG8.s:621    .text$_ZN9__gnu_cxx13new_allocatorISt4pairIclEED2Ev:0000000000000000 _ZN9__gnu_cxx13new_allocatorISt4pairIclEED2Ev
C:\Users\Ilya\AppData\Local\Temp\ccxaKDG8.s:649    .text$_ZNSt16allocator_traitsISaISt4pairIclEEE10deallocateERS2_PS1_y:0000000000000000 _ZNSt16allocator_traitsISaISt4pairIclEEE10deallocateERS2_PS1_y
C:\Users\Ilya\AppData\Local\Temp\ccxaKDG8.s:688    .text$_ZNSt12_Destroy_auxILb1EE9__destroyIPSt4pairIclEEEvT_S5_:0000000000000000 _ZNSt12_Destroy_auxILb1EE9__destroyIPSt4pairIclEEEvT_S5_
C:\Users\Ilya\AppData\Local\Temp\ccxaKDG8.s:717    .text$_ZN9__gnu_cxx13new_allocatorISt4pairIclEE10deallocateEPS2_y:0000000000000000 _ZN9__gnu_cxx13new_allocatorISt4pairIclEE10deallocateEPS2_y
C:\Users\Ilya\AppData\Local\Temp\ccxaKDG8.s:754    .rdata$_ZTIN13BFInterpreter20InterpreterExceptionE:0000000000000000 _ZTIN13BFInterpreter20InterpreterExceptionE
C:\Users\Ilya\AppData\Local\Temp\ccxaKDG8.s:762    .rdata$_ZTSN13BFInterpreter20InterpreterExceptionE:0000000000000000 _ZTSN13BFInterpreter20InterpreterExceptionE
C:\Users\Ilya\AppData\Local\Temp\ccxaKDG8.s:768    .rdata$_ZTISt9exception:0000000000000000 _ZTISt9exception
C:\Users\Ilya\AppData\Local\Temp\ccxaKDG8.s:775    .rdata$_ZTSSt9exception:0000000000000000 _ZTSSt9exception
C:\Users\Ilya\AppData\Local\Temp\ccxaKDG8.s:780    .text:0000000000000143 __tcf_0
C:\Users\Ilya\AppData\Local\Temp\ccxaKDG8.s:809    .text:000000000000015e _Z41__static_initialization_and_destruction_0ii
C:\Users\Ilya\AppData\Local\Temp\ccxaKDG8.s:849    .text:000000000000019a _GLOBAL__sub_I_main

UNDEFINED SYMBOLS
__main
__gxx_personality_seh0
_ZTVN10__cxxabiv120__si_class_type_infoE
_ZTVN10__cxxabiv117__class_type_infoE
_ZN13BFInterpreter12TransferUnitC1EPKc
_ZN13BFInterpreter12PrintListingERNS_12TransferUnitE
_ZN13BFInterpreter7ProcessC1ERNS_12TransferUnitEy
_ZN13BFInterpreter7Process11FullExecuteEv
_ZN13BFInterpreter7ProcessD1Ev
_Unwind_Resume
__cxa_begin_catch
_ZStlsISt11char_traitsIcEERSt13basic_ostreamIcT_ES5_PKc
_ZNK13BFInterpreter20InterpreterException4whatEv
_ZNK13BFInterpreter20InterpreterException7GetCodeEv
_ZNSolsEi
_ZNSolsEPFRSoS_E
__cxa_end_catch
_ZdlPvy
_ZNSt8ios_base4InitD1Ev
_ZNSt8ios_base4InitC1Ev
atexit
_ZSt4endlIcSt11char_traitsIcEERSt13basic_ostreamIT_T0_ES6_
_ZSt4cout
